

Microchip MPLAB XC8 Assembler V2.10 build 88905656 
                                                                                               Mon Jan 27 17:35:16 2020

Microchip MPLAB XC8 C Compiler v2.10 (Free license) build 20190730164152 Og1 
     1                           	processor	16F1776
     2                           	opt	pw 120
     3                           	opt	flic
     4                           	psect	idataCOMMON,global,class=CODE,delta=2
     5                           	psect	stringtext1,global,class=STRCODE,delta=2
     6                           	psect	stringtext2,global,class=STRCODE,delta=2
     7                           	psect	cinit,global,class=CODE,merge=1,delta=2
     8                           	psect	bssCOMMON,global,class=COMMON,space=1,delta=1
     9                           	psect	dataCOMMON,global,class=COMMON,space=1,delta=1
    10                           	psect	bssBANK0,global,class=BANK0,space=1,delta=1
    11                           	psect	clrtext,global,class=CODE,delta=2
    12                           	psect	cstackCOMMON,global,class=COMMON,space=1,delta=1
    13                           	psect	maintext,global,class=CODE,merge=1,split=1,delta=2
    14                           	psect	text1,local,class=CODE,merge=1,delta=2
    15                           	psect	text2,local,class=CODE,merge=1,delta=2
    16                           	psect	text3,local,class=CODE,merge=1,delta=2
    17                           	psect	text4,local,class=CODE,merge=1,delta=2
    18                           	psect	text5,local,class=CODE,merge=1,delta=2
    19                           	psect	intentry,global,class=CODE,delta=2
    20                           	dabs	1,0x7E,2
    21  0000                     
    22                           ; Version 2.10
    23                           ; Generated 31/07/2019 GMT
    24                           ; 
    25                           ; Copyright © 2019, Microchip Technology Inc. and its subsidiaries ("Microchip")
    26                           ; All rights reserved.
    27                           ; 
    28                           ; This software is developed by Microchip Technology Inc. and its subsidiaries ("Microch
      +                          ip").
    29                           ; 
    30                           ; Redistribution and use in source and binary forms, with or without modification, are
    31                           ; permitted provided that the following conditions are met:
    32                           ; 
    33                           ;     1. Redistributions of source code must retain the above copyright notice, this lis
      +                          t of
    34                           ;        conditions and the following disclaimer.
    35                           ; 
    36                           ;     2. Redistributions in binary form must reproduce the above copyright notice, this 
      +                          list
    37                           ;        of conditions and the following disclaimer in the documentation and/or other
    38                           ;        materials provided with the distribution.
    39                           ; 
    40                           ;     3. Microchip's name may not be used to endorse or promote products derived from th
      +                          is
    41                           ;        software without specific prior written permission.
    42                           ; 
    43                           ; THIS SOFTWARE IS PROVIDED BY MICROCHIP "AS IS" AND ANY EXPRESS OR IMPLIED WARRANTIES,
    44                           ; INCLUDING, BUT NOT LIMITED TO, THE IMPLIED WARRANTIES OF MERCHANTABILITY AND FITNESS F
      +                          OR
    45                           ; PURPOSE ARE DISCLAIMED.  IN NO EVENT SHALL MICROCHIP BE LIABLE FOR ANY DIRECT, INDIREC
      +                          T,
    46                           ; INCIDENTAL, SPECIAL, EXEMPLARY, OR CONSEQUENTIAL DAMAGES (INCLUDING BUT NOT LIMITED TO
    47                           ; PROCUREMENT OF SUBSTITUTE GOODS OR SERVICES; LOSS OF USE, DATA OR PROFITS; OR BUSINESS
    48                           ; INTERRUPTION) HOWSOEVER CAUSED AND ON ANY THEORY OF LIABILITY, WHETHER IN CONTRACT, ST
      +                          RICT
    49                           ; LIABILITY, OR TORT (INCLUDING NEGLIGENCE OR OTHERWISE) ARISING IN ANY WAY OUT OF THE U
      +                          SE OF
    50                           ; THIS SOFTWARE, EVEN IF ADVISED OF THE POSSIBILITY OF SUCH DAMAGE.
    51                           ; 
    52                           ; 
    53                           ; Code-generator required, PIC16F1776 Definitions
    54                           ; 
    55                           ; SFR Addresses
    56  0000                     	;# 
    57  0001                     	;# 
    58  0002                     	;# 
    59  0003                     	;# 
    60  0004                     	;# 
    61  0005                     	;# 
    62  0006                     	;# 
    63  0007                     	;# 
    64  0008                     	;# 
    65  0009                     	;# 
    66  000A                     	;# 
    67  000B                     	;# 
    68  000C                     	;# 
    69  000D                     	;# 
    70  000E                     	;# 
    71  0010                     	;# 
    72  0011                     	;# 
    73  0012                     	;# 
    74  0013                     	;# 
    75  0014                     	;# 
    76  0015                     	;# 
    77  0016                     	;# 
    78  0017                     	;# 
    79  0018                     	;# 
    80  0018                     	;# 
    81  0019                     	;# 
    82  001A                     	;# 
    83  001B                     	;# 
    84  001C                     	;# 
    85  001C                     	;# 
    86  001D                     	;# 
    87  001E                     	;# 
    88  001F                     	;# 
    89  008C                     	;# 
    90  008D                     	;# 
    91  008E                     	;# 
    92  0090                     	;# 
    93  0091                     	;# 
    94  0092                     	;# 
    95  0093                     	;# 
    96  0094                     	;# 
    97  0095                     	;# 
    98  0096                     	;# 
    99  0097                     	;# 
   100  0098                     	;# 
   101  0099                     	;# 
   102  009A                     	;# 
   103  009B                     	;# 
   104  009C                     	;# 
   105  009D                     	;# 
   106  009E                     	;# 
   107  009F                     	;# 
   108  010C                     	;# 
   109  010D                     	;# 
   110  010E                     	;# 
   111  0111                     	;# 
   112  0112                     	;# 
   113  0113                     	;# 
   114  0114                     	;# 
   115  0115                     	;# 
   116  0116                     	;# 
   117  0117                     	;# 
   118  0118                     	;# 
   119  0119                     	;# 
   120  011A                     	;# 
   121  011B                     	;# 
   122  011C                     	;# 
   123  011D                     	;# 
   124  018C                     	;# 
   125  018D                     	;# 
   126  018E                     	;# 
   127  0191                     	;# 
   128  0191                     	;# 
   129  0192                     	;# 
   130  0193                     	;# 
   131  0193                     	;# 
   132  0194                     	;# 
   133  0195                     	;# 
   134  0196                     	;# 
   135  0197                     	;# 
   136  0199                     	;# 
   137  0199                     	;# 
   138  0199                     	;# 
   139  019A                     	;# 
   140  019A                     	;# 
   141  019A                     	;# 
   142  019B                     	;# 
   143  019B                     	;# 
   144  019B                     	;# 
   145  019B                     	;# 
   146  019B                     	;# 
   147  019C                     	;# 
   148  019C                     	;# 
   149  019C                     	;# 
   150  019D                     	;# 
   151  019D                     	;# 
   152  019D                     	;# 
   153  019E                     	;# 
   154  019E                     	;# 
   155  019E                     	;# 
   156  019F                     	;# 
   157  019F                     	;# 
   158  019F                     	;# 
   159  019F                     	;# 
   160  019F                     	;# 
   161  020C                     	;# 
   162  020D                     	;# 
   163  020E                     	;# 
   164  0210                     	;# 
   165  0211                     	;# 
   166  0211                     	;# 
   167  0212                     	;# 
   168  0212                     	;# 
   169  0213                     	;# 
   170  0213                     	;# 
   171  0214                     	;# 
   172  0214                     	;# 
   173  0215                     	;# 
   174  0215                     	;# 
   175  0215                     	;# 
   176  0215                     	;# 
   177  0216                     	;# 
   178  0216                     	;# 
   179  0217                     	;# 
   180  0217                     	;# 
   181  021B                     	;# 
   182  021C                     	;# 
   183  021D                     	;# 
   184  021E                     	;# 
   185  021F                     	;# 
   186  028C                     	;# 
   187  028D                     	;# 
   188  028E                     	;# 
   189  0291                     	;# 
   190  0291                     	;# 
   191  0292                     	;# 
   192  0293                     	;# 
   193  0294                     	;# 
   194  0295                     	;# 
   195  0295                     	;# 
   196  0296                     	;# 
   197  0297                     	;# 
   198  0298                     	;# 
   199  0299                     	;# 
   200  0299                     	;# 
   201  029A                     	;# 
   202  029B                     	;# 
   203  029C                     	;# 
   204  029E                     	;# 
   205  029F                     	;# 
   206  030C                     	;# 
   207  030D                     	;# 
   208  030E                     	;# 
   209  0315                     	;# 
   210  0316                     	;# 
   211  0317                     	;# 
   212  0318                     	;# 
   213  0319                     	;# 
   214  031B                     	;# 
   215  031C                     	;# 
   216  031D                     	;# 
   217  031E                     	;# 
   218  031F                     	;# 
   219  038C                     	;# 
   220  038D                     	;# 
   221  038E                     	;# 
   222  0390                     	;# 
   223  0391                     	;# 
   224  0392                     	;# 
   225  0393                     	;# 
   226  0394                     	;# 
   227  0395                     	;# 
   228  0396                     	;# 
   229  0397                     	;# 
   230  0398                     	;# 
   231  0399                     	;# 
   232  039D                     	;# 
   233  039E                     	;# 
   234  039F                     	;# 
   235  040D                     	;# 
   236  040F                     	;# 
   237  040F                     	;# 
   238  0410                     	;# 
   239  0411                     	;# 
   240  0412                     	;# 
   241  0413                     	;# 
   242  0413                     	;# 
   243  0414                     	;# 
   244  0414                     	;# 
   245  0415                     	;# 
   246  0416                     	;# 
   247  0417                     	;# 
   248  0418                     	;# 
   249  041A                     	;# 
   250  041A                     	;# 
   251  041B                     	;# 
   252  041B                     	;# 
   253  041C                     	;# 
   254  041D                     	;# 
   255  041E                     	;# 
   256  041F                     	;# 
   257  048E                     	;# 
   258  048E                     	;# 
   259  048F                     	;# 
   260  0490                     	;# 
   261  0491                     	;# 
   262  0492                     	;# 
   263  0493                     	;# 
   264  0493                     	;# 
   265  0494                     	;# 
   266  0494                     	;# 
   267  0495                     	;# 
   268  0496                     	;# 
   269  0497                     	;# 
   270  0498                     	;# 
   271  049A                     	;# 
   272  049A                     	;# 
   273  049B                     	;# 
   274  049B                     	;# 
   275  049C                     	;# 
   276  049D                     	;# 
   277  049E                     	;# 
   278  049F                     	;# 
   279  050F                     	;# 
   280  0510                     	;# 
   281  0511                     	;# 
   282  0512                     	;# 
   283  0513                     	;# 
   284  0514                     	;# 
   285  0515                     	;# 
   286  0516                     	;# 
   287  0517                     	;# 
   288  0518                     	;# 
   289  0519                     	;# 
   290  051A                     	;# 
   291  058D                     	;# 
   292  058E                     	;# 
   293  058F                     	;# 
   294  058F                     	;# 
   295  058F                     	;# 
   296  0590                     	;# 
   297  0590                     	;# 
   298  0591                     	;# 
   299  0592                     	;# 
   300  0592                     	;# 
   301  0592                     	;# 
   302  0593                     	;# 
   303  0593                     	;# 
   304  0594                     	;# 
   305  0595                     	;# 
   306  0595                     	;# 
   307  0596                     	;# 
   308  0597                     	;# 
   309  0597                     	;# 
   310  0598                     	;# 
   311  0599                     	;# 
   312  0599                     	;# 
   313  0599                     	;# 
   314  059A                     	;# 
   315  059A                     	;# 
   316  059E                     	;# 
   317  059F                     	;# 
   318  059F                     	;# 
   319  0614                     	;# 
   320  0614                     	;# 
   321  0615                     	;# 
   322  0616                     	;# 
   323  0617                     	;# 
   324  0617                     	;# 
   325  0618                     	;# 
   326  0619                     	;# 
   327  061A                     	;# 
   328  061A                     	;# 
   329  061B                     	;# 
   330  061C                     	;# 
   331  068D                     	;# 
   332  068E                     	;# 
   333  068F                     	;# 
   334  0690                     	;# 
   335  0691                     	;# 
   336  0692                     	;# 
   337  0693                     	;# 
   338  0694                     	;# 
   339  0695                     	;# 
   340  0696                     	;# 
   341  0697                     	;# 
   342  0698                     	;# 
   343  0699                     	;# 
   344  069A                     	;# 
   345  069B                     	;# 
   346  069C                     	;# 
   347  069D                     	;# 
   348  069E                     	;# 
   349  069F                     	;# 
   350  070D                     	;# 
   351  070E                     	;# 
   352  070F                     	;# 
   353  0710                     	;# 
   354  0711                     	;# 
   355  0712                     	;# 
   356  0713                     	;# 
   357  0714                     	;# 
   358  0715                     	;# 
   359  0716                     	;# 
   360  0717                     	;# 
   361  0718                     	;# 
   362  0719                     	;# 
   363  071A                     	;# 
   364  071B                     	;# 
   365  071C                     	;# 
   366  071D                     	;# 
   367  071E                     	;# 
   368  071F                     	;# 
   369  078E                     	;# 
   370  078F                     	;# 
   371  0790                     	;# 
   372  0791                     	;# 
   373  0792                     	;# 
   374  0793                     	;# 
   375  0794                     	;# 
   376  0795                     	;# 
   377  0796                     	;# 
   378  0797                     	;# 
   379  0798                     	;# 
   380  0799                     	;# 
   381  079A                     	;# 
   382  079B                     	;# 
   383  079C                     	;# 
   384  079D                     	;# 
   385  079E                     	;# 
   386  079F                     	;# 
   387  080D                     	;# 
   388  080E                     	;# 
   389  080F                     	;# 
   390  0810                     	;# 
   391  0811                     	;# 
   392  0812                     	;# 
   393  0813                     	;# 
   394  0814                     	;# 
   395  0815                     	;# 
   396  0816                     	;# 
   397  0817                     	;# 
   398  0818                     	;# 
   399  0819                     	;# 
   400  081A                     	;# 
   401  081B                     	;# 
   402  081C                     	;# 
   403  081D                     	;# 
   404  081E                     	;# 
   405  081F                     	;# 
   406  090C                     	;# 
   407  090D                     	;# 
   408  090E                     	;# 
   409  090F                     	;# 
   410  0910                     	;# 
   411  0911                     	;# 
   412  0912                     	;# 
   413  0913                     	;# 
   414  0914                     	;# 
   415  0915                     	;# 
   416  0916                     	;# 
   417  0917                     	;# 
   418  0D8E                     	;# 
   419  0D8F                     	;# 
   420  0D90                     	;# 
   421  0D91                     	;# 
   422  0D91                     	;# 
   423  0D92                     	;# 
   424  0D93                     	;# 
   425  0D93                     	;# 
   426  0D94                     	;# 
   427  0D95                     	;# 
   428  0D95                     	;# 
   429  0D96                     	;# 
   430  0D97                     	;# 
   431  0D97                     	;# 
   432  0D98                     	;# 
   433  0D99                     	;# 
   434  0D99                     	;# 
   435  0D9A                     	;# 
   436  0D9B                     	;# 
   437  0D9C                     	;# 
   438  0D9C                     	;# 
   439  0D9D                     	;# 
   440  0D9D                     	;# 
   441  0D9E                     	;# 
   442  0D9F                     	;# 
   443  0DA0                     	;# 
   444  0DA1                     	;# 
   445  0DA1                     	;# 
   446  0DA2                     	;# 
   447  0DA3                     	;# 
   448  0DA3                     	;# 
   449  0DA4                     	;# 
   450  0DA5                     	;# 
   451  0DA5                     	;# 
   452  0DA6                     	;# 
   453  0DA7                     	;# 
   454  0DA7                     	;# 
   455  0DA8                     	;# 
   456  0DA9                     	;# 
   457  0DA9                     	;# 
   458  0DAA                     	;# 
   459  0DAB                     	;# 
   460  0DAC                     	;# 
   461  0DAC                     	;# 
   462  0DAD                     	;# 
   463  0DAD                     	;# 
   464  0DAE                     	;# 
   465  0DAF                     	;# 
   466  0DB0                     	;# 
   467  0DB1                     	;# 
   468  0DB1                     	;# 
   469  0DB2                     	;# 
   470  0DB3                     	;# 
   471  0DB3                     	;# 
   472  0DB4                     	;# 
   473  0DB5                     	;# 
   474  0DB5                     	;# 
   475  0DB6                     	;# 
   476  0DB7                     	;# 
   477  0DB7                     	;# 
   478  0DB8                     	;# 
   479  0DB9                     	;# 
   480  0DB9                     	;# 
   481  0DBA                     	;# 
   482  0DBB                     	;# 
   483  0DBC                     	;# 
   484  0DBC                     	;# 
   485  0DBD                     	;# 
   486  0DBD                     	;# 
   487  0DBE                     	;# 
   488  0DBF                     	;# 
   489  0DC0                     	;# 
   490  0E0C                     	;# 
   491  0E0D                     	;# 
   492  0E0E                     	;# 
   493  0E0F                     	;# 
   494  0E10                     	;# 
   495  0E11                     	;# 
   496  0E12                     	;# 
   497  0E13                     	;# 
   498  0E14                     	;# 
   499  0E15                     	;# 
   500  0E15                     	;# 
   501  0E15                     	;# 
   502  0E16                     	;# 
   503  0E16                     	;# 
   504  0E16                     	;# 
   505  0E17                     	;# 
   506  0E17                     	;# 
   507  0E17                     	;# 
   508  0E18                     	;# 
   509  0E18                     	;# 
   510  0E18                     	;# 
   511  0E19                     	;# 
   512  0E1A                     	;# 
   513  0E1B                     	;# 
   514  0E1D                     	;# 
   515  0E1E                     	;# 
   516  0E1F                     	;# 
   517  0E21                     	;# 
   518  0E22                     	;# 
   519  0E23                     	;# 
   520  0E24                     	;# 
   521  0E25                     	;# 
   522  0E26                     	;# 
   523  0E27                     	;# 
   524  0E28                     	;# 
   525  0E29                     	;# 
   526  0E2D                     	;# 
   527  0E2E                     	;# 
   528  0E2F                     	;# 
   529  0E30                     	;# 
   530  0E31                     	;# 
   531  0E32                     	;# 
   532  0E35                     	;# 
   533  0E36                     	;# 
   534  0E37                     	;# 
   535  0E38                     	;# 
   536  0E39                     	;# 
   537  0E3A                     	;# 
   538  0E3B                     	;# 
   539  0E3C                     	;# 
   540  0E3D                     	;# 
   541  0E3E                     	;# 
   542  0E90                     	;# 
   543  0E91                     	;# 
   544  0E92                     	;# 
   545  0E93                     	;# 
   546  0E94                     	;# 
   547  0E95                     	;# 
   548  0E96                     	;# 
   549  0E97                     	;# 
   550  0E98                     	;# 
   551  0E99                     	;# 
   552  0E9A                     	;# 
   553  0E9B                     	;# 
   554  0E9C                     	;# 
   555  0E9D                     	;# 
   556  0E9E                     	;# 
   557  0E9F                     	;# 
   558  0EA0                     	;# 
   559  0EA1                     	;# 
   560  0EA2                     	;# 
   561  0EA3                     	;# 
   562  0EA4                     	;# 
   563  0EA5                     	;# 
   564  0EA6                     	;# 
   565  0EA7                     	;# 
   566  0F0F                     	;# 
   567  0F10                     	;# 
   568  0F11                     	;# 
   569  0F12                     	;# 
   570  0F13                     	;# 
   571  0F14                     	;# 
   572  0F15                     	;# 
   573  0F16                     	;# 
   574  0F17                     	;# 
   575  0F18                     	;# 
   576  0F19                     	;# 
   577  0F1A                     	;# 
   578  0F1B                     	;# 
   579  0F1C                     	;# 
   580  0F1D                     	;# 
   581  0F1E                     	;# 
   582  0F1F                     	;# 
   583  0F20                     	;# 
   584  0F21                     	;# 
   585  0F22                     	;# 
   586  0F23                     	;# 
   587  0F24                     	;# 
   588  0F25                     	;# 
   589  0F26                     	;# 
   590  0F27                     	;# 
   591  0F28                     	;# 
   592  0F29                     	;# 
   593  0F2A                     	;# 
   594  0F2B                     	;# 
   595  0F2C                     	;# 
   596  0F2D                     	;# 
   597  0F2E                     	;# 
   598  0F2F                     	;# 
   599  0F30                     	;# 
   600  0F31                     	;# 
   601  0F32                     	;# 
   602  0F33                     	;# 
   603  0F34                     	;# 
   604  0F35                     	;# 
   605  0F36                     	;# 
   606  0F37                     	;# 
   607  0FE4                     	;# 
   608  0FE5                     	;# 
   609  0FE6                     	;# 
   610  0FE7                     	;# 
   611  0FE8                     	;# 
   612  0FE9                     	;# 
   613  0FEA                     	;# 
   614  0FEB                     	;# 
   615  0FED                     	;# 
   616  0FEE                     	;# 
   617  0FEF                     	;# 
   618  0000                     	;# 
   619  0001                     	;# 
   620  0002                     	;# 
   621  0003                     	;# 
   622  0004                     	;# 
   623  0005                     	;# 
   624  0006                     	;# 
   625  0007                     	;# 
   626  0008                     	;# 
   627  0009                     	;# 
   628  000A                     	;# 
   629  000B                     	;# 
   630  000C                     	;# 
   631  000D                     	;# 
   632  000E                     	;# 
   633  0010                     	;# 
   634  0011                     	;# 
   635  0012                     	;# 
   636  0013                     	;# 
   637  0014                     	;# 
   638  0015                     	;# 
   639  0016                     	;# 
   640  0017                     	;# 
   641  0018                     	;# 
   642  0018                     	;# 
   643  0019                     	;# 
   644  001A                     	;# 
   645  001B                     	;# 
   646  001C                     	;# 
   647  001C                     	;# 
   648  001D                     	;# 
   649  001E                     	;# 
   650  001F                     	;# 
   651  008C                     	;# 
   652  008D                     	;# 
   653  008E                     	;# 
   654  0090                     	;# 
   655  0091                     	;# 
   656  0092                     	;# 
   657  0093                     	;# 
   658  0094                     	;# 
   659  0095                     	;# 
   660  0096                     	;# 
   661  0097                     	;# 
   662  0098                     	;# 
   663  0099                     	;# 
   664  009A                     	;# 
   665  009B                     	;# 
   666  009C                     	;# 
   667  009D                     	;# 
   668  009E                     	;# 
   669  009F                     	;# 
   670  010C                     	;# 
   671  010D                     	;# 
   672  010E                     	;# 
   673  0111                     	;# 
   674  0112                     	;# 
   675  0113                     	;# 
   676  0114                     	;# 
   677  0115                     	;# 
   678  0116                     	;# 
   679  0117                     	;# 
   680  0118                     	;# 
   681  0119                     	;# 
   682  011A                     	;# 
   683  011B                     	;# 
   684  011C                     	;# 
   685  011D                     	;# 
   686  018C                     	;# 
   687  018D                     	;# 
   688  018E                     	;# 
   689  0191                     	;# 
   690  0191                     	;# 
   691  0192                     	;# 
   692  0193                     	;# 
   693  0193                     	;# 
   694  0194                     	;# 
   695  0195                     	;# 
   696  0196                     	;# 
   697  0197                     	;# 
   698  0199                     	;# 
   699  0199                     	;# 
   700  0199                     	;# 
   701  019A                     	;# 
   702  019A                     	;# 
   703  019A                     	;# 
   704  019B                     	;# 
   705  019B                     	;# 
   706  019B                     	;# 
   707  019B                     	;# 
   708  019B                     	;# 
   709  019C                     	;# 
   710  019C                     	;# 
   711  019C                     	;# 
   712  019D                     	;# 
   713  019D                     	;# 
   714  019D                     	;# 
   715  019E                     	;# 
   716  019E                     	;# 
   717  019E                     	;# 
   718  019F                     	;# 
   719  019F                     	;# 
   720  019F                     	;# 
   721  019F                     	;# 
   722  019F                     	;# 
   723  020C                     	;# 
   724  020D                     	;# 
   725  020E                     	;# 
   726  0210                     	;# 
   727  0211                     	;# 
   728  0211                     	;# 
   729  0212                     	;# 
   730  0212                     	;# 
   731  0213                     	;# 
   732  0213                     	;# 
   733  0214                     	;# 
   734  0214                     	;# 
   735  0215                     	;# 
   736  0215                     	;# 
   737  0215                     	;# 
   738  0215                     	;# 
   739  0216                     	;# 
   740  0216                     	;# 
   741  0217                     	;# 
   742  0217                     	;# 
   743  021B                     	;# 
   744  021C                     	;# 
   745  021D                     	;# 
   746  021E                     	;# 
   747  021F                     	;# 
   748  028C                     	;# 
   749  028D                     	;# 
   750  028E                     	;# 
   751  0291                     	;# 
   752  0291                     	;# 
   753  0292                     	;# 
   754  0293                     	;# 
   755  0294                     	;# 
   756  0295                     	;# 
   757  0295                     	;# 
   758  0296                     	;# 
   759  0297                     	;# 
   760  0298                     	;# 
   761  0299                     	;# 
   762  0299                     	;# 
   763  029A                     	;# 
   764  029B                     	;# 
   765  029C                     	;# 
   766  029E                     	;# 
   767  029F                     	;# 
   768  030C                     	;# 
   769  030D                     	;# 
   770  030E                     	;# 
   771  0315                     	;# 
   772  0316                     	;# 
   773  0317                     	;# 
   774  0318                     	;# 
   775  0319                     	;# 
   776  031B                     	;# 
   777  031C                     	;# 
   778  031D                     	;# 
   779  031E                     	;# 
   780  031F                     	;# 
   781  038C                     	;# 
   782  038D                     	;# 
   783  038E                     	;# 
   784  0390                     	;# 
   785  0391                     	;# 
   786  0392                     	;# 
   787  0393                     	;# 
   788  0394                     	;# 
   789  0395                     	;# 
   790  0396                     	;# 
   791  0397                     	;# 
   792  0398                     	;# 
   793  0399                     	;# 
   794  039D                     	;# 
   795  039E                     	;# 
   796  039F                     	;# 
   797  040D                     	;# 
   798  040F                     	;# 
   799  040F                     	;# 
   800  0410                     	;# 
   801  0411                     	;# 
   802  0412                     	;# 
   803  0413                     	;# 
   804  0413                     	;# 
   805  0414                     	;# 
   806  0414                     	;# 
   807  0415                     	;# 
   808  0416                     	;# 
   809  0417                     	;# 
   810  0418                     	;# 
   811  041A                     	;# 
   812  041A                     	;# 
   813  041B                     	;# 
   814  041B                     	;# 
   815  041C                     	;# 
   816  041D                     	;# 
   817  041E                     	;# 
   818  041F                     	;# 
   819  048E                     	;# 
   820  048E                     	;# 
   821  048F                     	;# 
   822  0490                     	;# 
   823  0491                     	;# 
   824  0492                     	;# 
   825  0493                     	;# 
   826  0493                     	;# 
   827  0494                     	;# 
   828  0494                     	;# 
   829  0495                     	;# 
   830  0496                     	;# 
   831  0497                     	;# 
   832  0498                     	;# 
   833  049A                     	;# 
   834  049A                     	;# 
   835  049B                     	;# 
   836  049B                     	;# 
   837  049C                     	;# 
   838  049D                     	;# 
   839  049E                     	;# 
   840  049F                     	;# 
   841  050F                     	;# 
   842  0510                     	;# 
   843  0511                     	;# 
   844  0512                     	;# 
   845  0513                     	;# 
   846  0514                     	;# 
   847  0515                     	;# 
   848  0516                     	;# 
   849  0517                     	;# 
   850  0518                     	;# 
   851  0519                     	;# 
   852  051A                     	;# 
   853  058D                     	;# 
   854  058E                     	;# 
   855  058F                     	;# 
   856  058F                     	;# 
   857  058F                     	;# 
   858  0590                     	;# 
   859  0590                     	;# 
   860  0591                     	;# 
   861  0592                     	;# 
   862  0592                     	;# 
   863  0592                     	;# 
   864  0593                     	;# 
   865  0593                     	;# 
   866  0594                     	;# 
   867  0595                     	;# 
   868  0595                     	;# 
   869  0596                     	;# 
   870  0597                     	;# 
   871  0597                     	;# 
   872  0598                     	;# 
   873  0599                     	;# 
   874  0599                     	;# 
   875  0599                     	;# 
   876  059A                     	;# 
   877  059A                     	;# 
   878  059E                     	;# 
   879  059F                     	;# 
   880  059F                     	;# 
   881  0614                     	;# 
   882  0614                     	;# 
   883  0615                     	;# 
   884  0616                     	;# 
   885  0617                     	;# 
   886  0617                     	;# 
   887  0618                     	;# 
   888  0619                     	;# 
   889  061A                     	;# 
   890  061A                     	;# 
   891  061B                     	;# 
   892  061C                     	;# 
   893  068D                     	;# 
   894  068E                     	;# 
   895  068F                     	;# 
   896  0690                     	;# 
   897  0691                     	;# 
   898  0692                     	;# 
   899  0693                     	;# 
   900  0694                     	;# 
   901  0695                     	;# 
   902  0696                     	;# 
   903  0697                     	;# 
   904  0698                     	;# 
   905  0699                     	;# 
   906  069A                     	;# 
   907  069B                     	;# 
   908  069C                     	;# 
   909  069D                     	;# 
   910  069E                     	;# 
   911  069F                     	;# 
   912  070D                     	;# 
   913  070E                     	;# 
   914  070F                     	;# 
   915  0710                     	;# 
   916  0711                     	;# 
   917  0712                     	;# 
   918  0713                     	;# 
   919  0714                     	;# 
   920  0715                     	;# 
   921  0716                     	;# 
   922  0717                     	;# 
   923  0718                     	;# 
   924  0719                     	;# 
   925  071A                     	;# 
   926  071B                     	;# 
   927  071C                     	;# 
   928  071D                     	;# 
   929  071E                     	;# 
   930  071F                     	;# 
   931  078E                     	;# 
   932  078F                     	;# 
   933  0790                     	;# 
   934  0791                     	;# 
   935  0792                     	;# 
   936  0793                     	;# 
   937  0794                     	;# 
   938  0795                     	;# 
   939  0796                     	;# 
   940  0797                     	;# 
   941  0798                     	;# 
   942  0799                     	;# 
   943  079A                     	;# 
   944  079B                     	;# 
   945  079C                     	;# 
   946  079D                     	;# 
   947  079E                     	;# 
   948  079F                     	;# 
   949  080D                     	;# 
   950  080E                     	;# 
   951  080F                     	;# 
   952  0810                     	;# 
   953  0811                     	;# 
   954  0812                     	;# 
   955  0813                     	;# 
   956  0814                     	;# 
   957  0815                     	;# 
   958  0816                     	;# 
   959  0817                     	;# 
   960  0818                     	;# 
   961  0819                     	;# 
   962  081A                     	;# 
   963  081B                     	;# 
   964  081C                     	;# 
   965  081D                     	;# 
   966  081E                     	;# 
   967  081F                     	;# 
   968  090C                     	;# 
   969  090D                     	;# 
   970  090E                     	;# 
   971  090F                     	;# 
   972  0910                     	;# 
   973  0911                     	;# 
   974  0912                     	;# 
   975  0913                     	;# 
   976  0914                     	;# 
   977  0915                     	;# 
   978  0916                     	;# 
   979  0917                     	;# 
   980  0D8E                     	;# 
   981  0D8F                     	;# 
   982  0D90                     	;# 
   983  0D91                     	;# 
   984  0D91                     	;# 
   985  0D92                     	;# 
   986  0D93                     	;# 
   987  0D93                     	;# 
   988  0D94                     	;# 
   989  0D95                     	;# 
   990  0D95                     	;# 
   991  0D96                     	;# 
   992  0D97                     	;# 
   993  0D97                     	;# 
   994  0D98                     	;# 
   995  0D99                     	;# 
   996  0D99                     	;# 
   997  0D9A                     	;# 
   998  0D9B                     	;# 
   999  0D9C                     	;# 
  1000  0D9C                     	;# 
  1001  0D9D                     	;# 
  1002  0D9D                     	;# 
  1003  0D9E                     	;# 
  1004  0D9F                     	;# 
  1005  0DA0                     	;# 
  1006  0DA1                     	;# 
  1007  0DA1                     	;# 
  1008  0DA2                     	;# 
  1009  0DA3                     	;# 
  1010  0DA3                     	;# 
  1011  0DA4                     	;# 
  1012  0DA5                     	;# 
  1013  0DA5                     	;# 
  1014  0DA6                     	;# 
  1015  0DA7                     	;# 
  1016  0DA7                     	;# 
  1017  0DA8                     	;# 
  1018  0DA9                     	;# 
  1019  0DA9                     	;# 
  1020  0DAA                     	;# 
  1021  0DAB                     	;# 
  1022  0DAC                     	;# 
  1023  0DAC                     	;# 
  1024  0DAD                     	;# 
  1025  0DAD                     	;# 
  1026  0DAE                     	;# 
  1027  0DAF                     	;# 
  1028  0DB0                     	;# 
  1029  0DB1                     	;# 
  1030  0DB1                     	;# 
  1031  0DB2                     	;# 
  1032  0DB3                     	;# 
  1033  0DB3                     	;# 
  1034  0DB4                     	;# 
  1035  0DB5                     	;# 
  1036  0DB5                     	;# 
  1037  0DB6                     	;# 
  1038  0DB7                     	;# 
  1039  0DB7                     	;# 
  1040  0DB8                     	;# 
  1041  0DB9                     	;# 
  1042  0DB9                     	;# 
  1043  0DBA                     	;# 
  1044  0DBB                     	;# 
  1045  0DBC                     	;# 
  1046  0DBC                     	;# 
  1047  0DBD                     	;# 
  1048  0DBD                     	;# 
  1049  0DBE                     	;# 
  1050  0DBF                     	;# 
  1051  0DC0                     	;# 
  1052  0E0C                     	;# 
  1053  0E0D                     	;# 
  1054  0E0E                     	;# 
  1055  0E0F                     	;# 
  1056  0E10                     	;# 
  1057  0E11                     	;# 
  1058  0E12                     	;# 
  1059  0E13                     	;# 
  1060  0E14                     	;# 
  1061  0E15                     	;# 
  1062  0E15                     	;# 
  1063  0E15                     	;# 
  1064  0E16                     	;# 
  1065  0E16                     	;# 
  1066  0E16                     	;# 
  1067  0E17                     	;# 
  1068  0E17                     	;# 
  1069  0E17                     	;# 
  1070  0E18                     	;# 
  1071  0E18                     	;# 
  1072  0E18                     	;# 
  1073  0E19                     	;# 
  1074  0E1A                     	;# 
  1075  0E1B                     	;# 
  1076  0E1D                     	;# 
  1077  0E1E                     	;# 
  1078  0E1F                     	;# 
  1079  0E21                     	;# 
  1080  0E22                     	;# 
  1081  0E23                     	;# 
  1082  0E24                     	;# 
  1083  0E25                     	;# 
  1084  0E26                     	;# 
  1085  0E27                     	;# 
  1086  0E28                     	;# 
  1087  0E29                     	;# 
  1088  0E2D                     	;# 
  1089  0E2E                     	;# 
  1090  0E2F                     	;# 
  1091  0E30                     	;# 
  1092  0E31                     	;# 
  1093  0E32                     	;# 
  1094  0E35                     	;# 
  1095  0E36                     	;# 
  1096  0E37                     	;# 
  1097  0E38                     	;# 
  1098  0E39                     	;# 
  1099  0E3A                     	;# 
  1100  0E3B                     	;# 
  1101  0E3C                     	;# 
  1102  0E3D                     	;# 
  1103  0E3E                     	;# 
  1104  0E90                     	;# 
  1105  0E91                     	;# 
  1106  0E92                     	;# 
  1107  0E93                     	;# 
  1108  0E94                     	;# 
  1109  0E95                     	;# 
  1110  0E96                     	;# 
  1111  0E97                     	;# 
  1112  0E98                     	;# 
  1113  0E99                     	;# 
  1114  0E9A                     	;# 
  1115  0E9B                     	;# 
  1116  0E9C                     	;# 
  1117  0E9D                     	;# 
  1118  0E9E                     	;# 
  1119  0E9F                     	;# 
  1120  0EA0                     	;# 
  1121  0EA1                     	;# 
  1122  0EA2                     	;# 
  1123  0EA3                     	;# 
  1124  0EA4                     	;# 
  1125  0EA5                     	;# 
  1126  0EA6                     	;# 
  1127  0EA7                     	;# 
  1128  0F0F                     	;# 
  1129  0F10                     	;# 
  1130  0F11                     	;# 
  1131  0F12                     	;# 
  1132  0F13                     	;# 
  1133  0F14                     	;# 
  1134  0F15                     	;# 
  1135  0F16                     	;# 
  1136  0F17                     	;# 
  1137  0F18                     	;# 
  1138  0F19                     	;# 
  1139  0F1A                     	;# 
  1140  0F1B                     	;# 
  1141  0F1C                     	;# 
  1142  0F1D                     	;# 
  1143  0F1E                     	;# 
  1144  0F1F                     	;# 
  1145  0F20                     	;# 
  1146  0F21                     	;# 
  1147  0F22                     	;# 
  1148  0F23                     	;# 
  1149  0F24                     	;# 
  1150  0F25                     	;# 
  1151  0F26                     	;# 
  1152  0F27                     	;# 
  1153  0F28                     	;# 
  1154  0F29                     	;# 
  1155  0F2A                     	;# 
  1156  0F2B                     	;# 
  1157  0F2C                     	;# 
  1158  0F2D                     	;# 
  1159  0F2E                     	;# 
  1160  0F2F                     	;# 
  1161  0F30                     	;# 
  1162  0F31                     	;# 
  1163  0F32                     	;# 
  1164  0F33                     	;# 
  1165  0F34                     	;# 
  1166  0F35                     	;# 
  1167  0F36                     	;# 
  1168  0F37                     	;# 
  1169  0FE4                     	;# 
  1170  0FE5                     	;# 
  1171  0FE6                     	;# 
  1172  0FE7                     	;# 
  1173  0FE8                     	;# 
  1174  0FE9                     	;# 
  1175  0FEA                     	;# 
  1176  0FEB                     	;# 
  1177  0FED                     	;# 
  1178  0FEE                     	;# 
  1179  0FEF                     	;# 
  1180  0000                     	;# 
  1181  0001                     	;# 
  1182  0002                     	;# 
  1183  0003                     	;# 
  1184  0004                     	;# 
  1185  0005                     	;# 
  1186  0006                     	;# 
  1187  0007                     	;# 
  1188  0008                     	;# 
  1189  0009                     	;# 
  1190  000A                     	;# 
  1191  000B                     	;# 
  1192  000C                     	;# 
  1193  000D                     	;# 
  1194  000E                     	;# 
  1195  0010                     	;# 
  1196  0011                     	;# 
  1197  0012                     	;# 
  1198  0013                     	;# 
  1199  0014                     	;# 
  1200  0015                     	;# 
  1201  0016                     	;# 
  1202  0017                     	;# 
  1203  0018                     	;# 
  1204  0018                     	;# 
  1205  0019                     	;# 
  1206  001A                     	;# 
  1207  001B                     	;# 
  1208  001C                     	;# 
  1209  001C                     	;# 
  1210  001D                     	;# 
  1211  001E                     	;# 
  1212  001F                     	;# 
  1213  008C                     	;# 
  1214  008D                     	;# 
  1215  008E                     	;# 
  1216  0090                     	;# 
  1217  0091                     	;# 
  1218  0092                     	;# 
  1219  0093                     	;# 
  1220  0094                     	;# 
  1221  0095                     	;# 
  1222  0096                     	;# 
  1223  0097                     	;# 
  1224  0098                     	;# 
  1225  0099                     	;# 
  1226  009A                     	;# 
  1227  009B                     	;# 
  1228  009C                     	;# 
  1229  009D                     	;# 
  1230  009E                     	;# 
  1231  009F                     	;# 
  1232  010C                     	;# 
  1233  010D                     	;# 
  1234  010E                     	;# 
  1235  0111                     	;# 
  1236  0112                     	;# 
  1237  0113                     	;# 
  1238  0114                     	;# 
  1239  0115                     	;# 
  1240  0116                     	;# 
  1241  0117                     	;# 
  1242  0118                     	;# 
  1243  0119                     	;# 
  1244  011A                     	;# 
  1245  011B                     	;# 
  1246  011C                     	;# 
  1247  011D                     	;# 
  1248  018C                     	;# 
  1249  018D                     	;# 
  1250  018E                     	;# 
  1251  0191                     	;# 
  1252  0191                     	;# 
  1253  0192                     	;# 
  1254  0193                     	;# 
  1255  0193                     	;# 
  1256  0194                     	;# 
  1257  0195                     	;# 
  1258  0196                     	;# 
  1259  0197                     	;# 
  1260  0199                     	;# 
  1261  0199                     	;# 
  1262  0199                     	;# 
  1263  019A                     	;# 
  1264  019A                     	;# 
  1265  019A                     	;# 
  1266  019B                     	;# 
  1267  019B                     	;# 
  1268  019B                     	;# 
  1269  019B                     	;# 
  1270  019B                     	;# 
  1271  019C                     	;# 
  1272  019C                     	;# 
  1273  019C                     	;# 
  1274  019D                     	;# 
  1275  019D                     	;# 
  1276  019D                     	;# 
  1277  019E                     	;# 
  1278  019E                     	;# 
  1279  019E                     	;# 
  1280  019F                     	;# 
  1281  019F                     	;# 
  1282  019F                     	;# 
  1283  019F                     	;# 
  1284  019F                     	;# 
  1285  020C                     	;# 
  1286  020D                     	;# 
  1287  020E                     	;# 
  1288  0210                     	;# 
  1289  0211                     	;# 
  1290  0211                     	;# 
  1291  0212                     	;# 
  1292  0212                     	;# 
  1293  0213                     	;# 
  1294  0213                     	;# 
  1295  0214                     	;# 
  1296  0214                     	;# 
  1297  0215                     	;# 
  1298  0215                     	;# 
  1299  0215                     	;# 
  1300  0215                     	;# 
  1301  0216                     	;# 
  1302  0216                     	;# 
  1303  0217                     	;# 
  1304  0217                     	;# 
  1305  021B                     	;# 
  1306  021C                     	;# 
  1307  021D                     	;# 
  1308  021E                     	;# 
  1309  021F                     	;# 
  1310  028C                     	;# 
  1311  028D                     	;# 
  1312  028E                     	;# 
  1313  0291                     	;# 
  1314  0291                     	;# 
  1315  0292                     	;# 
  1316  0293                     	;# 
  1317  0294                     	;# 
  1318  0295                     	;# 
  1319  0295                     	;# 
  1320  0296                     	;# 
  1321  0297                     	;# 
  1322  0298                     	;# 
  1323  0299                     	;# 
  1324  0299                     	;# 
  1325  029A                     	;# 
  1326  029B                     	;# 
  1327  029C                     	;# 
  1328  029E                     	;# 
  1329  029F                     	;# 
  1330  030C                     	;# 
  1331  030D                     	;# 
  1332  030E                     	;# 
  1333  0315                     	;# 
  1334  0316                     	;# 
  1335  0317                     	;# 
  1336  0318                     	;# 
  1337  0319                     	;# 
  1338  031B                     	;# 
  1339  031C                     	;# 
  1340  031D                     	;# 
  1341  031E                     	;# 
  1342  031F                     	;# 
  1343  038C                     	;# 
  1344  038D                     	;# 
  1345  038E                     	;# 
  1346  0390                     	;# 
  1347  0391                     	;# 
  1348  0392                     	;# 
  1349  0393                     	;# 
  1350  0394                     	;# 
  1351  0395                     	;# 
  1352  0396                     	;# 
  1353  0397                     	;# 
  1354  0398                     	;# 
  1355  0399                     	;# 
  1356  039D                     	;# 
  1357  039E                     	;# 
  1358  039F                     	;# 
  1359  040D                     	;# 
  1360  040F                     	;# 
  1361  040F                     	;# 
  1362  0410                     	;# 
  1363  0411                     	;# 
  1364  0412                     	;# 
  1365  0413                     	;# 
  1366  0413                     	;# 
  1367  0414                     	;# 
  1368  0414                     	;# 
  1369  0415                     	;# 
  1370  0416                     	;# 
  1371  0417                     	;# 
  1372  0418                     	;# 
  1373  041A                     	;# 
  1374  041A                     	;# 
  1375  041B                     	;# 
  1376  041B                     	;# 
  1377  041C                     	;# 
  1378  041D                     	;# 
  1379  041E                     	;# 
  1380  041F                     	;# 
  1381  048E                     	;# 
  1382  048E                     	;# 
  1383  048F                     	;# 
  1384  0490                     	;# 
  1385  0491                     	;# 
  1386  0492                     	;# 
  1387  0493                     	;# 
  1388  0493                     	;# 
  1389  0494                     	;# 
  1390  0494                     	;# 
  1391  0495                     	;# 
  1392  0496                     	;# 
  1393  0497                     	;# 
  1394  0498                     	;# 
  1395  049A                     	;# 
  1396  049A                     	;# 
  1397  049B                     	;# 
  1398  049B                     	;# 
  1399  049C                     	;# 
  1400  049D                     	;# 
  1401  049E                     	;# 
  1402  049F                     	;# 
  1403  050F                     	;# 
  1404  0510                     	;# 
  1405  0511                     	;# 
  1406  0512                     	;# 
  1407  0513                     	;# 
  1408  0514                     	;# 
  1409  0515                     	;# 
  1410  0516                     	;# 
  1411  0517                     	;# 
  1412  0518                     	;# 
  1413  0519                     	;# 
  1414  051A                     	;# 
  1415  058D                     	;# 
  1416  058E                     	;# 
  1417  058F                     	;# 
  1418  058F                     	;# 
  1419  058F                     	;# 
  1420  0590                     	;# 
  1421  0590                     	;# 
  1422  0591                     	;# 
  1423  0592                     	;# 
  1424  0592                     	;# 
  1425  0592                     	;# 
  1426  0593                     	;# 
  1427  0593                     	;# 
  1428  0594                     	;# 
  1429  0595                     	;# 
  1430  0595                     	;# 
  1431  0596                     	;# 
  1432  0597                     	;# 
  1433  0597                     	;# 
  1434  0598                     	;# 
  1435  0599                     	;# 
  1436  0599                     	;# 
  1437  0599                     	;# 
  1438  059A                     	;# 
  1439  059A                     	;# 
  1440  059E                     	;# 
  1441  059F                     	;# 
  1442  059F                     	;# 
  1443  0614                     	;# 
  1444  0614                     	;# 
  1445  0615                     	;# 
  1446  0616                     	;# 
  1447  0617                     	;# 
  1448  0617                     	;# 
  1449  0618                     	;# 
  1450  0619                     	;# 
  1451  061A                     	;# 
  1452  061A                     	;# 
  1453  061B                     	;# 
  1454  061C                     	;# 
  1455  068D                     	;# 
  1456  068E                     	;# 
  1457  068F                     	;# 
  1458  0690                     	;# 
  1459  0691                     	;# 
  1460  0692                     	;# 
  1461  0693                     	;# 
  1462  0694                     	;# 
  1463  0695                     	;# 
  1464  0696                     	;# 
  1465  0697                     	;# 
  1466  0698                     	;# 
  1467  0699                     	;# 
  1468  069A                     	;# 
  1469  069B                     	;# 
  1470  069C                     	;# 
  1471  069D                     	;# 
  1472  069E                     	;# 
  1473  069F                     	;# 
  1474  070D                     	;# 
  1475  070E                     	;# 
  1476  070F                     	;# 
  1477  0710                     	;# 
  1478  0711                     	;# 
  1479  0712                     	;# 
  1480  0713                     	;# 
  1481  0714                     	;# 
  1482  0715                     	;# 
  1483  0716                     	;# 
  1484  0717                     	;# 
  1485  0718                     	;# 
  1486  0719                     	;# 
  1487  071A                     	;# 
  1488  071B                     	;# 
  1489  071C                     	;# 
  1490  071D                     	;# 
  1491  071E                     	;# 
  1492  071F                     	;# 
  1493  078E                     	;# 
  1494  078F                     	;# 
  1495  0790                     	;# 
  1496  0791                     	;# 
  1497  0792                     	;# 
  1498  0793                     	;# 
  1499  0794                     	;# 
  1500  0795                     	;# 
  1501  0796                     	;# 
  1502  0797                     	;# 
  1503  0798                     	;# 
  1504  0799                     	;# 
  1505  079A                     	;# 
  1506  079B                     	;# 
  1507  079C                     	;# 
  1508  079D                     	;# 
  1509  079E                     	;# 
  1510  079F                     	;# 
  1511  080D                     	;# 
  1512  080E                     	;# 
  1513  080F                     	;# 
  1514  0810                     	;# 
  1515  0811                     	;# 
  1516  0812                     	;# 
  1517  0813                     	;# 
  1518  0814                     	;# 
  1519  0815                     	;# 
  1520  0816                     	;# 
  1521  0817                     	;# 
  1522  0818                     	;# 
  1523  0819                     	;# 
  1524  081A                     	;# 
  1525  081B                     	;# 
  1526  081C                     	;# 
  1527  081D                     	;# 
  1528  081E                     	;# 
  1529  081F                     	;# 
  1530  090C                     	;# 
  1531  090D                     	;# 
  1532  090E                     	;# 
  1533  090F                     	;# 
  1534  0910                     	;# 
  1535  0911                     	;# 
  1536  0912                     	;# 
  1537  0913                     	;# 
  1538  0914                     	;# 
  1539  0915                     	;# 
  1540  0916                     	;# 
  1541  0917                     	;# 
  1542  0D8E                     	;# 
  1543  0D8F                     	;# 
  1544  0D90                     	;# 
  1545  0D91                     	;# 
  1546  0D91                     	;# 
  1547  0D92                     	;# 
  1548  0D93                     	;# 
  1549  0D93                     	;# 
  1550  0D94                     	;# 
  1551  0D95                     	;# 
  1552  0D95                     	;# 
  1553  0D96                     	;# 
  1554  0D97                     	;# 
  1555  0D97                     	;# 
  1556  0D98                     	;# 
  1557  0D99                     	;# 
  1558  0D99                     	;# 
  1559  0D9A                     	;# 
  1560  0D9B                     	;# 
  1561  0D9C                     	;# 
  1562  0D9C                     	;# 
  1563  0D9D                     	;# 
  1564  0D9D                     	;# 
  1565  0D9E                     	;# 
  1566  0D9F                     	;# 
  1567  0DA0                     	;# 
  1568  0DA1                     	;# 
  1569  0DA1                     	;# 
  1570  0DA2                     	;# 
  1571  0DA3                     	;# 
  1572  0DA3                     	;# 
  1573  0DA4                     	;# 
  1574  0DA5                     	;# 
  1575  0DA5                     	;# 
  1576  0DA6                     	;# 
  1577  0DA7                     	;# 
  1578  0DA7                     	;# 
  1579  0DA8                     	;# 
  1580  0DA9                     	;# 
  1581  0DA9                     	;# 
  1582  0DAA                     	;# 
  1583  0DAB                     	;# 
  1584  0DAC                     	;# 
  1585  0DAC                     	;# 
  1586  0DAD                     	;# 
  1587  0DAD                     	;# 
  1588  0DAE                     	;# 
  1589  0DAF                     	;# 
  1590  0DB0                     	;# 
  1591  0DB1                     	;# 
  1592  0DB1                     	;# 
  1593  0DB2                     	;# 
  1594  0DB3                     	;# 
  1595  0DB3                     	;# 
  1596  0DB4                     	;# 
  1597  0DB5                     	;# 
  1598  0DB5                     	;# 
  1599  0DB6                     	;# 
  1600  0DB7                     	;# 
  1601  0DB7                     	;# 
  1602  0DB8                     	;# 
  1603  0DB9                     	;# 
  1604  0DB9                     	;# 
  1605  0DBA                     	;# 
  1606  0DBB                     	;# 
  1607  0DBC                     	;# 
  1608  0DBC                     	;# 
  1609  0DBD                     	;# 
  1610  0DBD                     	;# 
  1611  0DBE                     	;# 
  1612  0DBF                     	;# 
  1613  0DC0                     	;# 
  1614  0E0C                     	;# 
  1615  0E0D                     	;# 
  1616  0E0E                     	;# 
  1617  0E0F                     	;# 
  1618  0E10                     	;# 
  1619  0E11                     	;# 
  1620  0E12                     	;# 
  1621  0E13                     	;# 
  1622  0E14                     	;# 
  1623  0E15                     	;# 
  1624  0E15                     	;# 
  1625  0E15                     	;# 
  1626  0E16                     	;# 
  1627  0E16                     	;# 
  1628  0E16                     	;# 
  1629  0E17                     	;# 
  1630  0E17                     	;# 
  1631  0E17                     	;# 
  1632  0E18                     	;# 
  1633  0E18                     	;# 
  1634  0E18                     	;# 
  1635  0E19                     	;# 
  1636  0E1A                     	;# 
  1637  0E1B                     	;# 
  1638  0E1D                     	;# 
  1639  0E1E                     	;# 
  1640  0E1F                     	;# 
  1641  0E21                     	;# 
  1642  0E22                     	;# 
  1643  0E23                     	;# 
  1644  0E24                     	;# 
  1645  0E25                     	;# 
  1646  0E26                     	;# 
  1647  0E27                     	;# 
  1648  0E28                     	;# 
  1649  0E29                     	;# 
  1650  0E2D                     	;# 
  1651  0E2E                     	;# 
  1652  0E2F                     	;# 
  1653  0E30                     	;# 
  1654  0E31                     	;# 
  1655  0E32                     	;# 
  1656  0E35                     	;# 
  1657  0E36                     	;# 
  1658  0E37                     	;# 
  1659  0E38                     	;# 
  1660  0E39                     	;# 
  1661  0E3A                     	;# 
  1662  0E3B                     	;# 
  1663  0E3C                     	;# 
  1664  0E3D                     	;# 
  1665  0E3E                     	;# 
  1666  0E90                     	;# 
  1667  0E91                     	;# 
  1668  0E92                     	;# 
  1669  0E93                     	;# 
  1670  0E94                     	;# 
  1671  0E95                     	;# 
  1672  0E96                     	;# 
  1673  0E97                     	;# 
  1674  0E98                     	;# 
  1675  0E99                     	;# 
  1676  0E9A                     	;# 
  1677  0E9B                     	;# 
  1678  0E9C                     	;# 
  1679  0E9D                     	;# 
  1680  0E9E                     	;# 
  1681  0E9F                     	;# 
  1682  0EA0                     	;# 
  1683  0EA1                     	;# 
  1684  0EA2                     	;# 
  1685  0EA3                     	;# 
  1686  0EA4                     	;# 
  1687  0EA5                     	;# 
  1688  0EA6                     	;# 
  1689  0EA7                     	;# 
  1690  0F0F                     	;# 
  1691  0F10                     	;# 
  1692  0F11                     	;# 
  1693  0F12                     	;# 
  1694  0F13                     	;# 
  1695  0F14                     	;# 
  1696  0F15                     	;# 
  1697  0F16                     	;# 
  1698  0F17                     	;# 
  1699  0F18                     	;# 
  1700  0F19                     	;# 
  1701  0F1A                     	;# 
  1702  0F1B                     	;# 
  1703  0F1C                     	;# 
  1704  0F1D                     	;# 
  1705  0F1E                     	;# 
  1706  0F1F                     	;# 
  1707  0F20                     	;# 
  1708  0F21                     	;# 
  1709  0F22                     	;# 
  1710  0F23                     	;# 
  1711  0F24                     	;# 
  1712  0F25                     	;# 
  1713  0F26                     	;# 
  1714  0F27                     	;# 
  1715  0F28                     	;# 
  1716  0F29                     	;# 
  1717  0F2A                     	;# 
  1718  0F2B                     	;# 
  1719  0F2C                     	;# 
  1720  0F2D                     	;# 
  1721  0F2E                     	;# 
  1722  0F2F                     	;# 
  1723  0F30                     	;# 
  1724  0F31                     	;# 
  1725  0F32                     	;# 
  1726  0F33                     	;# 
  1727  0F34                     	;# 
  1728  0F35                     	;# 
  1729  0F36                     	;# 
  1730  0F37                     	;# 
  1731  0FE4                     	;# 
  1732  0FE5                     	;# 
  1733  0FE6                     	;# 
  1734  0FE7                     	;# 
  1735  0FE8                     	;# 
  1736  0FE9                     	;# 
  1737  0FEA                     	;# 
  1738  0FEB                     	;# 
  1739  0FED                     	;# 
  1740  0FEE                     	;# 
  1741  0FEF                     	;# 
  1742  0000                     	;# 
  1743  0001                     	;# 
  1744  0002                     	;# 
  1745  0003                     	;# 
  1746  0004                     	;# 
  1747  0005                     	;# 
  1748  0006                     	;# 
  1749  0007                     	;# 
  1750  0008                     	;# 
  1751  0009                     	;# 
  1752  000A                     	;# 
  1753  000B                     	;# 
  1754  000C                     	;# 
  1755  000D                     	;# 
  1756  000E                     	;# 
  1757  0010                     	;# 
  1758  0011                     	;# 
  1759  0012                     	;# 
  1760  0013                     	;# 
  1761  0014                     	;# 
  1762  0015                     	;# 
  1763  0016                     	;# 
  1764  0017                     	;# 
  1765  0018                     	;# 
  1766  0018                     	;# 
  1767  0019                     	;# 
  1768  001A                     	;# 
  1769  001B                     	;# 
  1770  001C                     	;# 
  1771  001C                     	;# 
  1772  001D                     	;# 
  1773  001E                     	;# 
  1774  001F                     	;# 
  1775  008C                     	;# 
  1776  008D                     	;# 
  1777  008E                     	;# 
  1778  0090                     	;# 
  1779  0091                     	;# 
  1780  0092                     	;# 
  1781  0093                     	;# 
  1782  0094                     	;# 
  1783  0095                     	;# 
  1784  0096                     	;# 
  1785  0097                     	;# 
  1786  0098                     	;# 
  1787  0099                     	;# 
  1788  009A                     	;# 
  1789  009B                     	;# 
  1790  009C                     	;# 
  1791  009D                     	;# 
  1792  009E                     	;# 
  1793  009F                     	;# 
  1794  010C                     	;# 
  1795  010D                     	;# 
  1796  010E                     	;# 
  1797  0111                     	;# 
  1798  0112                     	;# 
  1799  0113                     	;# 
  1800  0114                     	;# 
  1801  0115                     	;# 
  1802  0116                     	;# 
  1803  0117                     	;# 
  1804  0118                     	;# 
  1805  0119                     	;# 
  1806  011A                     	;# 
  1807  011B                     	;# 
  1808  011C                     	;# 
  1809  011D                     	;# 
  1810  018C                     	;# 
  1811  018D                     	;# 
  1812  018E                     	;# 
  1813  0191                     	;# 
  1814  0191                     	;# 
  1815  0192                     	;# 
  1816  0193                     	;# 
  1817  0193                     	;# 
  1818  0194                     	;# 
  1819  0195                     	;# 
  1820  0196                     	;# 
  1821  0197                     	;# 
  1822  0199                     	;# 
  1823  0199                     	;# 
  1824  0199                     	;# 
  1825  019A                     	;# 
  1826  019A                     	;# 
  1827  019A                     	;# 
  1828  019B                     	;# 
  1829  019B                     	;# 
  1830  019B                     	;# 
  1831  019B                     	;# 
  1832  019B                     	;# 
  1833  019C                     	;# 
  1834  019C                     	;# 
  1835  019C                     	;# 
  1836  019D                     	;# 
  1837  019D                     	;# 
  1838  019D                     	;# 
  1839  019E                     	;# 
  1840  019E                     	;# 
  1841  019E                     	;# 
  1842  019F                     	;# 
  1843  019F                     	;# 
  1844  019F                     	;# 
  1845  019F                     	;# 
  1846  019F                     	;# 
  1847  020C                     	;# 
  1848  020D                     	;# 
  1849  020E                     	;# 
  1850  0210                     	;# 
  1851  0211                     	;# 
  1852  0211                     	;# 
  1853  0212                     	;# 
  1854  0212                     	;# 
  1855  0213                     	;# 
  1856  0213                     	;# 
  1857  0214                     	;# 
  1858  0214                     	;# 
  1859  0215                     	;# 
  1860  0215                     	;# 
  1861  0215                     	;# 
  1862  0215                     	;# 
  1863  0216                     	;# 
  1864  0216                     	;# 
  1865  0217                     	;# 
  1866  0217                     	;# 
  1867  021B                     	;# 
  1868  021C                     	;# 
  1869  021D                     	;# 
  1870  021E                     	;# 
  1871  021F                     	;# 
  1872  028C                     	;# 
  1873  028D                     	;# 
  1874  028E                     	;# 
  1875  0291                     	;# 
  1876  0291                     	;# 
  1877  0292                     	;# 
  1878  0293                     	;# 
  1879  0294                     	;# 
  1880  0295                     	;# 
  1881  0295                     	;# 
  1882  0296                     	;# 
  1883  0297                     	;# 
  1884  0298                     	;# 
  1885  0299                     	;# 
  1886  0299                     	;# 
  1887  029A                     	;# 
  1888  029B                     	;# 
  1889  029C                     	;# 
  1890  029E                     	;# 
  1891  029F                     	;# 
  1892  030C                     	;# 
  1893  030D                     	;# 
  1894  030E                     	;# 
  1895  0315                     	;# 
  1896  0316                     	;# 
  1897  0317                     	;# 
  1898  0318                     	;# 
  1899  0319                     	;# 
  1900  031B                     	;# 
  1901  031C                     	;# 
  1902  031D                     	;# 
  1903  031E                     	;# 
  1904  031F                     	;# 
  1905  038C                     	;# 
  1906  038D                     	;# 
  1907  038E                     	;# 
  1908  0390                     	;# 
  1909  0391                     	;# 
  1910  0392                     	;# 
  1911  0393                     	;# 
  1912  0394                     	;# 
  1913  0395                     	;# 
  1914  0396                     	;# 
  1915  0397                     	;# 
  1916  0398                     	;# 
  1917  0399                     	;# 
  1918  039D                     	;# 
  1919  039E                     	;# 
  1920  039F                     	;# 
  1921  040D                     	;# 
  1922  040F                     	;# 
  1923  040F                     	;# 
  1924  0410                     	;# 
  1925  0411                     	;# 
  1926  0412                     	;# 
  1927  0413                     	;# 
  1928  0413                     	;# 
  1929  0414                     	;# 
  1930  0414                     	;# 
  1931  0415                     	;# 
  1932  0416                     	;# 
  1933  0417                     	;# 
  1934  0418                     	;# 
  1935  041A                     	;# 
  1936  041A                     	;# 
  1937  041B                     	;# 
  1938  041B                     	;# 
  1939  041C                     	;# 
  1940  041D                     	;# 
  1941  041E                     	;# 
  1942  041F                     	;# 
  1943  048E                     	;# 
  1944  048E                     	;# 
  1945  048F                     	;# 
  1946  0490                     	;# 
  1947  0491                     	;# 
  1948  0492                     	;# 
  1949  0493                     	;# 
  1950  0493                     	;# 
  1951  0494                     	;# 
  1952  0494                     	;# 
  1953  0495                     	;# 
  1954  0496                     	;# 
  1955  0497                     	;# 
  1956  0498                     	;# 
  1957  049A                     	;# 
  1958  049A                     	;# 
  1959  049B                     	;# 
  1960  049B                     	;# 
  1961  049C                     	;# 
  1962  049D                     	;# 
  1963  049E                     	;# 
  1964  049F                     	;# 
  1965  050F                     	;# 
  1966  0510                     	;# 
  1967  0511                     	;# 
  1968  0512                     	;# 
  1969  0513                     	;# 
  1970  0514                     	;# 
  1971  0515                     	;# 
  1972  0516                     	;# 
  1973  0517                     	;# 
  1974  0518                     	;# 
  1975  0519                     	;# 
  1976  051A                     	;# 
  1977  058D                     	;# 
  1978  058E                     	;# 
  1979  058F                     	;# 
  1980  058F                     	;# 
  1981  058F                     	;# 
  1982  0590                     	;# 
  1983  0590                     	;# 
  1984  0591                     	;# 
  1985  0592                     	;# 
  1986  0592                     	;# 
  1987  0592                     	;# 
  1988  0593                     	;# 
  1989  0593                     	;# 
  1990  0594                     	;# 
  1991  0595                     	;# 
  1992  0595                     	;# 
  1993  0596                     	;# 
  1994  0597                     	;# 
  1995  0597                     	;# 
  1996  0598                     	;# 
  1997  0599                     	;# 
  1998  0599                     	;# 
  1999  0599                     	;# 
  2000  059A                     	;# 
  2001  059A                     	;# 
  2002  059E                     	;# 
  2003  059F                     	;# 
  2004  059F                     	;# 
  2005  0614                     	;# 
  2006  0614                     	;# 
  2007  0615                     	;# 
  2008  0616                     	;# 
  2009  0617                     	;# 
  2010  0617                     	;# 
  2011  0618                     	;# 
  2012  0619                     	;# 
  2013  061A                     	;# 
  2014  061A                     	;# 
  2015  061B                     	;# 
  2016  061C                     	;# 
  2017  068D                     	;# 
  2018  068E                     	;# 
  2019  068F                     	;# 
  2020  0690                     	;# 
  2021  0691                     	;# 
  2022  0692                     	;# 
  2023  0693                     	;# 
  2024  0694                     	;# 
  2025  0695                     	;# 
  2026  0696                     	;# 
  2027  0697                     	;# 
  2028  0698                     	;# 
  2029  0699                     	;# 
  2030  069A                     	;# 
  2031  069B                     	;# 
  2032  069C                     	;# 
  2033  069D                     	;# 
  2034  069E                     	;# 
  2035  069F                     	;# 
  2036  070D                     	;# 
  2037  070E                     	;# 
  2038  070F                     	;# 
  2039  0710                     	;# 
  2040  0711                     	;# 
  2041  0712                     	;# 
  2042  0713                     	;# 
  2043  0714                     	;# 
  2044  0715                     	;# 
  2045  0716                     	;# 
  2046  0717                     	;# 
  2047  0718                     	;# 
  2048  0719                     	;# 
  2049  071A                     	;# 
  2050  071B                     	;# 
  2051  071C                     	;# 
  2052  071D                     	;# 
  2053  071E                     	;# 
  2054  071F                     	;# 
  2055  078E                     	;# 
  2056  078F                     	;# 
  2057  0790                     	;# 
  2058  0791                     	;# 
  2059  0792                     	;# 
  2060  0793                     	;# 
  2061  0794                     	;# 
  2062  0795                     	;# 
  2063  0796                     	;# 
  2064  0797                     	;# 
  2065  0798                     	;# 
  2066  0799                     	;# 
  2067  079A                     	;# 
  2068  079B                     	;# 
  2069  079C                     	;# 
  2070  079D                     	;# 
  2071  079E                     	;# 
  2072  079F                     	;# 
  2073  080D                     	;# 
  2074  080E                     	;# 
  2075  080F                     	;# 
  2076  0810                     	;# 
  2077  0811                     	;# 
  2078  0812                     	;# 
  2079  0813                     	;# 
  2080  0814                     	;# 
  2081  0815                     	;# 
  2082  0816                     	;# 
  2083  0817                     	;# 
  2084  0818                     	;# 
  2085  0819                     	;# 
  2086  081A                     	;# 
  2087  081B                     	;# 
  2088  081C                     	;# 
  2089  081D                     	;# 
  2090  081E                     	;# 
  2091  081F                     	;# 
  2092  090C                     	;# 
  2093  090D                     	;# 
  2094  090E                     	;# 
  2095  090F                     	;# 
  2096  0910                     	;# 
  2097  0911                     	;# 
  2098  0912                     	;# 
  2099  0913                     	;# 
  2100  0914                     	;# 
  2101  0915                     	;# 
  2102  0916                     	;# 
  2103  0917                     	;# 
  2104  0D8E                     	;# 
  2105  0D8F                     	;# 
  2106  0D90                     	;# 
  2107  0D91                     	;# 
  2108  0D91                     	;# 
  2109  0D92                     	;# 
  2110  0D93                     	;# 
  2111  0D93                     	;# 
  2112  0D94                     	;# 
  2113  0D95                     	;# 
  2114  0D95                     	;# 
  2115  0D96                     	;# 
  2116  0D97                     	;# 
  2117  0D97                     	;# 
  2118  0D98                     	;# 
  2119  0D99                     	;# 
  2120  0D99                     	;# 
  2121  0D9A                     	;# 
  2122  0D9B                     	;# 
  2123  0D9C                     	;# 
  2124  0D9C                     	;# 
  2125  0D9D                     	;# 
  2126  0D9D                     	;# 
  2127  0D9E                     	;# 
  2128  0D9F                     	;# 
  2129  0DA0                     	;# 
  2130  0DA1                     	;# 
  2131  0DA1                     	;# 
  2132  0DA2                     	;# 
  2133  0DA3                     	;# 
  2134  0DA3                     	;# 
  2135  0DA4                     	;# 
  2136  0DA5                     	;# 
  2137  0DA5                     	;# 
  2138  0DA6                     	;# 
  2139  0DA7                     	;# 
  2140  0DA7                     	;# 
  2141  0DA8                     	;# 
  2142  0DA9                     	;# 
  2143  0DA9                     	;# 
  2144  0DAA                     	;# 
  2145  0DAB                     	;# 
  2146  0DAC                     	;# 
  2147  0DAC                     	;# 
  2148  0DAD                     	;# 
  2149  0DAD                     	;# 
  2150  0DAE                     	;# 
  2151  0DAF                     	;# 
  2152  0DB0                     	;# 
  2153  0DB1                     	;# 
  2154  0DB1                     	;# 
  2155  0DB2                     	;# 
  2156  0DB3                     	;# 
  2157  0DB3                     	;# 
  2158  0DB4                     	;# 
  2159  0DB5                     	;# 
  2160  0DB5                     	;# 
  2161  0DB6                     	;# 
  2162  0DB7                     	;# 
  2163  0DB7                     	;# 
  2164  0DB8                     	;# 
  2165  0DB9                     	;# 
  2166  0DB9                     	;# 
  2167  0DBA                     	;# 
  2168  0DBB                     	;# 
  2169  0DBC                     	;# 
  2170  0DBC                     	;# 
  2171  0DBD                     	;# 
  2172  0DBD                     	;# 
  2173  0DBE                     	;# 
  2174  0DBF                     	;# 
  2175  0DC0                     	;# 
  2176  0E0C                     	;# 
  2177  0E0D                     	;# 
  2178  0E0E                     	;# 
  2179  0E0F                     	;# 
  2180  0E10                     	;# 
  2181  0E11                     	;# 
  2182  0E12                     	;# 
  2183  0E13                     	;# 
  2184  0E14                     	;# 
  2185  0E15                     	;# 
  2186  0E15                     	;# 
  2187  0E15                     	;# 
  2188  0E16                     	;# 
  2189  0E16                     	;# 
  2190  0E16                     	;# 
  2191  0E17                     	;# 
  2192  0E17                     	;# 
  2193  0E17                     	;# 
  2194  0E18                     	;# 
  2195  0E18                     	;# 
  2196  0E18                     	;# 
  2197  0E19                     	;# 
  2198  0E1A                     	;# 
  2199  0E1B                     	;# 
  2200  0E1D                     	;# 
  2201  0E1E                     	;# 
  2202  0E1F                     	;# 
  2203  0E21                     	;# 
  2204  0E22                     	;# 
  2205  0E23                     	;# 
  2206  0E24                     	;# 
  2207  0E25                     	;# 
  2208  0E26                     	;# 
  2209  0E27                     	;# 
  2210  0E28                     	;# 
  2211  0E29                     	;# 
  2212  0E2D                     	;# 
  2213  0E2E                     	;# 
  2214  0E2F                     	;# 
  2215  0E30                     	;# 
  2216  0E31                     	;# 
  2217  0E32                     	;# 
  2218  0E35                     	;# 
  2219  0E36                     	;# 
  2220  0E37                     	;# 
  2221  0E38                     	;# 
  2222  0E39                     	;# 
  2223  0E3A                     	;# 
  2224  0E3B                     	;# 
  2225  0E3C                     	;# 
  2226  0E3D                     	;# 
  2227  0E3E                     	;# 
  2228  0E90                     	;# 
  2229  0E91                     	;# 
  2230  0E92                     	;# 
  2231  0E93                     	;# 
  2232  0E94                     	;# 
  2233  0E95                     	;# 
  2234  0E96                     	;# 
  2235  0E97                     	;# 
  2236  0E98                     	;# 
  2237  0E99                     	;# 
  2238  0E9A                     	;# 
  2239  0E9B                     	;# 
  2240  0E9C                     	;# 
  2241  0E9D                     	;# 
  2242  0E9E                     	;# 
  2243  0E9F                     	;# 
  2244  0EA0                     	;# 
  2245  0EA1                     	;# 
  2246  0EA2                     	;# 
  2247  0EA3                     	;# 
  2248  0EA4                     	;# 
  2249  0EA5                     	;# 
  2250  0EA6                     	;# 
  2251  0EA7                     	;# 
  2252  0F0F                     	;# 
  2253  0F10                     	;# 
  2254  0F11                     	;# 
  2255  0F12                     	;# 
  2256  0F13                     	;# 
  2257  0F14                     	;# 
  2258  0F15                     	;# 
  2259  0F16                     	;# 
  2260  0F17                     	;# 
  2261  0F18                     	;# 
  2262  0F19                     	;# 
  2263  0F1A                     	;# 
  2264  0F1B                     	;# 
  2265  0F1C                     	;# 
  2266  0F1D                     	;# 
  2267  0F1E                     	;# 
  2268  0F1F                     	;# 
  2269  0F20                     	;# 
  2270  0F21                     	;# 
  2271  0F22                     	;# 
  2272  0F23                     	;# 
  2273  0F24                     	;# 
  2274  0F25                     	;# 
  2275  0F26                     	;# 
  2276  0F27                     	;# 
  2277  0F28                     	;# 
  2278  0F29                     	;# 
  2279  0F2A                     	;# 
  2280  0F2B                     	;# 
  2281  0F2C                     	;# 
  2282  0F2D                     	;# 
  2283  0F2E                     	;# 
  2284  0F2F                     	;# 
  2285  0F30                     	;# 
  2286  0F31                     	;# 
  2287  0F32                     	;# 
  2288  0F33                     	;# 
  2289  0F34                     	;# 
  2290  0F35                     	;# 
  2291  0F36                     	;# 
  2292  0F37                     	;# 
  2293  0FE4                     	;# 
  2294  0FE5                     	;# 
  2295  0FE6                     	;# 
  2296  0FE7                     	;# 
  2297  0FE8                     	;# 
  2298  0FE9                     	;# 
  2299  0FEA                     	;# 
  2300  0FEB                     	;# 
  2301  0FED                     	;# 
  2302  0FEE                     	;# 
  2303  0FEF                     	;# 
  2304  0000                     	;# 
  2305  0001                     	;# 
  2306  0002                     	;# 
  2307  0003                     	;# 
  2308  0004                     	;# 
  2309  0005                     	;# 
  2310  0006                     	;# 
  2311  0007                     	;# 
  2312  0008                     	;# 
  2313  0009                     	;# 
  2314  000A                     	;# 
  2315  000B                     	;# 
  2316  000C                     	;# 
  2317  000D                     	;# 
  2318  000E                     	;# 
  2319  0010                     	;# 
  2320  0011                     	;# 
  2321  0012                     	;# 
  2322  0013                     	;# 
  2323  0014                     	;# 
  2324  0015                     	;# 
  2325  0016                     	;# 
  2326  0017                     	;# 
  2327  0018                     	;# 
  2328  0018                     	;# 
  2329  0019                     	;# 
  2330  001A                     	;# 
  2331  001B                     	;# 
  2332  001C                     	;# 
  2333  001C                     	;# 
  2334  001D                     	;# 
  2335  001E                     	;# 
  2336  001F                     	;# 
  2337  008C                     	;# 
  2338  008D                     	;# 
  2339  008E                     	;# 
  2340  0090                     	;# 
  2341  0091                     	;# 
  2342  0092                     	;# 
  2343  0093                     	;# 
  2344  0094                     	;# 
  2345  0095                     	;# 
  2346  0096                     	;# 
  2347  0097                     	;# 
  2348  0098                     	;# 
  2349  0099                     	;# 
  2350  009A                     	;# 
  2351  009B                     	;# 
  2352  009C                     	;# 
  2353  009D                     	;# 
  2354  009E                     	;# 
  2355  009F                     	;# 
  2356  010C                     	;# 
  2357  010D                     	;# 
  2358  010E                     	;# 
  2359  0111                     	;# 
  2360  0112                     	;# 
  2361  0113                     	;# 
  2362  0114                     	;# 
  2363  0115                     	;# 
  2364  0116                     	;# 
  2365  0117                     	;# 
  2366  0118                     	;# 
  2367  0119                     	;# 
  2368  011A                     	;# 
  2369  011B                     	;# 
  2370  011C                     	;# 
  2371  011D                     	;# 
  2372  018C                     	;# 
  2373  018D                     	;# 
  2374  018E                     	;# 
  2375  0191                     	;# 
  2376  0191                     	;# 
  2377  0192                     	;# 
  2378  0193                     	;# 
  2379  0193                     	;# 
  2380  0194                     	;# 
  2381  0195                     	;# 
  2382  0196                     	;# 
  2383  0197                     	;# 
  2384  0199                     	;# 
  2385  0199                     	;# 
  2386  0199                     	;# 
  2387  019A                     	;# 
  2388  019A                     	;# 
  2389  019A                     	;# 
  2390  019B                     	;# 
  2391  019B                     	;# 
  2392  019B                     	;# 
  2393  019B                     	;# 
  2394  019B                     	;# 
  2395  019C                     	;# 
  2396  019C                     	;# 
  2397  019C                     	;# 
  2398  019D                     	;# 
  2399  019D                     	;# 
  2400  019D                     	;# 
  2401  019E                     	;# 
  2402  019E                     	;# 
  2403  019E                     	;# 
  2404  019F                     	;# 
  2405  019F                     	;# 
  2406  019F                     	;# 
  2407  019F                     	;# 
  2408  019F                     	;# 
  2409  020C                     	;# 
  2410  020D                     	;# 
  2411  020E                     	;# 
  2412  0210                     	;# 
  2413  0211                     	;# 
  2414  0211                     	;# 
  2415  0212                     	;# 
  2416  0212                     	;# 
  2417  0213                     	;# 
  2418  0213                     	;# 
  2419  0214                     	;# 
  2420  0214                     	;# 
  2421  0215                     	;# 
  2422  0215                     	;# 
  2423  0215                     	;# 
  2424  0215                     	;# 
  2425  0216                     	;# 
  2426  0216                     	;# 
  2427  0217                     	;# 
  2428  0217                     	;# 
  2429  021B                     	;# 
  2430  021C                     	;# 
  2431  021D                     	;# 
  2432  021E                     	;# 
  2433  021F                     	;# 
  2434  028C                     	;# 
  2435  028D                     	;# 
  2436  028E                     	;# 
  2437  0291                     	;# 
  2438  0291                     	;# 
  2439  0292                     	;# 
  2440  0293                     	;# 
  2441  0294                     	;# 
  2442  0295                     	;# 
  2443  0295                     	;# 
  2444  0296                     	;# 
  2445  0297                     	;# 
  2446  0298                     	;# 
  2447  0299                     	;# 
  2448  0299                     	;# 
  2449  029A                     	;# 
  2450  029B                     	;# 
  2451  029C                     	;# 
  2452  029E                     	;# 
  2453  029F                     	;# 
  2454  030C                     	;# 
  2455  030D                     	;# 
  2456  030E                     	;# 
  2457  0315                     	;# 
  2458  0316                     	;# 
  2459  0317                     	;# 
  2460  0318                     	;# 
  2461  0319                     	;# 
  2462  031B                     	;# 
  2463  031C                     	;# 
  2464  031D                     	;# 
  2465  031E                     	;# 
  2466  031F                     	;# 
  2467  038C                     	;# 
  2468  038D                     	;# 
  2469  038E                     	;# 
  2470  0390                     	;# 
  2471  0391                     	;# 
  2472  0392                     	;# 
  2473  0393                     	;# 
  2474  0394                     	;# 
  2475  0395                     	;# 
  2476  0396                     	;# 
  2477  0397                     	;# 
  2478  0398                     	;# 
  2479  0399                     	;# 
  2480  039D                     	;# 
  2481  039E                     	;# 
  2482  039F                     	;# 
  2483  040D                     	;# 
  2484  040F                     	;# 
  2485  040F                     	;# 
  2486  0410                     	;# 
  2487  0411                     	;# 
  2488  0412                     	;# 
  2489  0413                     	;# 
  2490  0413                     	;# 
  2491  0414                     	;# 
  2492  0414                     	;# 
  2493  0415                     	;# 
  2494  0416                     	;# 
  2495  0417                     	;# 
  2496  0418                     	;# 
  2497  041A                     	;# 
  2498  041A                     	;# 
  2499  041B                     	;# 
  2500  041B                     	;# 
  2501  041C                     	;# 
  2502  041D                     	;# 
  2503  041E                     	;# 
  2504  041F                     	;# 
  2505  048E                     	;# 
  2506  048E                     	;# 
  2507  048F                     	;# 
  2508  0490                     	;# 
  2509  0491                     	;# 
  2510  0492                     	;# 
  2511  0493                     	;# 
  2512  0493                     	;# 
  2513  0494                     	;# 
  2514  0494                     	;# 
  2515  0495                     	;# 
  2516  0496                     	;# 
  2517  0497                     	;# 
  2518  0498                     	;# 
  2519  049A                     	;# 
  2520  049A                     	;# 
  2521  049B                     	;# 
  2522  049B                     	;# 
  2523  049C                     	;# 
  2524  049D                     	;# 
  2525  049E                     	;# 
  2526  049F                     	;# 
  2527  050F                     	;# 
  2528  0510                     	;# 
  2529  0511                     	;# 
  2530  0512                     	;# 
  2531  0513                     	;# 
  2532  0514                     	;# 
  2533  0515                     	;# 
  2534  0516                     	;# 
  2535  0517                     	;# 
  2536  0518                     	;# 
  2537  0519                     	;# 
  2538  051A                     	;# 
  2539  058D                     	;# 
  2540  058E                     	;# 
  2541  058F                     	;# 
  2542  058F                     	;# 
  2543  058F                     	;# 
  2544  0590                     	;# 
  2545  0590                     	;# 
  2546  0591                     	;# 
  2547  0592                     	;# 
  2548  0592                     	;# 
  2549  0592                     	;# 
  2550  0593                     	;# 
  2551  0593                     	;# 
  2552  0594                     	;# 
  2553  0595                     	;# 
  2554  0595                     	;# 
  2555  0596                     	;# 
  2556  0597                     	;# 
  2557  0597                     	;# 
  2558  0598                     	;# 
  2559  0599                     	;# 
  2560  0599                     	;# 
  2561  0599                     	;# 
  2562  059A                     	;# 
  2563  059A                     	;# 
  2564  059E                     	;# 
  2565  059F                     	;# 
  2566  059F                     	;# 
  2567  0614                     	;# 
  2568  0614                     	;# 
  2569  0615                     	;# 
  2570  0616                     	;# 
  2571  0617                     	;# 
  2572  0617                     	;# 
  2573  0618                     	;# 
  2574  0619                     	;# 
  2575  061A                     	;# 
  2576  061A                     	;# 
  2577  061B                     	;# 
  2578  061C                     	;# 
  2579  068D                     	;# 
  2580  068E                     	;# 
  2581  068F                     	;# 
  2582  0690                     	;# 
  2583  0691                     	;# 
  2584  0692                     	;# 
  2585  0693                     	;# 
  2586  0694                     	;# 
  2587  0695                     	;# 
  2588  0696                     	;# 
  2589  0697                     	;# 
  2590  0698                     	;# 
  2591  0699                     	;# 
  2592  069A                     	;# 
  2593  069B                     	;# 
  2594  069C                     	;# 
  2595  069D                     	;# 
  2596  069E                     	;# 
  2597  069F                     	;# 
  2598  070D                     	;# 
  2599  070E                     	;# 
  2600  070F                     	;# 
  2601  0710                     	;# 
  2602  0711                     	;# 
  2603  0712                     	;# 
  2604  0713                     	;# 
  2605  0714                     	;# 
  2606  0715                     	;# 
  2607  0716                     	;# 
  2608  0717                     	;# 
  2609  0718                     	;# 
  2610  0719                     	;# 
  2611  071A                     	;# 
  2612  071B                     	;# 
  2613  071C                     	;# 
  2614  071D                     	;# 
  2615  071E                     	;# 
  2616  071F                     	;# 
  2617  078E                     	;# 
  2618  078F                     	;# 
  2619  0790                     	;# 
  2620  0791                     	;# 
  2621  0792                     	;# 
  2622  0793                     	;# 
  2623  0794                     	;# 
  2624  0795                     	;# 
  2625  0796                     	;# 
  2626  0797                     	;# 
  2627  0798                     	;# 
  2628  0799                     	;# 
  2629  079A                     	;# 
  2630  079B                     	;# 
  2631  079C                     	;# 
  2632  079D                     	;# 
  2633  079E                     	;# 
  2634  079F                     	;# 
  2635  080D                     	;# 
  2636  080E                     	;# 
  2637  080F                     	;# 
  2638  0810                     	;# 
  2639  0811                     	;# 
  2640  0812                     	;# 
  2641  0813                     	;# 
  2642  0814                     	;# 
  2643  0815                     	;# 
  2644  0816                     	;# 
  2645  0817                     	;# 
  2646  0818                     	;# 
  2647  0819                     	;# 
  2648  081A                     	;# 
  2649  081B                     	;# 
  2650  081C                     	;# 
  2651  081D                     	;# 
  2652  081E                     	;# 
  2653  081F                     	;# 
  2654  090C                     	;# 
  2655  090D                     	;# 
  2656  090E                     	;# 
  2657  090F                     	;# 
  2658  0910                     	;# 
  2659  0911                     	;# 
  2660  0912                     	;# 
  2661  0913                     	;# 
  2662  0914                     	;# 
  2663  0915                     	;# 
  2664  0916                     	;# 
  2665  0917                     	;# 
  2666  0D8E                     	;# 
  2667  0D8F                     	;# 
  2668  0D90                     	;# 
  2669  0D91                     	;# 
  2670  0D91                     	;# 
  2671  0D92                     	;# 
  2672  0D93                     	;# 
  2673  0D93                     	;# 
  2674  0D94                     	;# 
  2675  0D95                     	;# 
  2676  0D95                     	;# 
  2677  0D96                     	;# 
  2678  0D97                     	;# 
  2679  0D97                     	;# 
  2680  0D98                     	;# 
  2681  0D99                     	;# 
  2682  0D99                     	;# 
  2683  0D9A                     	;# 
  2684  0D9B                     	;# 
  2685  0D9C                     	;# 
  2686  0D9C                     	;# 
  2687  0D9D                     	;# 
  2688  0D9D                     	;# 
  2689  0D9E                     	;# 
  2690  0D9F                     	;# 
  2691  0DA0                     	;# 
  2692  0DA1                     	;# 
  2693  0DA1                     	;# 
  2694  0DA2                     	;# 
  2695  0DA3                     	;# 
  2696  0DA3                     	;# 
  2697  0DA4                     	;# 
  2698  0DA5                     	;# 
  2699  0DA5                     	;# 
  2700  0DA6                     	;# 
  2701  0DA7                     	;# 
  2702  0DA7                     	;# 
  2703  0DA8                     	;# 
  2704  0DA9                     	;# 
  2705  0DA9                     	;# 
  2706  0DAA                     	;# 
  2707  0DAB                     	;# 
  2708  0DAC                     	;# 
  2709  0DAC                     	;# 
  2710  0DAD                     	;# 
  2711  0DAD                     	;# 
  2712  0DAE                     	;# 
  2713  0DAF                     	;# 
  2714  0DB0                     	;# 
  2715  0DB1                     	;# 
  2716  0DB1                     	;# 
  2717  0DB2                     	;# 
  2718  0DB3                     	;# 
  2719  0DB3                     	;# 
  2720  0DB4                     	;# 
  2721  0DB5                     	;# 
  2722  0DB5                     	;# 
  2723  0DB6                     	;# 
  2724  0DB7                     	;# 
  2725  0DB7                     	;# 
  2726  0DB8                     	;# 
  2727  0DB9                     	;# 
  2728  0DB9                     	;# 
  2729  0DBA                     	;# 
  2730  0DBB                     	;# 
  2731  0DBC                     	;# 
  2732  0DBC                     	;# 
  2733  0DBD                     	;# 
  2734  0DBD                     	;# 
  2735  0DBE                     	;# 
  2736  0DBF                     	;# 
  2737  0DC0                     	;# 
  2738  0E0C                     	;# 
  2739  0E0D                     	;# 
  2740  0E0E                     	;# 
  2741  0E0F                     	;# 
  2742  0E10                     	;# 
  2743  0E11                     	;# 
  2744  0E12                     	;# 
  2745  0E13                     	;# 
  2746  0E14                     	;# 
  2747  0E15                     	;# 
  2748  0E15                     	;# 
  2749  0E15                     	;# 
  2750  0E16                     	;# 
  2751  0E16                     	;# 
  2752  0E16                     	;# 
  2753  0E17                     	;# 
  2754  0E17                     	;# 
  2755  0E17                     	;# 
  2756  0E18                     	;# 
  2757  0E18                     	;# 
  2758  0E18                     	;# 
  2759  0E19                     	;# 
  2760  0E1A                     	;# 
  2761  0E1B                     	;# 
  2762  0E1D                     	;# 
  2763  0E1E                     	;# 
  2764  0E1F                     	;# 
  2765  0E21                     	;# 
  2766  0E22                     	;# 
  2767  0E23                     	;# 
  2768  0E24                     	;# 
  2769  0E25                     	;# 
  2770  0E26                     	;# 
  2771  0E27                     	;# 
  2772  0E28                     	;# 
  2773  0E29                     	;# 
  2774  0E2D                     	;# 
  2775  0E2E                     	;# 
  2776  0E2F                     	;# 
  2777  0E30                     	;# 
  2778  0E31                     	;# 
  2779  0E32                     	;# 
  2780  0E35                     	;# 
  2781  0E36                     	;# 
  2782  0E37                     	;# 
  2783  0E38                     	;# 
  2784  0E39                     	;# 
  2785  0E3A                     	;# 
  2786  0E3B                     	;# 
  2787  0E3C                     	;# 
  2788  0E3D                     	;# 
  2789  0E3E                     	;# 
  2790  0E90                     	;# 
  2791  0E91                     	;# 
  2792  0E92                     	;# 
  2793  0E93                     	;# 
  2794  0E94                     	;# 
  2795  0E95                     	;# 
  2796  0E96                     	;# 
  2797  0E97                     	;# 
  2798  0E98                     	;# 
  2799  0E99                     	;# 
  2800  0E9A                     	;# 
  2801  0E9B                     	;# 
  2802  0E9C                     	;# 
  2803  0E9D                     	;# 
  2804  0E9E                     	;# 
  2805  0E9F                     	;# 
  2806  0EA0                     	;# 
  2807  0EA1                     	;# 
  2808  0EA2                     	;# 
  2809  0EA3                     	;# 
  2810  0EA4                     	;# 
  2811  0EA5                     	;# 
  2812  0EA6                     	;# 
  2813  0EA7                     	;# 
  2814  0F0F                     	;# 
  2815  0F10                     	;# 
  2816  0F11                     	;# 
  2817  0F12                     	;# 
  2818  0F13                     	;# 
  2819  0F14                     	;# 
  2820  0F15                     	;# 
  2821  0F16                     	;# 
  2822  0F17                     	;# 
  2823  0F18                     	;# 
  2824  0F19                     	;# 
  2825  0F1A                     	;# 
  2826  0F1B                     	;# 
  2827  0F1C                     	;# 
  2828  0F1D                     	;# 
  2829  0F1E                     	;# 
  2830  0F1F                     	;# 
  2831  0F20                     	;# 
  2832  0F21                     	;# 
  2833  0F22                     	;# 
  2834  0F23                     	;# 
  2835  0F24                     	;# 
  2836  0F25                     	;# 
  2837  0F26                     	;# 
  2838  0F27                     	;# 
  2839  0F28                     	;# 
  2840  0F29                     	;# 
  2841  0F2A                     	;# 
  2842  0F2B                     	;# 
  2843  0F2C                     	;# 
  2844  0F2D                     	;# 
  2845  0F2E                     	;# 
  2846  0F2F                     	;# 
  2847  0F30                     	;# 
  2848  0F31                     	;# 
  2849  0F32                     	;# 
  2850  0F33                     	;# 
  2851  0F34                     	;# 
  2852  0F35                     	;# 
  2853  0F36                     	;# 
  2854  0F37                     	;# 
  2855  0FE4                     	;# 
  2856  0FE5                     	;# 
  2857  0FE6                     	;# 
  2858  0FE7                     	;# 
  2859  0FE8                     	;# 
  2860  0FE9                     	;# 
  2861  0FEA                     	;# 
  2862  0FEB                     	;# 
  2863  0FED                     	;# 
  2864  0FEE                     	;# 
  2865  0FEF                     	;# 
  2866                           
  2867                           	psect	idataCOMMON
  2868  0111                     __pidataCOMMON:	
  2869                           
  2870                           ;initializer for _band_aux
  2871  0111  3402               	retlw	2
  2872  0112  3400               	retlw	0
  2873                           
  2874                           	psect	stringtext1
  2875  0104                     __pstringtext1:	
  2876  0104                     _mensaje:	
  2877  0104  3431               	retlw	49
  2878  0105  3400               	retlw	0
  2879  0106                     __end_of_mensaje:	
  2880  0011                     _PIR1bits	set	17
  2881  000B                     _INTCONbits	set	11
  2882  008C                     _TXIF	set	140
  2883  008D                     _RCIF	set	141
  2884  0097                     _OPTION_REGbits	set	151
  2885  0091                     _PIE1bits	set	145
  2886  008E                     _TRISCbits	set	142
  2887  008C                     _TRISAbits	set	140
  2888  009B                     _OSCCONbits	set	155
  2889  010E                     _LATC	set	270
  2890  010D                     _LATB	set	269
  2891  010C                     _LATA	set	268
  2892  010C                     _LATAbits	set	268
  2893  019B                     _SP1BRG	set	411
  2894  019D                     _RC1STAbits	set	413
  2895  019F                     _BAUD1CONbits	set	415
  2896  018E                     _ANSELCbits	set	398
  2897  018C                     _ANSELAbits	set	396
  2898  019A                     _TXREG	set	410
  2899  019E                     _TX1STAbits	set	414
  2900  019A                     _TX1REG	set	410
  2901  0199                     _RCREG	set	409
  2902  0CEC                     _CREN	set	3308
  2903  0CE9                     _OERR	set	3305
  2904  020E                     _WPUCbits	set	526
  2905  020C                     _WPUAbits	set	524
  2906  048E                     _ADRES	set	1166
  2907  0491                     _ADCON1bits	set	1169
  2908  0490                     _ADCON0bits	set	1168
  2909  0E3D                     _RXPPS	set	3645
  2910  0EA6                     _RC6PPS	set	3750
  2911  0106                     STR_1:	
  2912  0106  3431               	retlw	49	;'1'
  2913  0107  3461               	retlw	97	;'a'
  2914  0108  3420               	retlw	32	;' '
  2915  0109  3461               	retlw	97	;'a'
  2916  010A  3400               	retlw	0
  2917                           
  2918                           	psect	stringtext2
  2919  0000                     __pstringtext2:	
  2920                           
  2921                           ; #config settings
  2922  0000                     
  2923                           	psect	cinit
  2924  0021                     start_initialization:	
  2925  0021                     __initialization:	
  2926                           
  2927                           ; Initialize objects allocated to COMMON
  2928  0021  3181  2111  3180   	fcall	__pidataCOMMON	;fetch initializer
  2929  0024  00FA               	movwf	__pdataCOMMON& (0+127)
  2930  0025  3181  2112  3180   	fcall	__pidataCOMMON+1	;fetch initializer
  2931  0028  00FB               	movwf	(__pdataCOMMON+1)& (0+127)
  2932                           
  2933                           ; Clear objects allocated to COMMON
  2934  0029  01F0               	clrf	__pbssCOMMON& (0+127)
  2935  002A  01F1               	clrf	(__pbssCOMMON+1)& (0+127)
  2936  002B  01F2               	clrf	(__pbssCOMMON+2)& (0+127)
  2937  002C  01F3               	clrf	(__pbssCOMMON+3)& (0+127)
  2938  002D  01F4               	clrf	(__pbssCOMMON+4)& (0+127)
  2939  002E  01F5               	clrf	(__pbssCOMMON+5)& (0+127)
  2940                           
  2941                           ; Clear objects allocated to BANK0
  2942  002F  3020               	movlw	low __pbssBANK0
  2943  0030  0084               	movwf	4
  2944  0031  3000               	movlw	high __pbssBANK0
  2945  0032  0085               	movwf	5
  2946  0033  301D               	movlw	29
  2947  0034  3181  210B  3180   	fcall	clear_ram0
  2948  0037                     end_of_initialization:	
  2949                           ;End of C runtime variable initialization code
  2950                           
  2951  0037                     __end_of__initialization:	
  2952  0037  107E               	bcf	int$flags,0	;clear compiler interrupt flag (level 1)
  2953  0038  0020               	movlb	0
  2954  0039  3180  2882         	ljmp	_main	;jump to C main() function
  2955                           
  2956                           	psect	bssCOMMON
  2957  0070                     __pbssCOMMON:	
  2958  0070                     _v_sensor:	
  2959  0070                     	ds	4
  2960  0074                     _AD_almacenado:	
  2961  0074                     	ds	2
  2962                           
  2963                           	psect	dataCOMMON
  2964  007A                     __pdataCOMMON:	
  2965  007A                     _band_aux:	
  2966  007A                     	ds	2
  2967                           
  2968                           	psect	bssBANK0
  2969  0020                     __pbssBANK0:	
  2970  0020                     _salida:	
  2971  0020                     	ds	25
  2972  0039                     _temp:	
  2973  0039                     	ds	4
  2974                           
  2975                           	psect	clrtext
  2976  010B                     clear_ram0:	
  2977                           ;	Called with FSR0 containing the base address, and
  2978                           ;	WREG with the size to clear
  2979                           
  2980  010B  0064               	clrwdt	;clear the watchdog before getting into this loop
  2981  010C                     clrloop0:	
  2982  010C  0180               	clrf	0	;clear RAM location pointed to by FSR
  2983  010D  3101               	addfsr 0,1
  2984  010E  0B89               	decfsz	9,f	;Have we reached the end of clearing yet?
  2985  010F  290C               	goto	clrloop0	;have we reached the end yet?
  2986  0110  3400               	retlw	0	;all done for this memory range, return
  2987                           
  2988                           	psect	cstackCOMMON
  2989  0076                     __pcstackCOMMON:	
  2990  0076                     ?_ConfigureOscillator:	
  2991  0076                     ??_ConfigureOscillator:	
  2992                           ; 1 bytes @ 0x0
  2993                           
  2994  0076                     ?_InitApp:	
  2995                           ; 1 bytes @ 0x0
  2996                           
  2997  0076                     ??_InitApp:	
  2998                           ; 1 bytes @ 0x0
  2999                           
  3000  0076                     ?_enviarTrama:	
  3001                           ; 1 bytes @ 0x0
  3002                           
  3003  0076                     ?_UART_send_char:	
  3004                           ; 1 bytes @ 0x0
  3005                           
  3006  0076                     ??_UART_send_char:	
  3007                           ; 1 bytes @ 0x0
  3008                           
  3009  0076                     ?_isr:	
  3010                           ; 1 bytes @ 0x0
  3011                           
  3012  0076                     ??_isr:	
  3013                           ; 1 bytes @ 0x0
  3014                           
  3015  0076                     ?_main:	
  3016                           ; 1 bytes @ 0x0
  3017                           
  3018  0076                     UART_send_char@bt:	
  3019                           ; 1 bytes @ 0x0
  3020                           
  3021  0076                     enviarTrama@datos:	
  3022                           ; 1 bytes @ 0x0
  3023                           
  3024                           
  3025                           ; 2 bytes @ 0x0
  3026  0076                     	ds	1
  3027  0077                     ?_UART_send_string:	
  3028  0077                     UART_send_string@st_pt:	
  3029                           ; 1 bytes @ 0x1
  3030                           
  3031                           
  3032                           ; 2 bytes @ 0x1
  3033  0077                     	ds	1
  3034  0078                     ??_enviarTrama:	
  3035                           
  3036                           ; 1 bytes @ 0x2
  3037  0078                     	ds	1
  3038  0079                     ??_UART_send_string:	
  3039                           
  3040                           ; 1 bytes @ 0x3
  3041  0079                     	ds	1
  3042  007A                     ??_main:	
  3043                           
  3044                           	psect	maintext
  3045  0082                     __pmaintext:	
  3046                           ; 1 bytes @ 0x4
  3047 ;;
  3048 ;;Main: autosize = 0, tempsize = 0, incstack = 0, save=0
  3049 ;;
  3050 ;; *************** function _main *****************
  3051 ;; Defined at:
  3052 ;;		line 57 in file "main.c"
  3053 ;; Parameters:    Size  Location     Type
  3054 ;;		None
  3055 ;; Auto vars:     Size  Location     Type
  3056 ;;		None
  3057 ;; Return value:  Size  Location     Type
  3058 ;;                  1    wreg      void 
  3059 ;; Registers used:
  3060 ;;		wreg, fsr0l, fsr0h, status,2, status,0, pclath, cstack
  3061 ;; Tracked objects:
  3062 ;;		On entry : B1F/0
  3063 ;;		On exit  : 0/0
  3064 ;;		Unchanged: 0/0
  3065 ;; Data sizes:     COMMON   BANK0   BANK1   BANK2   BANK3   BANK4   BANK5   BANK6   BANK7   BANK8   BANK9  BANK10  BANK1
      +1  BANK12
  3066 ;;      Params:         0       0       0       0       0       0       0       0       0       0       0       0       
      +0       0
  3067 ;;      Locals:         0       0       0       0       0       0       0       0       0       0       0       0       
      +0       0
  3068 ;;      Temps:          0       0       0       0       0       0       0       0       0       0       0       0       
      +0       0
  3069 ;;      Totals:         0       0       0       0       0       0       0       0       0       0       0       0       
      +0       0
  3070 ;;Total ram usage:        0 bytes
  3071 ;; Hardware stack levels required when called:    3
  3072 ;; This function calls:
  3073 ;;		_ConfigureOscillator
  3074 ;;		_InitApp
  3075 ;;		_UART_send_char
  3076 ;;		_UART_send_string
  3077 ;;		_enviarTrama
  3078 ;; This function is called by:
  3079 ;;		Startup code after reset
  3080 ;; This function uses a non-reentrant model
  3081 ;;
  3082                           
  3083                           
  3084                           ;psect for function _main
  3085  0082                     _main:	
  3086  0082                     l876:	
  3087                           ;incstack = 0
  3088                           ; Regs used in _main: [wreg-fsr0h+status,2+status,0+pclath+cstack]
  3089                           
  3090                           
  3091                           ;main.c: 60: ConfigureOscillator();
  3092  0082  3180  20FC  3180   	fcall	_ConfigureOscillator
  3093                           
  3094                           ;main.c: 63: InitApp();
  3095  0085  3180  203B  3180   	fcall	_InitApp
  3096  0088                     l878:	
  3097                           
  3098                           ;main.c: 64: enviarTrama(mensaje);
  3099  0088  3004               	movlw	low (_mensaje| (0+32768))
  3100  0089  00F6               	movwf	enviarTrama@datos
  3101  008A  3081               	movlw	high (_mensaje| (0+32768))
  3102  008B  00F7               	movwf	enviarTrama@datos+1
  3103  008C  3180  20B4  3180   	fcall	_enviarTrama
  3104  008F                     l880:	
  3105                           
  3106                           ;main.c: 67: {;main.c: 68: if(band_aux == 8){
  3107  008F  3008               	movlw	8
  3108  0090  067A               	xorwf	_band_aux,w
  3109  0091  047B               	iorwf	_band_aux+1,w
  3110  0092  1D03               	btfss	3,2
  3111  0093  2895               	goto	u191
  3112  0094  2896               	goto	u190
  3113  0095                     u191:	
  3114  0095  288F               	goto	l880
  3115  0096                     u190:	
  3116  0096                     l882:	
  3117                           
  3118                           ;main.c: 72: band_aux=0;
  3119  0096  01FA               	clrf	_band_aux
  3120  0097  01FB               	clrf	_band_aux+1
  3121  0098                     l884:	
  3122                           
  3123                           ;main.c: 73: ADCON0bits.GO= 1;
  3124  0098  0029               	movlb	9	; select bank9
  3125  0099  1490               	bsf	16,1	;volatile
  3126  009A                     l886:	
  3127                           
  3128                           ;main.c: 76: LATAbits.LATA1 = !LATAbits.LATA1;
  3129  009A  1003               	clrc
  3130  009B  0022               	movlb	2	; select bank2
  3131  009C  1C8C               	btfss	12,1	;volatile
  3132  009D  1403               	setc
  3133  009E  1803               	btfsc	3,0
  3134  009F  28A1               	goto	u201
  3135  00A0  28A4               	goto	u200
  3136  00A1                     u201:	
  3137  00A1  0022               	movlb	2	; select bank2
  3138  00A2  148C               	bsf	12,1	;volatile
  3139  00A3  28A6               	goto	u214
  3140  00A4                     u200:	
  3141  00A4  0022               	movlb	2	; select bank2
  3142  00A5  108C               	bcf	12,1	;volatile
  3143  00A6                     u214:	
  3144  00A6                     l888:	
  3145                           
  3146                           ;main.c: 78: UART_send_string("1a a");
  3147  00A6  3006               	movlw	low (STR_1| (0+32768))
  3148  00A7  00F7               	movwf	UART_send_string@st_pt
  3149  00A8  3081               	movlw	high (STR_1| (0+32768))
  3150  00A9  00F8               	movwf	UART_send_string@st_pt+1
  3151  00AA  3180  20DB  3180   	fcall	_UART_send_string
  3152  00AD                     l890:	
  3153                           
  3154                           ;main.c: 79: UART_send_char(10);
  3155  00AD  300A               	movlw	10
  3156  00AE  3180  20F2  3180   	fcall	_UART_send_char
  3157  00B1  288F               	goto	l880
  3158  00B2  3180  281F         	ljmp	start
  3159  00B4                     __end_of_main:	
  3160                           
  3161                           	psect	text1
  3162  00B4                     __ptext1:	
  3163 ;; *************** function _enviarTrama *****************
  3164 ;; Defined at:
  3165 ;;		line 111 in file "main.c"
  3166 ;; Parameters:    Size  Location     Type
  3167 ;;  datos           2    0[COMMON] PTR unsigned char 
  3168 ;;		 -> mensaje(2), 
  3169 ;; Auto vars:     Size  Location     Type
  3170 ;;		None
  3171 ;; Return value:  Size  Location     Type
  3172 ;;                  1    wreg      void 
  3173 ;; Registers used:
  3174 ;;		wreg, fsr0l, fsr0h, status,2, status,0, pclath
  3175 ;; Tracked objects:
  3176 ;;		On entry : 0/0
  3177 ;;		On exit  : 0/0
  3178 ;;		Unchanged: 0/0
  3179 ;; Data sizes:     COMMON   BANK0   BANK1   BANK2   BANK3   BANK4   BANK5   BANK6   BANK7   BANK8   BANK9  BANK10  BANK1
      +1  BANK12
  3180 ;;      Params:         2       0       0       0       0       0       0       0       0       0       0       0       
      +0       0
  3181 ;;      Locals:         0       0       0       0       0       0       0       0       0       0       0       0       
      +0       0
  3182 ;;      Temps:          1       0       0       0       0       0       0       0       0       0       0       0       
      +0       0
  3183 ;;      Totals:         3       0       0       0       0       0       0       0       0       0       0       0       
      +0       0
  3184 ;;Total ram usage:        3 bytes
  3185 ;; Hardware stack levels used:    1
  3186 ;; Hardware stack levels required when called:    1
  3187 ;; This function calls:
  3188 ;;		Nothing
  3189 ;; This function is called by:
  3190 ;;		_main
  3191 ;; This function uses a non-reentrant model
  3192 ;;
  3193                           
  3194                           
  3195                           ;psect for function _enviarTrama
  3196  00B4                     _enviarTrama:	
  3197  00B4                     l856:	
  3198                           ;incstack = 0
  3199                           ; Regs used in _enviarTrama: [wreg-fsr0h+status,2+status,0+pclath]
  3200                           
  3201                           
  3202                           ;main.c: 115: while (*datos != 0) {
  3203  00B4  28C4               	goto	l862
  3204  00B5                     l858:	
  3205                           
  3206                           ;main.c: 116: TX1REG = *datos;
  3207  00B5  0876               	movf	enviarTrama@datos,w
  3208  00B6  0084               	movwf	4
  3209  00B7  0877               	movf	enviarTrama@datos+1,w
  3210  00B8  0085               	movwf	5
  3211  00B9  0800               	movf	0,w	;code access
  3212  00BA  0023               	movlb	3	; select bank3
  3213  00BB  009A               	movwf	26	;volatile
  3214  00BC                     l78:	
  3215                           ;main.c: 118: while (TX1STAbits.TRMT == 0);
  3216                           
  3217  00BC  1C9E               	btfss	30,1	;volatile
  3218  00BD  28BF               	goto	u141
  3219  00BE  28C0               	goto	u140
  3220  00BF                     u141:	
  3221  00BF  28BC               	goto	l78
  3222  00C0                     u140:	
  3223  00C0                     l860:	
  3224                           
  3225                           ;main.c: 119: *datos++;
  3226  00C0  3001               	movlw	1
  3227  00C1  07F6               	addwf	enviarTrama@datos,f
  3228  00C2  3000               	movlw	0
  3229  00C3  3DF7               	addwfc	enviarTrama@datos+1,f
  3230  00C4                     l862:	
  3231  00C4  0876               	movf	enviarTrama@datos,w
  3232  00C5  0084               	movwf	4
  3233  00C6  0877               	movf	enviarTrama@datos+1,w
  3234  00C7  0085               	movwf	5
  3235  00C8  0012               	moviw fsr0++
  3236  00C9  1D03               	btfss	3,2
  3237  00CA  28CC               	goto	u151
  3238  00CB  28CD               	goto	u150
  3239  00CC                     u151:	
  3240  00CC  28B5               	goto	l858
  3241  00CD                     u150:	
  3242  00CD                     l864:	
  3243                           
  3244                           ;main.c: 120: };main.c: 122: TX1REG = 0x0A;
  3245  00CD  300A               	movlw	10
  3246  00CE  0023               	movlb	3	; select bank3
  3247  00CF  009A               	movwf	26	;volatile
  3248  00D0                     l82:	
  3249                           ;main.c: 123: while (TX1STAbits.TRMT == 0);
  3250                           
  3251  00D0  1C9E               	btfss	30,1	;volatile
  3252  00D1  28D3               	goto	u161
  3253  00D2  28D4               	goto	u160
  3254  00D3                     u161:	
  3255  00D3  28D0               	goto	l82
  3256  00D4                     u160:	
  3257  00D4                     l866:	
  3258                           
  3259                           ;main.c: 124: TX1REG = 0x0D;
  3260  00D4  300D               	movlw	13
  3261  00D5  009A               	movwf	26	;volatile
  3262  00D6                     l85:	
  3263                           ;main.c: 125: while (TX1STAbits.TRMT == 0);
  3264                           
  3265  00D6  1C9E               	btfss	30,1	;volatile
  3266  00D7  28D9               	goto	u171
  3267  00D8  28DA               	goto	u170
  3268  00D9                     u171:	
  3269  00D9  28D6               	goto	l85
  3270  00DA                     u170:	
  3271  00DA                     l88:	
  3272  00DA  0008               	return
  3273  00DB                     __end_of_enviarTrama:	
  3274                           
  3275                           	psect	text2
  3276  00DB                     __ptext2:	
  3277 ;; *************** function _UART_send_string *****************
  3278 ;; Defined at:
  3279 ;;		line 141 in file "main.c"
  3280 ;; Parameters:    Size  Location     Type
  3281 ;;  st_pt           2    1[COMMON] PTR unsigned char 
  3282 ;;		 -> STR_1(5), 
  3283 ;; Auto vars:     Size  Location     Type
  3284 ;;		None
  3285 ;; Return value:  Size  Location     Type
  3286 ;;                  1    wreg      void 
  3287 ;; Registers used:
  3288 ;;		wreg, fsr0l, fsr0h, status,2, status,0, pclath, cstack
  3289 ;; Tracked objects:
  3290 ;;		On entry : 0/0
  3291 ;;		On exit  : 0/0
  3292 ;;		Unchanged: 0/0
  3293 ;; Data sizes:     COMMON   BANK0   BANK1   BANK2   BANK3   BANK4   BANK5   BANK6   BANK7   BANK8   BANK9  BANK10  BANK1
      +1  BANK12
  3294 ;;      Params:         2       0       0       0       0       0       0       0       0       0       0       0       
      +0       0
  3295 ;;      Locals:         0       0       0       0       0       0       0       0       0       0       0       0       
      +0       0
  3296 ;;      Temps:          1       0       0       0       0       0       0       0       0       0       0       0       
      +0       0
  3297 ;;      Totals:         3       0       0       0       0       0       0       0       0       0       0       0       
      +0       0
  3298 ;;Total ram usage:        3 bytes
  3299 ;; Hardware stack levels used:    1
  3300 ;; Hardware stack levels required when called:    2
  3301 ;; This function calls:
  3302 ;;		_UART_send_char
  3303 ;; This function is called by:
  3304 ;;		_main
  3305 ;; This function uses a non-reentrant model
  3306 ;;
  3307                           
  3308                           
  3309                           ;psect for function _UART_send_string
  3310  00DB                     _UART_send_string:	
  3311  00DB                     l868:	
  3312                           ;incstack = 0
  3313                           ; Regs used in _UART_send_string: [wreg-fsr0h+status,2+status,0+pclath+cstack]
  3314                           
  3315                           
  3316                           ;main.c: 143: while(*st_pt)
  3317  00DB  28E8               	goto	l874
  3318  00DC                     l870:	
  3319                           
  3320                           ;main.c: 144: UART_send_char(*st_pt++);
  3321  00DC  0877               	movf	UART_send_string@st_pt,w
  3322  00DD  0084               	movwf	4
  3323  00DE  0878               	movf	UART_send_string@st_pt+1,w
  3324  00DF  0085               	movwf	5
  3325  00E0  0800               	movf	0,w	;code access
  3326  00E1  3180  20F2  3180   	fcall	_UART_send_char
  3327  00E4                     l872:	
  3328  00E4  3001               	movlw	1
  3329  00E5  07F7               	addwf	UART_send_string@st_pt,f
  3330  00E6  3000               	movlw	0
  3331  00E7  3DF8               	addwfc	UART_send_string@st_pt+1,f
  3332  00E8                     l874:	
  3333  00E8  0877               	movf	UART_send_string@st_pt,w
  3334  00E9  0084               	movwf	4
  3335  00EA  0878               	movf	UART_send_string@st_pt+1,w
  3336  00EB  0085               	movwf	5
  3337  00EC  0012               	moviw fsr0++
  3338  00ED  1D03               	btfss	3,2
  3339  00EE  28F0               	goto	u181
  3340  00EF  28F1               	goto	u180
  3341  00F0                     u181:	
  3342  00F0  28DC               	goto	l870
  3343  00F1                     u180:	
  3344  00F1                     l100:	
  3345  00F1  0008               	return
  3346  00F2                     __end_of_UART_send_string:	
  3347                           
  3348                           	psect	text3
  3349  00F2                     __ptext3:	
  3350 ;; *************** function _UART_send_char *****************
  3351 ;; Defined at:
  3352 ;;		line 130 in file "main.c"
  3353 ;; Parameters:    Size  Location     Type
  3354 ;;  bt              1    wreg     unsigned char 
  3355 ;; Auto vars:     Size  Location     Type
  3356 ;;  bt              1    0[COMMON] unsigned char 
  3357 ;; Return value:  Size  Location     Type
  3358 ;;                  1    wreg      void 
  3359 ;; Registers used:
  3360 ;;		wreg
  3361 ;; Tracked objects:
  3362 ;;		On entry : 0/0
  3363 ;;		On exit  : 0/0
  3364 ;;		Unchanged: 0/0
  3365 ;; Data sizes:     COMMON   BANK0   BANK1   BANK2   BANK3   BANK4   BANK5   BANK6   BANK7   BANK8   BANK9  BANK10  BANK1
      +1  BANK12
  3366 ;;      Params:         0       0       0       0       0       0       0       0       0       0       0       0       
      +0       0
  3367 ;;      Locals:         1       0       0       0       0       0       0       0       0       0       0       0       
      +0       0
  3368 ;;      Temps:          0       0       0       0       0       0       0       0       0       0       0       0       
      +0       0
  3369 ;;      Totals:         1       0       0       0       0       0       0       0       0       0       0       0       
      +0       0
  3370 ;;Total ram usage:        1 bytes
  3371 ;; Hardware stack levels used:    1
  3372 ;; Hardware stack levels required when called:    1
  3373 ;; This function calls:
  3374 ;;		Nothing
  3375 ;; This function is called by:
  3376 ;;		_main
  3377 ;;		_UART_send_string
  3378 ;; This function uses a non-reentrant model
  3379 ;;
  3380                           
  3381                           
  3382                           ;psect for function _UART_send_char
  3383  00F2                     _UART_send_char:	
  3384                           
  3385                           ;incstack = 0
  3386                           ; Regs used in _UART_send_char: [wreg]
  3387                           ;UART_send_char@bt stored from wreg
  3388  00F2  00F6               	movwf	UART_send_char@bt
  3389  00F3                     l722:	
  3390  00F3                     l91:	
  3391                           ;main.c: 132: while(!TXIF);
  3392                           
  3393  00F3  0020               	movlb	0	; select bank0
  3394  00F4  1E11               	btfss	17,4	;volatile
  3395  00F5  28F7               	goto	u11
  3396  00F6  28F8               	goto	u10
  3397  00F7                     u11:	
  3398  00F7  28F3               	goto	l91
  3399  00F8                     u10:	
  3400  00F8                     l724:	
  3401                           
  3402                           ;main.c: 133: TXREG = bt;
  3403  00F8  0876               	movf	UART_send_char@bt,w
  3404  00F9  0023               	movlb	3	; select bank3
  3405  00FA  009A               	movwf	26	;volatile
  3406  00FB                     l94:	
  3407  00FB  0008               	return
  3408  00FC                     __end_of_UART_send_char:	
  3409                           
  3410                           	psect	text4
  3411  003B                     __ptext4:	
  3412 ;; *************** function _InitApp *****************
  3413 ;; Defined at:
  3414 ;;		line 22 in file "user.c"
  3415 ;; Parameters:    Size  Location     Type
  3416 ;;		None
  3417 ;; Auto vars:     Size  Location     Type
  3418 ;;		None
  3419 ;; Return value:  Size  Location     Type
  3420 ;;                  1    wreg      void 
  3421 ;; Registers used:
  3422 ;;		wreg, status,2, status,0
  3423 ;; Tracked objects:
  3424 ;;		On entry : 0/0
  3425 ;;		On exit  : 0/0
  3426 ;;		Unchanged: 0/0
  3427 ;; Data sizes:     COMMON   BANK0   BANK1   BANK2   BANK3   BANK4   BANK5   BANK6   BANK7   BANK8   BANK9  BANK10  BANK1
      +1  BANK12
  3428 ;;      Params:         0       0       0       0       0       0       0       0       0       0       0       0       
      +0       0
  3429 ;;      Locals:         0       0       0       0       0       0       0       0       0       0       0       0       
      +0       0
  3430 ;;      Temps:          0       0       0       0       0       0       0       0       0       0       0       0       
      +0       0
  3431 ;;      Totals:         0       0       0       0       0       0       0       0       0       0       0       0       
      +0       0
  3432 ;;Total ram usage:        0 bytes
  3433 ;; Hardware stack levels used:    1
  3434 ;; Hardware stack levels required when called:    1
  3435 ;; This function calls:
  3436 ;;		Nothing
  3437 ;; This function is called by:
  3438 ;;		_main
  3439 ;; This function uses a non-reentrant model
  3440 ;;
  3441                           
  3442                           
  3443                           ;psect for function _InitApp
  3444  003B                     _InitApp:	
  3445  003B                     l728:	
  3446                           ;incstack = 0
  3447                           ; Regs used in _InitApp: [wreg+status,2+status,0]
  3448                           
  3449                           
  3450                           ;user.c: 25: LATA=LATB=LATC= 0;
  3451  003B  0022               	movlb	2	; select bank2
  3452  003C  018E               	clrf	14	;volatile
  3453  003D  018D               	clrf	13	;volatile
  3454  003E  018C               	clrf	12	;volatile
  3455  003F                     l730:	
  3456                           
  3457                           ;user.c: 27: TRISAbits.TRISA0=1;
  3458  003F  0021               	movlb	1	; select bank1
  3459  0040  140C               	bsf	12,0	;volatile
  3460  0041                     l732:	
  3461                           
  3462                           ;user.c: 28: ANSELAbits.ANSA0=1;
  3463  0041  0023               	movlb	3	; select bank3
  3464  0042  140C               	bsf	12,0	;volatile
  3465  0043                     l734:	
  3466                           
  3467                           ;user.c: 29: WPUAbits.WPUA0 = 0;
  3468  0043  0024               	movlb	4	; select bank4
  3469  0044  100C               	bcf	12,0	;volatile
  3470  0045                     l736:	
  3471                           
  3472                           ;user.c: 32: TRISAbits.TRISA1=0;
  3473  0045  0021               	movlb	1	; select bank1
  3474  0046  108C               	bcf	12,1	;volatile
  3475  0047                     l738:	
  3476                           
  3477                           ;user.c: 33: ANSELAbits.ANSA1=1;
  3478  0047  0023               	movlb	3	; select bank3
  3479  0048  148C               	bsf	12,1	;volatile
  3480  0049                     l740:	
  3481                           
  3482                           ;user.c: 34: WPUAbits.WPUA1=0;
  3483  0049  0024               	movlb	4	; select bank4
  3484  004A  108C               	bcf	12,1	;volatile
  3485  004B                     l742:	
  3486                           
  3487                           ;user.c: 37: TRISCbits.TRISC7=1;
  3488  004B  0021               	movlb	1	; select bank1
  3489  004C  178E               	bsf	14,7	;volatile
  3490  004D                     l744:	
  3491                           
  3492                           ;user.c: 38: ANSELCbits.ANSC7=0;
  3493  004D  0023               	movlb	3	; select bank3
  3494  004E  138E               	bcf	14,7	;volatile
  3495  004F                     l746:	
  3496                           
  3497                           ;user.c: 39: WPUCbits.WPUC7=0;
  3498  004F  0024               	movlb	4	; select bank4
  3499  0050  138E               	bcf	14,7	;volatile
  3500  0051                     l748:	
  3501                           
  3502                           ;user.c: 40: RXPPS=010111;
  3503  0051  3049               	movlw	73
  3504  0052  003C               	movlb	28	; select bank28
  3505  0053  00BD               	movwf	61	;volatile
  3506  0054                     l750:	
  3507                           
  3508                           ;user.c: 43: TRISCbits.TRISC6=0;
  3509  0054  0021               	movlb	1	; select bank1
  3510  0055  130E               	bcf	14,6	;volatile
  3511  0056                     l752:	
  3512                           
  3513                           ;user.c: 44: ANSELCbits.ANSC6=0;
  3514  0056  0023               	movlb	3	; select bank3
  3515  0057  130E               	bcf	14,6	;volatile
  3516  0058                     l754:	
  3517                           
  3518                           ;user.c: 45: WPUCbits.WPUC6 = 0;
  3519  0058  0024               	movlb	4	; select bank4
  3520  0059  130E               	bcf	14,6	;volatile
  3521  005A                     l756:	
  3522                           
  3523                           ;user.c: 46: RC6PPS= 100100;
  3524  005A  3004               	movlw	4
  3525  005B  003D               	movlb	29	; select bank29
  3526  005C  00A6               	movwf	38	;volatile
  3527  005D                     l758:	
  3528                           
  3529                           ;user.c: 50: INTCONbits.GIE=1;
  3530  005D  178B               	bsf	11,7	;volatile
  3531  005E                     l760:	
  3532                           
  3533                           ;user.c: 51: INTCONbits.PEIE=1;
  3534  005E  170B               	bsf	11,6	;volatile
  3535  005F                     l762:	
  3536                           
  3537                           ;user.c: 52: PIE1bits.ADIE=1;
  3538  005F  0021               	movlb	1	; select bank1
  3539  0060  1711               	bsf	17,6	;volatile
  3540  0061                     l764:	
  3541                           
  3542                           ;user.c: 53: INTCONbits.TMR0IE=1;
  3543  0061  168B               	bsf	11,5	;volatile
  3544  0062                     l766:	
  3545                           
  3546                           ;user.c: 57: ADCON1bits.ADCS=0b011;
  3547  0062  0029               	movlb	9	; select bank9
  3548  0063  0811               	movf	17,w	;volatile
  3549  0064  398F               	andlw	-113
  3550  0065  3830               	iorlw	48
  3551  0066  0091               	movwf	17	;volatile
  3552  0067                     l768:	
  3553                           
  3554                           ;user.c: 58: ADCON1bits.ADPREF= 0;
  3555  0067  30FC               	movlw	-4
  3556  0068  0591               	andwf	17,f	;volatile
  3557  0069                     l770:	
  3558                           
  3559                           ;user.c: 59: ADCON1bits.ADNREF = 0;
  3560  0069  1111               	bcf	17,2	;volatile
  3561  006A                     l772:	
  3562                           
  3563                           ;user.c: 60: ADCON1bits.ADFM=1;
  3564  006A  1791               	bsf	17,7	;volatile
  3565  006B                     l774:	
  3566                           
  3567                           ;user.c: 61: ADCON0bits.CHS = 0;
  3568  006B  3003               	movlw	-253
  3569  006C  0590               	andwf	16,f	;volatile
  3570  006D                     l776:	
  3571                           
  3572                           ;user.c: 62: ADCON0bits.ADON=1;
  3573  006D  1410               	bsf	16,0	;volatile
  3574  006E                     l778:	
  3575                           
  3576                           ;user.c: 65: OPTION_REGbits.PSA=0;
  3577  006E  0021               	movlb	1	; select bank1
  3578  006F  1197               	bcf	23,3	;volatile
  3579  0070                     l780:	
  3580                           
  3581                           ;user.c: 66: OPTION_REGbits.T0CS=0;
  3582  0070  1297               	bcf	23,5	;volatile
  3583  0071                     l782:	
  3584                           
  3585                           ;user.c: 67: OPTION_REGbits.PS=101;
  3586  0071  0817               	movf	23,w	;volatile
  3587  0072  39F8               	andlw	-8
  3588  0073  3805               	iorlw	5
  3589  0074  0097               	movwf	23	;volatile
  3590  0075                     l784:	
  3591                           
  3592                           ;user.c: 72: BAUD1CONbits.BRG16= 0;
  3593  0075  0023               	movlb	3	; select bank3
  3594  0076  119F               	bcf	31,3	;volatile
  3595  0077                     l786:	
  3596                           
  3597                           ;user.c: 73: TX1STAbits.BRGH= 0;
  3598  0077  111E               	bcf	30,2	;volatile
  3599  0078                     l788:	
  3600                           
  3601                           ;user.c: 74: TX1STAbits.SYNC= 0;
  3602  0078  121E               	bcf	30,4	;volatile
  3603  0079                     l790:	
  3604                           
  3605                           ;user.c: 76: SP1BRG = 25;
  3606  0079  3000               	movlw	0
  3607  007A  009C               	movwf	28	;volatile
  3608  007B  3019               	movlw	25
  3609  007C  009B               	movwf	27	;volatile
  3610  007D                     l792:	
  3611                           
  3612                           ;user.c: 78: RC1STAbits.SPEN=1;
  3613  007D  179D               	bsf	29,7	;volatile
  3614  007E                     l794:	
  3615                           
  3616                           ;user.c: 79: TX1STAbits.TX9=0;
  3617  007E  131E               	bcf	30,6	;volatile
  3618  007F                     l796:	
  3619                           
  3620                           ;user.c: 80: TX1STAbits.TXEN=1;
  3621  007F  169E               	bsf	30,5	;volatile
  3622  0080                     l798:	
  3623                           
  3624                           ;user.c: 83: RC1STAbits.CREN=1;
  3625  0080  161D               	bsf	29,4	;volatile
  3626  0081                     l148:	
  3627  0081  0008               	return
  3628  0082                     __end_of_InitApp:	
  3629                           
  3630                           	psect	text5
  3631  00FC                     __ptext5:	
  3632 ;; *************** function _ConfigureOscillator *****************
  3633 ;; Defined at:
  3634 ;;		line 18 in file "system.c"
  3635 ;; Parameters:    Size  Location     Type
  3636 ;;		None
  3637 ;; Auto vars:     Size  Location     Type
  3638 ;;		None
  3639 ;; Return value:  Size  Location     Type
  3640 ;;                  1    wreg      void 
  3641 ;; Registers used:
  3642 ;;		wreg, status,2, status,0
  3643 ;; Tracked objects:
  3644 ;;		On entry : 0/0
  3645 ;;		On exit  : 0/0
  3646 ;;		Unchanged: 0/0
  3647 ;; Data sizes:     COMMON   BANK0   BANK1   BANK2   BANK3   BANK4   BANK5   BANK6   BANK7   BANK8   BANK9  BANK10  BANK1
      +1  BANK12
  3648 ;;      Params:         0       0       0       0       0       0       0       0       0       0       0       0       
      +0       0
  3649 ;;      Locals:         0       0       0       0       0       0       0       0       0       0       0       0       
      +0       0
  3650 ;;      Temps:          0       0       0       0       0       0       0       0       0       0       0       0       
      +0       0
  3651 ;;      Totals:         0       0       0       0       0       0       0       0       0       0       0       0       
      +0       0
  3652 ;;Total ram usage:        0 bytes
  3653 ;; Hardware stack levels used:    1
  3654 ;; Hardware stack levels required when called:    1
  3655 ;; This function calls:
  3656 ;;		Nothing
  3657 ;; This function is called by:
  3658 ;;		_main
  3659 ;; This function uses a non-reentrant model
  3660 ;;
  3661                           
  3662                           
  3663                           ;psect for function _ConfigureOscillator
  3664  00FC                     _ConfigureOscillator:	
  3665  00FC                     l726:	
  3666                           ;incstack = 0
  3667                           ; Regs used in _ConfigureOscillator: [wreg+status,2+status,0]
  3668                           
  3669                           
  3670                           ;system.c: 21: OSCCONbits.IRCF= 1111;
  3671  00FC  0021               	movlb	1	; select bank1
  3672  00FD  081B               	movf	27,w	;volatile
  3673  00FE  3987               	andlw	-121
  3674  00FF  3838               	iorlw	56
  3675  0100  009B               	movwf	27	;volatile
  3676                           
  3677                           ;system.c: 22: OSCCONbits.SCS= 0b11;
  3678  0101  3003               	movlw	3
  3679  0102  049B               	iorwf	27,f	;volatile
  3680  0103                     l105:	
  3681  0103  0008               	return
  3682  0104                     __end_of_ConfigureOscillator:	
  3683                           
  3684                           	psect	intentry
  3685  0004                     __pintentry:	
  3686 ;; *************** function _isr *****************
  3687 ;; Defined at:
  3688 ;;		line 25 in file "interrupts.c"
  3689 ;; Parameters:    Size  Location     Type
  3690 ;;		None
  3691 ;; Auto vars:     Size  Location     Type
  3692 ;;		None
  3693 ;; Return value:  Size  Location     Type
  3694 ;;                  1    wreg      void 
  3695 ;; Registers used:
  3696 ;;		wreg, status,2, status,0
  3697 ;; Tracked objects:
  3698 ;;		On entry : 0/0
  3699 ;;		On exit  : 0/0
  3700 ;;		Unchanged: 0/0
  3701 ;; Data sizes:     COMMON   BANK0   BANK1   BANK2   BANK3   BANK4   BANK5   BANK6   BANK7   BANK8   BANK9  BANK10  BANK1
      +1  BANK12
  3702 ;;      Params:         0       0       0       0       0       0       0       0       0       0       0       0       
      +0       0
  3703 ;;      Locals:         0       0       0       0       0       0       0       0       0       0       0       0       
      +0       0
  3704 ;;      Temps:          0       0       0       0       0       0       0       0       0       0       0       0       
      +0       0
  3705 ;;      Totals:         0       0       0       0       0       0       0       0       0       0       0       0       
      +0       0
  3706 ;;Total ram usage:        0 bytes
  3707 ;; Hardware stack levels used:    1
  3708 ;; This function calls:
  3709 ;;		Nothing
  3710 ;; This function is called by:
  3711 ;;		Interrupt level 1
  3712 ;; This function uses a non-reentrant model
  3713 ;;
  3714                           
  3715  0004                     _isr:	
  3716                           
  3717                           ;incstack = 0
  3718  0004  147E               	bsf	int$flags,0	;set compiler interrupt flag (level 1)
  3719                           
  3720                           ; Regs used in _isr: [wreg+status,2+status,0]
  3721  0005  3180               	pagesel	$
  3722  0006                     i1l820:	
  3723                           
  3724                           ;interrupts.c: 34: if (INTCONbits.TMR0IF==1){
  3725  0006  1D0B               	btfss	11,2	;volatile
  3726  0007  2809               	goto	u7_21
  3727  0008  280A               	goto	u7_20
  3728  0009                     u7_21:	
  3729  0009  2811               	goto	i1l826
  3730  000A                     u7_20:	
  3731  000A                     i1l822:	
  3732                           
  3733                           ;interrupts.c: 35: band_aux = band_aux + 1;
  3734  000A  087A               	movf	_band_aux,w
  3735  000B  3E01               	addlw	1
  3736  000C  00FA               	movwf	_band_aux
  3737  000D  3000               	movlw	0
  3738  000E  3D7B               	addwfc	_band_aux+1,w
  3739  000F  00FB               	movwf	_band_aux+1
  3740  0010                     i1l824:	
  3741                           
  3742                           ;interrupts.c: 36: INTCONbits.TMR0IF=0;
  3743  0010  110B               	bcf	11,2	;volatile
  3744  0011                     i1l826:	
  3745                           
  3746                           ;interrupts.c: 37: };interrupts.c: 42: if (PIR1bits.ADIF==1){
  3747  0011  0020               	movlb	0	; select bank0
  3748  0012  1F11               	btfss	17,6	;volatile
  3749  0013  2815               	goto	u8_21
  3750  0014  2816               	goto	u8_20
  3751  0015                     u8_21:	
  3752  0015  281D               	goto	i1l17
  3753  0016                     u8_20:	
  3754  0016                     i1l828:	
  3755                           
  3756                           ;interrupts.c: 43: AD_almacenado= ADRES;
  3757  0016  0029               	movlb	9	; select bank9
  3758  0017  080F               	movf	15,w	;volatile
  3759  0018  00F5               	movwf	_AD_almacenado+1
  3760  0019  080E               	movf	14,w	;volatile
  3761  001A  00F4               	movwf	_AD_almacenado
  3762  001B                     i1l830:	
  3763                           
  3764                           ;interrupts.c: 44: PIR1bits.ADIF=0;
  3765  001B  0020               	movlb	0	; select bank0
  3766  001C  1311               	bcf	17,6	;volatile
  3767  001D                     i1l17:	
  3768  001D  107E               	bcf	int$flags,0	;clear compiler interrupt flag (level 1)
  3769  001E  0009               	retfie
  3770  001F                     __end_of_isr:	
  3771  007E                     btemp	set	126	;btemp
  3772  007E                     int$flags	set	126
  3773  007E                     wtemp0	set	126


Data Sizes:
    Strings     5
    Constant    2
    Data        2
    BSS         35
    Persistent  32
    Stack       0

Auto Spaces:
    Space          Size  Autos    Used
    COMMON           14      4      12
    BANK0            80      0      29
    BANK1            80      0       0
    BANK2            80      0       0
    BANK3            80      0       0
    BANK4            80      0       0
    BANK5            80      0       0
    BANK6            80      0       0
    BANK7            80      0       0
    BANK8            80      0       0
    BANK9            80      0       0
    BANK10           80      0       0
    BANK11           80      0       0
    BANK12           48      0       0

Pointer List with Targets:

    UART_send_string@st_pt	PTR unsigned char  size(2) Largest target is 5
		 -> STR_1(CODE[5]), 

    enviarTrama@datos	PTR unsigned char  size(2) Largest target is 2
		 -> mensaje(CODE[2]), 


Critical Paths under _main in COMMON

    _main->_UART_send_string
    _UART_send_string->_UART_send_char

Critical Paths under _isr in COMMON

    None.

Critical Paths under _main in BANK0

    None.

Critical Paths under _isr in BANK0

    None.

Critical Paths under _main in BANK1

    None.

Critical Paths under _isr in BANK1

    None.

Critical Paths under _main in BANK2

    None.

Critical Paths under _isr in BANK2

    None.

Critical Paths under _main in BANK3

    None.

Critical Paths under _isr in BANK3

    None.

Critical Paths under _main in BANK4

    None.

Critical Paths under _isr in BANK4

    None.

Critical Paths under _main in BANK5

    None.

Critical Paths under _isr in BANK5

    None.

Critical Paths under _main in BANK6

    None.

Critical Paths under _isr in BANK6

    None.

Critical Paths under _main in BANK7

    None.

Critical Paths under _isr in BANK7

    None.

Critical Paths under _main in BANK8

    None.

Critical Paths under _isr in BANK8

    None.

Critical Paths under _main in BANK9

    None.

Critical Paths under _isr in BANK9

    None.

Critical Paths under _main in BANK10

    None.

Critical Paths under _isr in BANK10

    None.

Critical Paths under _main in BANK11

    None.

Critical Paths under _isr in BANK11

    None.

Critical Paths under _main in BANK12

    None.

Critical Paths under _isr in BANK12

    None.

Call Graph Tables:

 ---------------------------------------------------------------------------------
 (Depth) Function   	        Calls       Base Space   Used Autos Params    Refs
 ---------------------------------------------------------------------------------
 (0) _main                                                 0     0      0     272
                _ConfigureOscillator
                            _InitApp
                     _UART_send_char
                   _UART_send_string
                        _enviarTrama
 ---------------------------------------------------------------------------------
 (1) _enviarTrama                                          3     1      2     121
                                              0 COMMON     3     1      2
 ---------------------------------------------------------------------------------
 (1) _UART_send_string                                     3     1      2     136
                                              1 COMMON     3     1      2
                     _UART_send_char
 ---------------------------------------------------------------------------------
 (2) _UART_send_char                                       1     1      0      15
                                              0 COMMON     1     1      0
 ---------------------------------------------------------------------------------
 (1) _InitApp                                              0     0      0       0
 ---------------------------------------------------------------------------------
 (1) _ConfigureOscillator                                  0     0      0       0
 ---------------------------------------------------------------------------------
 Estimated maximum stack depth 2
 ---------------------------------------------------------------------------------
 (Depth) Function   	        Calls       Base Space   Used Autos Params    Refs
 ---------------------------------------------------------------------------------
 (3) _isr                                                  0     0      0       0
 ---------------------------------------------------------------------------------
 Estimated maximum stack depth 3
 ---------------------------------------------------------------------------------

 Call Graph Graphs:

 _main (ROOT)
   _ConfigureOscillator
   _InitApp
   _UART_send_char
   _UART_send_string
     _UART_send_char
   _enviarTrama

 _isr (ROOT)

 Address spaces:
Name               Size   Autos  Total    Cost      Usage
BIGRAM             3F0      0       0       0        0.0%
NULL                 0      0       0       0        0.0%
CODE                 0      0       0       0        0.0%
BITCOMMON            E      0       0       1        0.0%
BITSFR0              0      0       0       1        0.0%
SFR0                 0      0       0       1        0.0%
COMMON               E      4       C       2       85.7%
BITSFR1              0      0       0       2        0.0%
SFR1                 0      0       0       2        0.0%
BITSFR2              0      0       0       3        0.0%
SFR2                 0      0       0       3        0.0%
STACK                0      0       0       3        0.0%
BITBANK0            50      0       0       4        0.0%
BITSFR3              0      0       0       4        0.0%
SFR3                 0      0       0       4        0.0%
BANK0               50      0      1D       5       36.3%
BITSFR4              0      0       0       5        0.0%
SFR4                 0      0       0       5        0.0%
BITBANK1            50      0       0       6        0.0%
BITSFR5              0      0       0       6        0.0%
SFR5                 0      0       0       6        0.0%
BANK1               50      0       0       7        0.0%
BITSFR6              0      0       0       7        0.0%
SFR6                 0      0       0       7        0.0%
BITBANK2            50      0       0       8        0.0%
BITSFR7              0      0       0       8        0.0%
SFR7                 0      0       0       8        0.0%
BANK2               50      0       0       9        0.0%
BITSFR8              0      0       0       9        0.0%
SFR8                 0      0       0       9        0.0%
BITBANK3            50      0       0      10        0.0%
BITSFR9              0      0       0      10        0.0%
SFR9                 0      0       0      10        0.0%
BANK3               50      0       0      11        0.0%
BITSFR10             0      0       0      11        0.0%
SFR10                0      0       0      11        0.0%
BITBANK4            50      0       0      12        0.0%
BITSFR11             0      0       0      12        0.0%
SFR11                0      0       0      12        0.0%
BANK4               50      0       0      13        0.0%
BITSFR12             0      0       0      13        0.0%
SFR12                0      0       0      13        0.0%
BITBANK5            50      0       0      14        0.0%
BITSFR13             0      0       0      14        0.0%
SFR13                0      0       0      14        0.0%
BANK5               50      0       0      15        0.0%
BITSFR14             0      0       0      15        0.0%
SFR14                0      0       0      15        0.0%
BITBANK6            50      0       0      16        0.0%
BITSFR15             0      0       0      16        0.0%
SFR15                0      0       0      16        0.0%
BANK6               50      0       0      17        0.0%
BITSFR16             0      0       0      17        0.0%
SFR16                0      0       0      17        0.0%
BITBANK7            50      0       0      18        0.0%
BITSFR17             0      0       0      18        0.0%
SFR17                0      0       0      18        0.0%
BANK7               50      0       0      19        0.0%
BITSFR18             0      0       0      19        0.0%
SFR18                0      0       0      19        0.0%
BITSFR19             0      0       0      20        0.0%
SFR19                0      0       0      20        0.0%
ABS                  0      0      29      20        0.0%
BITBANK8            50      0       0      21        0.0%
BITSFR20             0      0       0      21        0.0%
SFR20                0      0       0      21        0.0%
BANK8               50      0       0      22        0.0%
BITSFR21             0      0       0      22        0.0%
SFR21                0      0       0      22        0.0%
BITBANK9            50      0       0      23        0.0%
BITSFR22             0      0       0      23        0.0%
SFR22                0      0       0      23        0.0%
BANK9               50      0       0      24        0.0%
BITSFR23             0      0       0      24        0.0%
SFR23                0      0       0      24        0.0%
BITBANK10           50      0       0      25        0.0%
BITSFR24             0      0       0      25        0.0%
SFR24                0      0       0      25        0.0%
BANK10              50      0       0      26        0.0%
BITSFR25             0      0       0      26        0.0%
SFR25                0      0       0      26        0.0%
BITBANK11           50      0       0      27        0.0%
BITSFR26             0      0       0      27        0.0%
SFR26                0      0       0      27        0.0%
BANK11              50      0       0      28        0.0%
BITSFR27             0      0       0      28        0.0%
SFR27                0      0       0      28        0.0%
BITBANK12           30      0       0      29        0.0%
BITSFR28             0      0       0      29        0.0%
SFR28                0      0       0      29        0.0%
BANK12              30      0       0      30        0.0%
BITSFR29             0      0       0      30        0.0%
SFR29                0      0       0      30        0.0%
BITSFR30             0      0       0      31        0.0%
SFR30                0      0       0      31        0.0%
DATA                 0      0      29      31        0.0%
BITSFR31             0      0       0      32        0.0%
SFR31                0      0       0      32        0.0%


Microchip Technology PIC Macro Assembler V2.10 build 88905656 
Symbol Table                                                                                   Mon Jan 27 17:35:16 2020

                 __CFG_CP$OFF 0000                            l82 00D0                            l91 00F3  
                          l85 00D6                            l94 00FB                            l78 00BC  
                          l88 00DA                            u10 00F8                            u11 00F7  
                         l100 00F1                           l105 0103                           l148 0081  
                         l730 003F                           l722 00F3                           l740 0049  
                         l732 0041                           l724 00F8                           l726 00FC  
                         l750 0054                           l742 004B                           l734 0043  
                         l760 005E                           l752 0056                           l744 004D  
                         l736 0045                           l728 003B                           l770 0069  
                         l762 005F                           l754 0058                           l746 004F  
                         l738 0047                           l780 0070                           l772 006A  
                         l764 0061                           l756 005A                           l748 0051  
                         l860 00C0                           l790 0079                           l782 0071  
                         l774 006B                           l766 0062                           l758 005D  
                         l870 00DC                           l862 00C4                           l792 007D  
                         l784 0075                           l776 006D                           l768 0067  
                         l872 00E4                           l864 00CD                           l856 00B4  
                         l880 008F                           l794 007E                           l786 0077  
                         l778 006E                           l874 00E8                           l866 00D4  
                         l858 00B5                           l890 00AD                           l882 0096  
                         l796 007F                           l788 0078                           l868 00DB  
                         l884 0098                           l876 0082                           l798 0080  
                         l886 009A                           l878 0088                           l888 00A6  
                         u200 00A4                           u201 00A1                           u140 00C0  
                         u141 00BF                           u150 00CD                           u214 00A6  
                         u151 00CC                           u160 00D4                           u161 00D3  
                         u170 00DA                           u171 00D9                           u180 00F1  
                         u181 00F0                           u190 0096                           u191 0095  
                         _isr 0004                  __CFG_BORV$LO 0000                           wreg 0009  
                _BAUD1CONbits 019F                  __CFG_LVP$OFF 0000                  __CFG_ZCD$OFF 0000  
                        ?_isr 0076                          STR_1 0106                          _CREN 0CEC  
                        _LATA 010C                          _LATB 010D                          _LATC 010E  
                        i1l17 001D                          _RCIF 008D                          _OERR 0CE9  
                        _TXIF 008C                          u7_20 000A                          u7_21 0009  
                        u8_20 0016                          u8_21 0015                  __CFG_WRT$OFF 0000  
                        _main 0082                          _temp 0039                          fsr0h 0005  
                        indf0 0000                          fsr0l 0004                          btemp 007E  
                ?_enviarTrama 0076                          start 001F                 __CFG_IESO$OFF 0000  
               __CFG_MCLRE$ON 0000               __end_of_InitApp 0082     __size_of_UART_send_string 0017  
                       ??_isr 0076                         ?_main 0076                         _ADRES 048E  
               __CFG_WDTE$OFF 0000                         i1l820 0006                         i1l830 001B  
                       i1l822 000A                         i1l824 0010                         i1l826 0011  
                       i1l828 0016                         _RCREG 0199                         _RXPPS 0E3D  
                       _TXREG 019A           _ConfigureOscillator 00FC                __CFG_FCMEN$OFF 0000  
             __end_of_mensaje 0106                __CFG_BOREN$OFF 0000                         status 0003  
                       wtemp0 007E          ?_ConfigureOscillator 0076               __initialization 0021  
                __end_of_main 00B4                __CFG_LPBOR$OFF 0000                        ??_main 007A  
              __CFG_PLLEN$OFF 0000                        _RC6PPS 0EA6                        _SP1BRG 019B  
                      _TX1REG 019A                     ??_InitApp 0076         ??_ConfigureOscillator 0076  
              __CFG_PWRTE$OFF 0000                        _salida 0020                  __pdataCOMMON 007A  
     __end_of__initialization 0037          __size_of_enviarTrama 0027                __pcstackCOMMON 0076  
            _UART_send_string 00DB                _OPTION_REGbits 0097                    __pbssBANK0 0020  
                  __pmaintext 0082               __CFG_PPS1WAY$ON 0000                    __pintentry 0004  
     __size_of_UART_send_char 000A                       _InitApp 003B               __CFG_STVREN$OFF 0000  
                     __ptext1 00B4                       __ptext2 00DB                       __ptext3 00F2  
                     __ptext4 003B                       __ptext5 00FC                  __size_of_isr 001B  
                     _mensaje 0104                       clrloop0 010C          end_of_initialization 0037  
            __CFG_FOSC$INTOSC 0000                     _TRISAbits 008C                     _TRISCbits 008E  
    __end_of_UART_send_string 00F2   __end_of_ConfigureOscillator 0104                 __pidataCOMMON 0111  
         start_initialization 0021                _UART_send_char 00F2                   __end_of_isr 001F  
               ??_enviarTrama 0078        __end_of_UART_send_char 00FC                   __pbssCOMMON 0070  
                   ___latbits 0002                      ?_InitApp 0076           __end_of_enviarTrama 00DB  
            UART_send_char@bt 0076               ?_UART_send_char 0076                      _LATAbits 010C  
                   clear_ram0 010B                      _PIE1bits 0091                      _PIR1bits 0011  
                  _ADCON0bits 0490                    _ADCON1bits 0491         UART_send_string@st_pt 0077  
                    _WPUAbits 020C                      _WPUCbits 020E             ?_UART_send_string 0077  
          ??_UART_send_string 0079                   _enviarTrama 00B4              __size_of_InitApp 0047  
                  _ANSELAbits 018C                    _ANSELCbits 018E                      _band_aux 007A  
            enviarTrama@datos 0076                 __size_of_main 0032  __size_of_ConfigureOscillator 0008  
                  _RC1STAbits 019D                      _v_sensor 0070                      int$flags 007E  
                  _INTCONbits 000B                 _AD_almacenado 0074                      intlevel1 0000  
           __CFG_CLKOUTEN$OFF 0000                    _OSCCONbits 009B              ??_UART_send_char 0076  
               __pstringtext1 0104                 __pstringtext2 0000                    _TX1STAbits 019E  
