

Microchip MPLAB XC8 Assembler V2.10 build 88905656 
                                                                                               Fri Feb 07 15:42:16 2020

Microchip MPLAB XC8 C Compiler v2.10 (Free license) build 20190730164152 Og1 
     1                           	processor	16F1773
     2                           	opt	pw 120
     3                           	opt	flic
     4                           	psect	stringtext1,global,class=STRCODE,delta=2
     5                           	psect	stringtext2,global,class=STRCODE,delta=2
     6                           	psect	nvBANK0,global,class=BANK0,space=1,delta=1
     7                           	psect	stringtext3,global,class=STRCODE,delta=2
     8                           	psect	stringtext4,global,class=STRCODE,delta=2
     9                           	psect	cinit,global,class=CODE,merge=1,delta=2
    10                           	psect	bssCOMMON,global,class=COMMON,space=1,delta=1
    11                           	psect	bssBANK0,global,class=BANK0,space=1,delta=1
    12                           	psect	bssBANK1,global,class=BANK1,space=1,delta=1
    13                           	psect	clrtext,global,class=CODE,delta=2
    14                           	psect	cstackCOMMON,global,class=COMMON,space=1,delta=1
    15                           	psect	maintext,global,class=CODE,merge=1,split=1,delta=2
    16                           	psect	text1,local,class=CODE,merge=1,delta=2,group=2
    17                           	psect	text2,local,class=CODE,merge=1,delta=2
    18                           	psect	text3,local,class=CODE,merge=1,delta=2
    19                           	psect	intentry,global,class=CODE,delta=2
    20                           	dabs	1,0x7E,2
    21  0000                     
    22                           ; Version 2.10
    23                           ; Generated 31/07/2019 GMT
    24                           ; 
    25                           ; Copyright © 2019, Microchip Technology Inc. and its subsidiaries ("Microchip")
    26                           ; All rights reserved.
    27                           ; 
    28                           ; This software is developed by Microchip Technology Inc. and its subsidiaries ("Microch
      +                          ip").
    29                           ; 
    30                           ; Redistribution and use in source and binary forms, with or without modification, are
    31                           ; permitted provided that the following conditions are met:
    32                           ; 
    33                           ;     1. Redistributions of source code must retain the above copyright notice, this lis
      +                          t of
    34                           ;        conditions and the following disclaimer.
    35                           ; 
    36                           ;     2. Redistributions in binary form must reproduce the above copyright notice, this 
      +                          list
    37                           ;        of conditions and the following disclaimer in the documentation and/or other
    38                           ;        materials provided with the distribution.
    39                           ; 
    40                           ;     3. Microchip's name may not be used to endorse or promote products derived from th
      +                          is
    41                           ;        software without specific prior written permission.
    42                           ; 
    43                           ; THIS SOFTWARE IS PROVIDED BY MICROCHIP "AS IS" AND ANY EXPRESS OR IMPLIED WARRANTIES,
    44                           ; INCLUDING, BUT NOT LIMITED TO, THE IMPLIED WARRANTIES OF MERCHANTABILITY AND FITNESS F
      +                          OR
    45                           ; PURPOSE ARE DISCLAIMED.  IN NO EVENT SHALL MICROCHIP BE LIABLE FOR ANY DIRECT, INDIREC
      +                          T,
    46                           ; INCIDENTAL, SPECIAL, EXEMPLARY, OR CONSEQUENTIAL DAMAGES (INCLUDING BUT NOT LIMITED TO
    47                           ; PROCUREMENT OF SUBSTITUTE GOODS OR SERVICES; LOSS OF USE, DATA OR PROFITS; OR BUSINESS
    48                           ; INTERRUPTION) HOWSOEVER CAUSED AND ON ANY THEORY OF LIABILITY, WHETHER IN CONTRACT, ST
      +                          RICT
    49                           ; LIABILITY, OR TORT (INCLUDING NEGLIGENCE OR OTHERWISE) ARISING IN ANY WAY OUT OF THE U
      +                          SE OF
    50                           ; THIS SOFTWARE, EVEN IF ADVISED OF THE POSSIBILITY OF SUCH DAMAGE.
    51                           ; 
    52                           ; 
    53                           ; Code-generator required, PIC16F1773 Definitions
    54                           ; 
    55                           ; SFR Addresses
    56  0000                     	;# 
    57  0001                     	;# 
    58  0002                     	;# 
    59  0003                     	;# 
    60  0004                     	;# 
    61  0005                     	;# 
    62  0006                     	;# 
    63  0007                     	;# 
    64  0008                     	;# 
    65  0009                     	;# 
    66  000A                     	;# 
    67  000B                     	;# 
    68  000C                     	;# 
    69  000D                     	;# 
    70  000E                     	;# 
    71  0010                     	;# 
    72  0011                     	;# 
    73  0012                     	;# 
    74  0013                     	;# 
    75  0014                     	;# 
    76  0015                     	;# 
    77  0016                     	;# 
    78  0017                     	;# 
    79  0018                     	;# 
    80  0018                     	;# 
    81  0019                     	;# 
    82  001A                     	;# 
    83  001B                     	;# 
    84  001C                     	;# 
    85  001C                     	;# 
    86  001D                     	;# 
    87  001E                     	;# 
    88  001F                     	;# 
    89  008C                     	;# 
    90  008D                     	;# 
    91  008E                     	;# 
    92  0090                     	;# 
    93  0091                     	;# 
    94  0092                     	;# 
    95  0093                     	;# 
    96  0094                     	;# 
    97  0095                     	;# 
    98  0096                     	;# 
    99  0097                     	;# 
   100  0098                     	;# 
   101  0099                     	;# 
   102  009A                     	;# 
   103  009B                     	;# 
   104  009C                     	;# 
   105  009D                     	;# 
   106  009E                     	;# 
   107  009F                     	;# 
   108  010C                     	;# 
   109  010D                     	;# 
   110  010E                     	;# 
   111  0111                     	;# 
   112  0112                     	;# 
   113  0113                     	;# 
   114  0114                     	;# 
   115  0115                     	;# 
   116  0116                     	;# 
   117  0117                     	;# 
   118  0118                     	;# 
   119  0119                     	;# 
   120  011A                     	;# 
   121  011B                     	;# 
   122  011C                     	;# 
   123  011D                     	;# 
   124  018C                     	;# 
   125  018D                     	;# 
   126  018E                     	;# 
   127  0191                     	;# 
   128  0191                     	;# 
   129  0192                     	;# 
   130  0193                     	;# 
   131  0193                     	;# 
   132  0194                     	;# 
   133  0195                     	;# 
   134  0196                     	;# 
   135  0197                     	;# 
   136  0199                     	;# 
   137  0199                     	;# 
   138  0199                     	;# 
   139  019A                     	;# 
   140  019A                     	;# 
   141  019A                     	;# 
   142  019B                     	;# 
   143  019B                     	;# 
   144  019B                     	;# 
   145  019B                     	;# 
   146  019B                     	;# 
   147  019C                     	;# 
   148  019C                     	;# 
   149  019C                     	;# 
   150  019D                     	;# 
   151  019D                     	;# 
   152  019D                     	;# 
   153  019E                     	;# 
   154  019E                     	;# 
   155  019E                     	;# 
   156  019F                     	;# 
   157  019F                     	;# 
   158  019F                     	;# 
   159  019F                     	;# 
   160  019F                     	;# 
   161  020C                     	;# 
   162  020D                     	;# 
   163  020E                     	;# 
   164  0210                     	;# 
   165  0211                     	;# 
   166  0211                     	;# 
   167  0212                     	;# 
   168  0212                     	;# 
   169  0213                     	;# 
   170  0213                     	;# 
   171  0214                     	;# 
   172  0214                     	;# 
   173  0215                     	;# 
   174  0215                     	;# 
   175  0215                     	;# 
   176  0215                     	;# 
   177  0216                     	;# 
   178  0216                     	;# 
   179  0217                     	;# 
   180  0217                     	;# 
   181  021B                     	;# 
   182  021C                     	;# 
   183  021D                     	;# 
   184  021E                     	;# 
   185  021F                     	;# 
   186  028C                     	;# 
   187  028D                     	;# 
   188  028E                     	;# 
   189  0291                     	;# 
   190  0291                     	;# 
   191  0292                     	;# 
   192  0293                     	;# 
   193  0294                     	;# 
   194  0295                     	;# 
   195  0295                     	;# 
   196  0296                     	;# 
   197  0297                     	;# 
   198  0298                     	;# 
   199  0299                     	;# 
   200  0299                     	;# 
   201  029A                     	;# 
   202  029B                     	;# 
   203  029C                     	;# 
   204  029E                     	;# 
   205  029F                     	;# 
   206  030C                     	;# 
   207  030D                     	;# 
   208  030E                     	;# 
   209  0315                     	;# 
   210  0316                     	;# 
   211  0317                     	;# 
   212  0318                     	;# 
   213  0319                     	;# 
   214  031B                     	;# 
   215  031C                     	;# 
   216  031D                     	;# 
   217  031E                     	;# 
   218  031F                     	;# 
   219  038C                     	;# 
   220  038D                     	;# 
   221  038E                     	;# 
   222  0390                     	;# 
   223  0391                     	;# 
   224  0392                     	;# 
   225  0393                     	;# 
   226  0394                     	;# 
   227  0395                     	;# 
   228  0396                     	;# 
   229  0397                     	;# 
   230  0398                     	;# 
   231  0399                     	;# 
   232  039D                     	;# 
   233  039E                     	;# 
   234  039F                     	;# 
   235  040D                     	;# 
   236  040F                     	;# 
   237  040F                     	;# 
   238  0410                     	;# 
   239  0411                     	;# 
   240  0412                     	;# 
   241  0413                     	;# 
   242  0413                     	;# 
   243  0414                     	;# 
   244  0414                     	;# 
   245  0415                     	;# 
   246  0416                     	;# 
   247  0417                     	;# 
   248  0418                     	;# 
   249  041A                     	;# 
   250  041A                     	;# 
   251  041B                     	;# 
   252  041B                     	;# 
   253  041C                     	;# 
   254  041D                     	;# 
   255  041E                     	;# 
   256  041F                     	;# 
   257  048E                     	;# 
   258  048E                     	;# 
   259  048F                     	;# 
   260  0490                     	;# 
   261  0491                     	;# 
   262  0492                     	;# 
   263  0493                     	;# 
   264  0493                     	;# 
   265  0494                     	;# 
   266  0494                     	;# 
   267  0495                     	;# 
   268  0496                     	;# 
   269  0497                     	;# 
   270  0498                     	;# 
   271  049A                     	;# 
   272  049A                     	;# 
   273  049B                     	;# 
   274  049B                     	;# 
   275  049C                     	;# 
   276  049D                     	;# 
   277  049E                     	;# 
   278  049F                     	;# 
   279  050F                     	;# 
   280  0510                     	;# 
   281  0511                     	;# 
   282  0512                     	;# 
   283  0513                     	;# 
   284  0514                     	;# 
   285  0515                     	;# 
   286  0516                     	;# 
   287  0517                     	;# 
   288  0518                     	;# 
   289  0519                     	;# 
   290  051A                     	;# 
   291  058D                     	;# 
   292  058E                     	;# 
   293  058F                     	;# 
   294  058F                     	;# 
   295  058F                     	;# 
   296  0590                     	;# 
   297  0590                     	;# 
   298  0591                     	;# 
   299  0592                     	;# 
   300  0592                     	;# 
   301  0592                     	;# 
   302  0593                     	;# 
   303  0593                     	;# 
   304  0594                     	;# 
   305  0595                     	;# 
   306  0595                     	;# 
   307  0596                     	;# 
   308  0597                     	;# 
   309  0597                     	;# 
   310  0598                     	;# 
   311  0599                     	;# 
   312  0599                     	;# 
   313  0599                     	;# 
   314  059A                     	;# 
   315  059A                     	;# 
   316  059E                     	;# 
   317  059F                     	;# 
   318  059F                     	;# 
   319  0614                     	;# 
   320  0614                     	;# 
   321  0615                     	;# 
   322  0616                     	;# 
   323  0617                     	;# 
   324  0617                     	;# 
   325  0618                     	;# 
   326  0619                     	;# 
   327  061A                     	;# 
   328  061A                     	;# 
   329  061B                     	;# 
   330  061C                     	;# 
   331  068D                     	;# 
   332  068E                     	;# 
   333  068F                     	;# 
   334  0690                     	;# 
   335  0691                     	;# 
   336  0692                     	;# 
   337  0693                     	;# 
   338  0694                     	;# 
   339  0695                     	;# 
   340  0696                     	;# 
   341  0697                     	;# 
   342  0698                     	;# 
   343  0699                     	;# 
   344  069A                     	;# 
   345  069B                     	;# 
   346  069C                     	;# 
   347  069D                     	;# 
   348  069E                     	;# 
   349  069F                     	;# 
   350  070D                     	;# 
   351  070E                     	;# 
   352  070F                     	;# 
   353  0710                     	;# 
   354  0711                     	;# 
   355  0712                     	;# 
   356  0713                     	;# 
   357  0714                     	;# 
   358  0715                     	;# 
   359  0716                     	;# 
   360  0717                     	;# 
   361  0718                     	;# 
   362  0719                     	;# 
   363  071A                     	;# 
   364  071B                     	;# 
   365  071C                     	;# 
   366  071D                     	;# 
   367  071E                     	;# 
   368  071F                     	;# 
   369  078E                     	;# 
   370  078F                     	;# 
   371  0790                     	;# 
   372  0791                     	;# 
   373  0792                     	;# 
   374  0793                     	;# 
   375  0794                     	;# 
   376  0795                     	;# 
   377  0796                     	;# 
   378  0797                     	;# 
   379  0798                     	;# 
   380  0799                     	;# 
   381  079A                     	;# 
   382  079B                     	;# 
   383  079C                     	;# 
   384  079D                     	;# 
   385  079E                     	;# 
   386  079F                     	;# 
   387  080D                     	;# 
   388  080E                     	;# 
   389  080F                     	;# 
   390  0810                     	;# 
   391  0811                     	;# 
   392  0812                     	;# 
   393  0813                     	;# 
   394  0814                     	;# 
   395  0815                     	;# 
   396  0816                     	;# 
   397  0817                     	;# 
   398  0818                     	;# 
   399  0819                     	;# 
   400  081A                     	;# 
   401  081B                     	;# 
   402  081C                     	;# 
   403  081D                     	;# 
   404  081E                     	;# 
   405  081F                     	;# 
   406  090C                     	;# 
   407  090D                     	;# 
   408  090E                     	;# 
   409  090F                     	;# 
   410  0910                     	;# 
   411  0911                     	;# 
   412  0912                     	;# 
   413  0913                     	;# 
   414  0914                     	;# 
   415  0915                     	;# 
   416  0916                     	;# 
   417  0917                     	;# 
   418  0D8E                     	;# 
   419  0D8F                     	;# 
   420  0D90                     	;# 
   421  0D91                     	;# 
   422  0D91                     	;# 
   423  0D92                     	;# 
   424  0D93                     	;# 
   425  0D93                     	;# 
   426  0D94                     	;# 
   427  0D95                     	;# 
   428  0D95                     	;# 
   429  0D96                     	;# 
   430  0D97                     	;# 
   431  0D97                     	;# 
   432  0D98                     	;# 
   433  0D99                     	;# 
   434  0D99                     	;# 
   435  0D9A                     	;# 
   436  0D9B                     	;# 
   437  0D9C                     	;# 
   438  0D9C                     	;# 
   439  0D9D                     	;# 
   440  0D9D                     	;# 
   441  0D9E                     	;# 
   442  0D9F                     	;# 
   443  0DA0                     	;# 
   444  0DA1                     	;# 
   445  0DA1                     	;# 
   446  0DA2                     	;# 
   447  0DA3                     	;# 
   448  0DA3                     	;# 
   449  0DA4                     	;# 
   450  0DA5                     	;# 
   451  0DA5                     	;# 
   452  0DA6                     	;# 
   453  0DA7                     	;# 
   454  0DA7                     	;# 
   455  0DA8                     	;# 
   456  0DA9                     	;# 
   457  0DA9                     	;# 
   458  0DAA                     	;# 
   459  0DAB                     	;# 
   460  0DAC                     	;# 
   461  0DAC                     	;# 
   462  0DAD                     	;# 
   463  0DAD                     	;# 
   464  0DAE                     	;# 
   465  0DAF                     	;# 
   466  0DB0                     	;# 
   467  0DB1                     	;# 
   468  0DB1                     	;# 
   469  0DB2                     	;# 
   470  0DB3                     	;# 
   471  0DB3                     	;# 
   472  0DB4                     	;# 
   473  0DB5                     	;# 
   474  0DB5                     	;# 
   475  0DB6                     	;# 
   476  0DB7                     	;# 
   477  0DB7                     	;# 
   478  0DB8                     	;# 
   479  0DB9                     	;# 
   480  0DB9                     	;# 
   481  0DBA                     	;# 
   482  0DBB                     	;# 
   483  0DBC                     	;# 
   484  0DBC                     	;# 
   485  0DBD                     	;# 
   486  0DBD                     	;# 
   487  0DBE                     	;# 
   488  0DBF                     	;# 
   489  0DC0                     	;# 
   490  0E0C                     	;# 
   491  0E0D                     	;# 
   492  0E0E                     	;# 
   493  0E0F                     	;# 
   494  0E10                     	;# 
   495  0E11                     	;# 
   496  0E12                     	;# 
   497  0E13                     	;# 
   498  0E14                     	;# 
   499  0E15                     	;# 
   500  0E15                     	;# 
   501  0E15                     	;# 
   502  0E16                     	;# 
   503  0E16                     	;# 
   504  0E16                     	;# 
   505  0E17                     	;# 
   506  0E17                     	;# 
   507  0E17                     	;# 
   508  0E18                     	;# 
   509  0E18                     	;# 
   510  0E18                     	;# 
   511  0E19                     	;# 
   512  0E1A                     	;# 
   513  0E1B                     	;# 
   514  0E1D                     	;# 
   515  0E1E                     	;# 
   516  0E1F                     	;# 
   517  0E21                     	;# 
   518  0E22                     	;# 
   519  0E23                     	;# 
   520  0E24                     	;# 
   521  0E25                     	;# 
   522  0E26                     	;# 
   523  0E27                     	;# 
   524  0E28                     	;# 
   525  0E29                     	;# 
   526  0E2D                     	;# 
   527  0E2E                     	;# 
   528  0E2F                     	;# 
   529  0E30                     	;# 
   530  0E31                     	;# 
   531  0E32                     	;# 
   532  0E35                     	;# 
   533  0E36                     	;# 
   534  0E37                     	;# 
   535  0E38                     	;# 
   536  0E39                     	;# 
   537  0E3A                     	;# 
   538  0E3B                     	;# 
   539  0E3C                     	;# 
   540  0E3D                     	;# 
   541  0E3E                     	;# 
   542  0E90                     	;# 
   543  0E91                     	;# 
   544  0E92                     	;# 
   545  0E93                     	;# 
   546  0E94                     	;# 
   547  0E95                     	;# 
   548  0E96                     	;# 
   549  0E97                     	;# 
   550  0E98                     	;# 
   551  0E99                     	;# 
   552  0E9A                     	;# 
   553  0E9B                     	;# 
   554  0E9C                     	;# 
   555  0E9D                     	;# 
   556  0E9E                     	;# 
   557  0E9F                     	;# 
   558  0EA0                     	;# 
   559  0EA1                     	;# 
   560  0EA2                     	;# 
   561  0EA3                     	;# 
   562  0EA4                     	;# 
   563  0EA5                     	;# 
   564  0EA6                     	;# 
   565  0EA7                     	;# 
   566  0F0F                     	;# 
   567  0F10                     	;# 
   568  0F11                     	;# 
   569  0F12                     	;# 
   570  0F13                     	;# 
   571  0F14                     	;# 
   572  0F15                     	;# 
   573  0F16                     	;# 
   574  0F17                     	;# 
   575  0F18                     	;# 
   576  0F19                     	;# 
   577  0F1A                     	;# 
   578  0F1B                     	;# 
   579  0F1C                     	;# 
   580  0F1D                     	;# 
   581  0F1E                     	;# 
   582  0F1F                     	;# 
   583  0F20                     	;# 
   584  0F21                     	;# 
   585  0F22                     	;# 
   586  0F23                     	;# 
   587  0F24                     	;# 
   588  0F25                     	;# 
   589  0F26                     	;# 
   590  0F27                     	;# 
   591  0F28                     	;# 
   592  0F29                     	;# 
   593  0F2A                     	;# 
   594  0F2B                     	;# 
   595  0F2C                     	;# 
   596  0F2D                     	;# 
   597  0F2E                     	;# 
   598  0F2F                     	;# 
   599  0F30                     	;# 
   600  0F31                     	;# 
   601  0F32                     	;# 
   602  0F33                     	;# 
   603  0F34                     	;# 
   604  0F35                     	;# 
   605  0F36                     	;# 
   606  0F37                     	;# 
   607  0FE4                     	;# 
   608  0FE5                     	;# 
   609  0FE6                     	;# 
   610  0FE7                     	;# 
   611  0FE8                     	;# 
   612  0FE9                     	;# 
   613  0FEA                     	;# 
   614  0FEB                     	;# 
   615  0FED                     	;# 
   616  0FEE                     	;# 
   617  0FEF                     	;# 
   618  0000                     	;# 
   619  0001                     	;# 
   620  0002                     	;# 
   621  0003                     	;# 
   622  0004                     	;# 
   623  0005                     	;# 
   624  0006                     	;# 
   625  0007                     	;# 
   626  0008                     	;# 
   627  0009                     	;# 
   628  000A                     	;# 
   629  000B                     	;# 
   630  000C                     	;# 
   631  000D                     	;# 
   632  000E                     	;# 
   633  0010                     	;# 
   634  0011                     	;# 
   635  0012                     	;# 
   636  0013                     	;# 
   637  0014                     	;# 
   638  0015                     	;# 
   639  0016                     	;# 
   640  0017                     	;# 
   641  0018                     	;# 
   642  0018                     	;# 
   643  0019                     	;# 
   644  001A                     	;# 
   645  001B                     	;# 
   646  001C                     	;# 
   647  001C                     	;# 
   648  001D                     	;# 
   649  001E                     	;# 
   650  001F                     	;# 
   651  008C                     	;# 
   652  008D                     	;# 
   653  008E                     	;# 
   654  0090                     	;# 
   655  0091                     	;# 
   656  0092                     	;# 
   657  0093                     	;# 
   658  0094                     	;# 
   659  0095                     	;# 
   660  0096                     	;# 
   661  0097                     	;# 
   662  0098                     	;# 
   663  0099                     	;# 
   664  009A                     	;# 
   665  009B                     	;# 
   666  009C                     	;# 
   667  009D                     	;# 
   668  009E                     	;# 
   669  009F                     	;# 
   670  010C                     	;# 
   671  010D                     	;# 
   672  010E                     	;# 
   673  0111                     	;# 
   674  0112                     	;# 
   675  0113                     	;# 
   676  0114                     	;# 
   677  0115                     	;# 
   678  0116                     	;# 
   679  0117                     	;# 
   680  0118                     	;# 
   681  0119                     	;# 
   682  011A                     	;# 
   683  011B                     	;# 
   684  011C                     	;# 
   685  011D                     	;# 
   686  018C                     	;# 
   687  018D                     	;# 
   688  018E                     	;# 
   689  0191                     	;# 
   690  0191                     	;# 
   691  0192                     	;# 
   692  0193                     	;# 
   693  0193                     	;# 
   694  0194                     	;# 
   695  0195                     	;# 
   696  0196                     	;# 
   697  0197                     	;# 
   698  0199                     	;# 
   699  0199                     	;# 
   700  0199                     	;# 
   701  019A                     	;# 
   702  019A                     	;# 
   703  019A                     	;# 
   704  019B                     	;# 
   705  019B                     	;# 
   706  019B                     	;# 
   707  019B                     	;# 
   708  019B                     	;# 
   709  019C                     	;# 
   710  019C                     	;# 
   711  019C                     	;# 
   712  019D                     	;# 
   713  019D                     	;# 
   714  019D                     	;# 
   715  019E                     	;# 
   716  019E                     	;# 
   717  019E                     	;# 
   718  019F                     	;# 
   719  019F                     	;# 
   720  019F                     	;# 
   721  019F                     	;# 
   722  019F                     	;# 
   723  020C                     	;# 
   724  020D                     	;# 
   725  020E                     	;# 
   726  0210                     	;# 
   727  0211                     	;# 
   728  0211                     	;# 
   729  0212                     	;# 
   730  0212                     	;# 
   731  0213                     	;# 
   732  0213                     	;# 
   733  0214                     	;# 
   734  0214                     	;# 
   735  0215                     	;# 
   736  0215                     	;# 
   737  0215                     	;# 
   738  0215                     	;# 
   739  0216                     	;# 
   740  0216                     	;# 
   741  0217                     	;# 
   742  0217                     	;# 
   743  021B                     	;# 
   744  021C                     	;# 
   745  021D                     	;# 
   746  021E                     	;# 
   747  021F                     	;# 
   748  028C                     	;# 
   749  028D                     	;# 
   750  028E                     	;# 
   751  0291                     	;# 
   752  0291                     	;# 
   753  0292                     	;# 
   754  0293                     	;# 
   755  0294                     	;# 
   756  0295                     	;# 
   757  0295                     	;# 
   758  0296                     	;# 
   759  0297                     	;# 
   760  0298                     	;# 
   761  0299                     	;# 
   762  0299                     	;# 
   763  029A                     	;# 
   764  029B                     	;# 
   765  029C                     	;# 
   766  029E                     	;# 
   767  029F                     	;# 
   768  030C                     	;# 
   769  030D                     	;# 
   770  030E                     	;# 
   771  0315                     	;# 
   772  0316                     	;# 
   773  0317                     	;# 
   774  0318                     	;# 
   775  0319                     	;# 
   776  031B                     	;# 
   777  031C                     	;# 
   778  031D                     	;# 
   779  031E                     	;# 
   780  031F                     	;# 
   781  038C                     	;# 
   782  038D                     	;# 
   783  038E                     	;# 
   784  0390                     	;# 
   785  0391                     	;# 
   786  0392                     	;# 
   787  0393                     	;# 
   788  0394                     	;# 
   789  0395                     	;# 
   790  0396                     	;# 
   791  0397                     	;# 
   792  0398                     	;# 
   793  0399                     	;# 
   794  039D                     	;# 
   795  039E                     	;# 
   796  039F                     	;# 
   797  040D                     	;# 
   798  040F                     	;# 
   799  040F                     	;# 
   800  0410                     	;# 
   801  0411                     	;# 
   802  0412                     	;# 
   803  0413                     	;# 
   804  0413                     	;# 
   805  0414                     	;# 
   806  0414                     	;# 
   807  0415                     	;# 
   808  0416                     	;# 
   809  0417                     	;# 
   810  0418                     	;# 
   811  041A                     	;# 
   812  041A                     	;# 
   813  041B                     	;# 
   814  041B                     	;# 
   815  041C                     	;# 
   816  041D                     	;# 
   817  041E                     	;# 
   818  041F                     	;# 
   819  048E                     	;# 
   820  048E                     	;# 
   821  048F                     	;# 
   822  0490                     	;# 
   823  0491                     	;# 
   824  0492                     	;# 
   825  0493                     	;# 
   826  0493                     	;# 
   827  0494                     	;# 
   828  0494                     	;# 
   829  0495                     	;# 
   830  0496                     	;# 
   831  0497                     	;# 
   832  0498                     	;# 
   833  049A                     	;# 
   834  049A                     	;# 
   835  049B                     	;# 
   836  049B                     	;# 
   837  049C                     	;# 
   838  049D                     	;# 
   839  049E                     	;# 
   840  049F                     	;# 
   841  050F                     	;# 
   842  0510                     	;# 
   843  0511                     	;# 
   844  0512                     	;# 
   845  0513                     	;# 
   846  0514                     	;# 
   847  0515                     	;# 
   848  0516                     	;# 
   849  0517                     	;# 
   850  0518                     	;# 
   851  0519                     	;# 
   852  051A                     	;# 
   853  058D                     	;# 
   854  058E                     	;# 
   855  058F                     	;# 
   856  058F                     	;# 
   857  058F                     	;# 
   858  0590                     	;# 
   859  0590                     	;# 
   860  0591                     	;# 
   861  0592                     	;# 
   862  0592                     	;# 
   863  0592                     	;# 
   864  0593                     	;# 
   865  0593                     	;# 
   866  0594                     	;# 
   867  0595                     	;# 
   868  0595                     	;# 
   869  0596                     	;# 
   870  0597                     	;# 
   871  0597                     	;# 
   872  0598                     	;# 
   873  0599                     	;# 
   874  0599                     	;# 
   875  0599                     	;# 
   876  059A                     	;# 
   877  059A                     	;# 
   878  059E                     	;# 
   879  059F                     	;# 
   880  059F                     	;# 
   881  0614                     	;# 
   882  0614                     	;# 
   883  0615                     	;# 
   884  0616                     	;# 
   885  0617                     	;# 
   886  0617                     	;# 
   887  0618                     	;# 
   888  0619                     	;# 
   889  061A                     	;# 
   890  061A                     	;# 
   891  061B                     	;# 
   892  061C                     	;# 
   893  068D                     	;# 
   894  068E                     	;# 
   895  068F                     	;# 
   896  0690                     	;# 
   897  0691                     	;# 
   898  0692                     	;# 
   899  0693                     	;# 
   900  0694                     	;# 
   901  0695                     	;# 
   902  0696                     	;# 
   903  0697                     	;# 
   904  0698                     	;# 
   905  0699                     	;# 
   906  069A                     	;# 
   907  069B                     	;# 
   908  069C                     	;# 
   909  069D                     	;# 
   910  069E                     	;# 
   911  069F                     	;# 
   912  070D                     	;# 
   913  070E                     	;# 
   914  070F                     	;# 
   915  0710                     	;# 
   916  0711                     	;# 
   917  0712                     	;# 
   918  0713                     	;# 
   919  0714                     	;# 
   920  0715                     	;# 
   921  0716                     	;# 
   922  0717                     	;# 
   923  0718                     	;# 
   924  0719                     	;# 
   925  071A                     	;# 
   926  071B                     	;# 
   927  071C                     	;# 
   928  071D                     	;# 
   929  071E                     	;# 
   930  071F                     	;# 
   931  078E                     	;# 
   932  078F                     	;# 
   933  0790                     	;# 
   934  0791                     	;# 
   935  0792                     	;# 
   936  0793                     	;# 
   937  0794                     	;# 
   938  0795                     	;# 
   939  0796                     	;# 
   940  0797                     	;# 
   941  0798                     	;# 
   942  0799                     	;# 
   943  079A                     	;# 
   944  079B                     	;# 
   945  079C                     	;# 
   946  079D                     	;# 
   947  079E                     	;# 
   948  079F                     	;# 
   949  080D                     	;# 
   950  080E                     	;# 
   951  080F                     	;# 
   952  0810                     	;# 
   953  0811                     	;# 
   954  0812                     	;# 
   955  0813                     	;# 
   956  0814                     	;# 
   957  0815                     	;# 
   958  0816                     	;# 
   959  0817                     	;# 
   960  0818                     	;# 
   961  0819                     	;# 
   962  081A                     	;# 
   963  081B                     	;# 
   964  081C                     	;# 
   965  081D                     	;# 
   966  081E                     	;# 
   967  081F                     	;# 
   968  090C                     	;# 
   969  090D                     	;# 
   970  090E                     	;# 
   971  090F                     	;# 
   972  0910                     	;# 
   973  0911                     	;# 
   974  0912                     	;# 
   975  0913                     	;# 
   976  0914                     	;# 
   977  0915                     	;# 
   978  0916                     	;# 
   979  0917                     	;# 
   980  0D8E                     	;# 
   981  0D8F                     	;# 
   982  0D90                     	;# 
   983  0D91                     	;# 
   984  0D91                     	;# 
   985  0D92                     	;# 
   986  0D93                     	;# 
   987  0D93                     	;# 
   988  0D94                     	;# 
   989  0D95                     	;# 
   990  0D95                     	;# 
   991  0D96                     	;# 
   992  0D97                     	;# 
   993  0D97                     	;# 
   994  0D98                     	;# 
   995  0D99                     	;# 
   996  0D99                     	;# 
   997  0D9A                     	;# 
   998  0D9B                     	;# 
   999  0D9C                     	;# 
  1000  0D9C                     	;# 
  1001  0D9D                     	;# 
  1002  0D9D                     	;# 
  1003  0D9E                     	;# 
  1004  0D9F                     	;# 
  1005  0DA0                     	;# 
  1006  0DA1                     	;# 
  1007  0DA1                     	;# 
  1008  0DA2                     	;# 
  1009  0DA3                     	;# 
  1010  0DA3                     	;# 
  1011  0DA4                     	;# 
  1012  0DA5                     	;# 
  1013  0DA5                     	;# 
  1014  0DA6                     	;# 
  1015  0DA7                     	;# 
  1016  0DA7                     	;# 
  1017  0DA8                     	;# 
  1018  0DA9                     	;# 
  1019  0DA9                     	;# 
  1020  0DAA                     	;# 
  1021  0DAB                     	;# 
  1022  0DAC                     	;# 
  1023  0DAC                     	;# 
  1024  0DAD                     	;# 
  1025  0DAD                     	;# 
  1026  0DAE                     	;# 
  1027  0DAF                     	;# 
  1028  0DB0                     	;# 
  1029  0DB1                     	;# 
  1030  0DB1                     	;# 
  1031  0DB2                     	;# 
  1032  0DB3                     	;# 
  1033  0DB3                     	;# 
  1034  0DB4                     	;# 
  1035  0DB5                     	;# 
  1036  0DB5                     	;# 
  1037  0DB6                     	;# 
  1038  0DB7                     	;# 
  1039  0DB7                     	;# 
  1040  0DB8                     	;# 
  1041  0DB9                     	;# 
  1042  0DB9                     	;# 
  1043  0DBA                     	;# 
  1044  0DBB                     	;# 
  1045  0DBC                     	;# 
  1046  0DBC                     	;# 
  1047  0DBD                     	;# 
  1048  0DBD                     	;# 
  1049  0DBE                     	;# 
  1050  0DBF                     	;# 
  1051  0DC0                     	;# 
  1052  0E0C                     	;# 
  1053  0E0D                     	;# 
  1054  0E0E                     	;# 
  1055  0E0F                     	;# 
  1056  0E10                     	;# 
  1057  0E11                     	;# 
  1058  0E12                     	;# 
  1059  0E13                     	;# 
  1060  0E14                     	;# 
  1061  0E15                     	;# 
  1062  0E15                     	;# 
  1063  0E15                     	;# 
  1064  0E16                     	;# 
  1065  0E16                     	;# 
  1066  0E16                     	;# 
  1067  0E17                     	;# 
  1068  0E17                     	;# 
  1069  0E17                     	;# 
  1070  0E18                     	;# 
  1071  0E18                     	;# 
  1072  0E18                     	;# 
  1073  0E19                     	;# 
  1074  0E1A                     	;# 
  1075  0E1B                     	;# 
  1076  0E1D                     	;# 
  1077  0E1E                     	;# 
  1078  0E1F                     	;# 
  1079  0E21                     	;# 
  1080  0E22                     	;# 
  1081  0E23                     	;# 
  1082  0E24                     	;# 
  1083  0E25                     	;# 
  1084  0E26                     	;# 
  1085  0E27                     	;# 
  1086  0E28                     	;# 
  1087  0E29                     	;# 
  1088  0E2D                     	;# 
  1089  0E2E                     	;# 
  1090  0E2F                     	;# 
  1091  0E30                     	;# 
  1092  0E31                     	;# 
  1093  0E32                     	;# 
  1094  0E35                     	;# 
  1095  0E36                     	;# 
  1096  0E37                     	;# 
  1097  0E38                     	;# 
  1098  0E39                     	;# 
  1099  0E3A                     	;# 
  1100  0E3B                     	;# 
  1101  0E3C                     	;# 
  1102  0E3D                     	;# 
  1103  0E3E                     	;# 
  1104  0E90                     	;# 
  1105  0E91                     	;# 
  1106  0E92                     	;# 
  1107  0E93                     	;# 
  1108  0E94                     	;# 
  1109  0E95                     	;# 
  1110  0E96                     	;# 
  1111  0E97                     	;# 
  1112  0E98                     	;# 
  1113  0E99                     	;# 
  1114  0E9A                     	;# 
  1115  0E9B                     	;# 
  1116  0E9C                     	;# 
  1117  0E9D                     	;# 
  1118  0E9E                     	;# 
  1119  0E9F                     	;# 
  1120  0EA0                     	;# 
  1121  0EA1                     	;# 
  1122  0EA2                     	;# 
  1123  0EA3                     	;# 
  1124  0EA4                     	;# 
  1125  0EA5                     	;# 
  1126  0EA6                     	;# 
  1127  0EA7                     	;# 
  1128  0F0F                     	;# 
  1129  0F10                     	;# 
  1130  0F11                     	;# 
  1131  0F12                     	;# 
  1132  0F13                     	;# 
  1133  0F14                     	;# 
  1134  0F15                     	;# 
  1135  0F16                     	;# 
  1136  0F17                     	;# 
  1137  0F18                     	;# 
  1138  0F19                     	;# 
  1139  0F1A                     	;# 
  1140  0F1B                     	;# 
  1141  0F1C                     	;# 
  1142  0F1D                     	;# 
  1143  0F1E                     	;# 
  1144  0F1F                     	;# 
  1145  0F20                     	;# 
  1146  0F21                     	;# 
  1147  0F22                     	;# 
  1148  0F23                     	;# 
  1149  0F24                     	;# 
  1150  0F25                     	;# 
  1151  0F26                     	;# 
  1152  0F27                     	;# 
  1153  0F28                     	;# 
  1154  0F29                     	;# 
  1155  0F2A                     	;# 
  1156  0F2B                     	;# 
  1157  0F2C                     	;# 
  1158  0F2D                     	;# 
  1159  0F2E                     	;# 
  1160  0F2F                     	;# 
  1161  0F30                     	;# 
  1162  0F31                     	;# 
  1163  0F32                     	;# 
  1164  0F33                     	;# 
  1165  0F34                     	;# 
  1166  0F35                     	;# 
  1167  0F36                     	;# 
  1168  0F37                     	;# 
  1169  0FE4                     	;# 
  1170  0FE5                     	;# 
  1171  0FE6                     	;# 
  1172  0FE7                     	;# 
  1173  0FE8                     	;# 
  1174  0FE9                     	;# 
  1175  0FEA                     	;# 
  1176  0FEB                     	;# 
  1177  0FED                     	;# 
  1178  0FEE                     	;# 
  1179  0FEF                     	;# 
  1180  0000                     	;# 
  1181  0001                     	;# 
  1182  0002                     	;# 
  1183  0003                     	;# 
  1184  0004                     	;# 
  1185  0005                     	;# 
  1186  0006                     	;# 
  1187  0007                     	;# 
  1188  0008                     	;# 
  1189  0009                     	;# 
  1190  000A                     	;# 
  1191  000B                     	;# 
  1192  000C                     	;# 
  1193  000D                     	;# 
  1194  000E                     	;# 
  1195  0010                     	;# 
  1196  0011                     	;# 
  1197  0012                     	;# 
  1198  0013                     	;# 
  1199  0014                     	;# 
  1200  0015                     	;# 
  1201  0016                     	;# 
  1202  0017                     	;# 
  1203  0018                     	;# 
  1204  0018                     	;# 
  1205  0019                     	;# 
  1206  001A                     	;# 
  1207  001B                     	;# 
  1208  001C                     	;# 
  1209  001C                     	;# 
  1210  001D                     	;# 
  1211  001E                     	;# 
  1212  001F                     	;# 
  1213  008C                     	;# 
  1214  008D                     	;# 
  1215  008E                     	;# 
  1216  0090                     	;# 
  1217  0091                     	;# 
  1218  0092                     	;# 
  1219  0093                     	;# 
  1220  0094                     	;# 
  1221  0095                     	;# 
  1222  0096                     	;# 
  1223  0097                     	;# 
  1224  0098                     	;# 
  1225  0099                     	;# 
  1226  009A                     	;# 
  1227  009B                     	;# 
  1228  009C                     	;# 
  1229  009D                     	;# 
  1230  009E                     	;# 
  1231  009F                     	;# 
  1232  010C                     	;# 
  1233  010D                     	;# 
  1234  010E                     	;# 
  1235  0111                     	;# 
  1236  0112                     	;# 
  1237  0113                     	;# 
  1238  0114                     	;# 
  1239  0115                     	;# 
  1240  0116                     	;# 
  1241  0117                     	;# 
  1242  0118                     	;# 
  1243  0119                     	;# 
  1244  011A                     	;# 
  1245  011B                     	;# 
  1246  011C                     	;# 
  1247  011D                     	;# 
  1248  018C                     	;# 
  1249  018D                     	;# 
  1250  018E                     	;# 
  1251  0191                     	;# 
  1252  0191                     	;# 
  1253  0192                     	;# 
  1254  0193                     	;# 
  1255  0193                     	;# 
  1256  0194                     	;# 
  1257  0195                     	;# 
  1258  0196                     	;# 
  1259  0197                     	;# 
  1260  0199                     	;# 
  1261  0199                     	;# 
  1262  0199                     	;# 
  1263  019A                     	;# 
  1264  019A                     	;# 
  1265  019A                     	;# 
  1266  019B                     	;# 
  1267  019B                     	;# 
  1268  019B                     	;# 
  1269  019B                     	;# 
  1270  019B                     	;# 
  1271  019C                     	;# 
  1272  019C                     	;# 
  1273  019C                     	;# 
  1274  019D                     	;# 
  1275  019D                     	;# 
  1276  019D                     	;# 
  1277  019E                     	;# 
  1278  019E                     	;# 
  1279  019E                     	;# 
  1280  019F                     	;# 
  1281  019F                     	;# 
  1282  019F                     	;# 
  1283  019F                     	;# 
  1284  019F                     	;# 
  1285  020C                     	;# 
  1286  020D                     	;# 
  1287  020E                     	;# 
  1288  0210                     	;# 
  1289  0211                     	;# 
  1290  0211                     	;# 
  1291  0212                     	;# 
  1292  0212                     	;# 
  1293  0213                     	;# 
  1294  0213                     	;# 
  1295  0214                     	;# 
  1296  0214                     	;# 
  1297  0215                     	;# 
  1298  0215                     	;# 
  1299  0215                     	;# 
  1300  0215                     	;# 
  1301  0216                     	;# 
  1302  0216                     	;# 
  1303  0217                     	;# 
  1304  0217                     	;# 
  1305  021B                     	;# 
  1306  021C                     	;# 
  1307  021D                     	;# 
  1308  021E                     	;# 
  1309  021F                     	;# 
  1310  028C                     	;# 
  1311  028D                     	;# 
  1312  028E                     	;# 
  1313  0291                     	;# 
  1314  0291                     	;# 
  1315  0292                     	;# 
  1316  0293                     	;# 
  1317  0294                     	;# 
  1318  0295                     	;# 
  1319  0295                     	;# 
  1320  0296                     	;# 
  1321  0297                     	;# 
  1322  0298                     	;# 
  1323  0299                     	;# 
  1324  0299                     	;# 
  1325  029A                     	;# 
  1326  029B                     	;# 
  1327  029C                     	;# 
  1328  029E                     	;# 
  1329  029F                     	;# 
  1330  030C                     	;# 
  1331  030D                     	;# 
  1332  030E                     	;# 
  1333  0315                     	;# 
  1334  0316                     	;# 
  1335  0317                     	;# 
  1336  0318                     	;# 
  1337  0319                     	;# 
  1338  031B                     	;# 
  1339  031C                     	;# 
  1340  031D                     	;# 
  1341  031E                     	;# 
  1342  031F                     	;# 
  1343  038C                     	;# 
  1344  038D                     	;# 
  1345  038E                     	;# 
  1346  0390                     	;# 
  1347  0391                     	;# 
  1348  0392                     	;# 
  1349  0393                     	;# 
  1350  0394                     	;# 
  1351  0395                     	;# 
  1352  0396                     	;# 
  1353  0397                     	;# 
  1354  0398                     	;# 
  1355  0399                     	;# 
  1356  039D                     	;# 
  1357  039E                     	;# 
  1358  039F                     	;# 
  1359  040D                     	;# 
  1360  040F                     	;# 
  1361  040F                     	;# 
  1362  0410                     	;# 
  1363  0411                     	;# 
  1364  0412                     	;# 
  1365  0413                     	;# 
  1366  0413                     	;# 
  1367  0414                     	;# 
  1368  0414                     	;# 
  1369  0415                     	;# 
  1370  0416                     	;# 
  1371  0417                     	;# 
  1372  0418                     	;# 
  1373  041A                     	;# 
  1374  041A                     	;# 
  1375  041B                     	;# 
  1376  041B                     	;# 
  1377  041C                     	;# 
  1378  041D                     	;# 
  1379  041E                     	;# 
  1380  041F                     	;# 
  1381  048E                     	;# 
  1382  048E                     	;# 
  1383  048F                     	;# 
  1384  0490                     	;# 
  1385  0491                     	;# 
  1386  0492                     	;# 
  1387  0493                     	;# 
  1388  0493                     	;# 
  1389  0494                     	;# 
  1390  0494                     	;# 
  1391  0495                     	;# 
  1392  0496                     	;# 
  1393  0497                     	;# 
  1394  0498                     	;# 
  1395  049A                     	;# 
  1396  049A                     	;# 
  1397  049B                     	;# 
  1398  049B                     	;# 
  1399  049C                     	;# 
  1400  049D                     	;# 
  1401  049E                     	;# 
  1402  049F                     	;# 
  1403  050F                     	;# 
  1404  0510                     	;# 
  1405  0511                     	;# 
  1406  0512                     	;# 
  1407  0513                     	;# 
  1408  0514                     	;# 
  1409  0515                     	;# 
  1410  0516                     	;# 
  1411  0517                     	;# 
  1412  0518                     	;# 
  1413  0519                     	;# 
  1414  051A                     	;# 
  1415  058D                     	;# 
  1416  058E                     	;# 
  1417  058F                     	;# 
  1418  058F                     	;# 
  1419  058F                     	;# 
  1420  0590                     	;# 
  1421  0590                     	;# 
  1422  0591                     	;# 
  1423  0592                     	;# 
  1424  0592                     	;# 
  1425  0592                     	;# 
  1426  0593                     	;# 
  1427  0593                     	;# 
  1428  0594                     	;# 
  1429  0595                     	;# 
  1430  0595                     	;# 
  1431  0596                     	;# 
  1432  0597                     	;# 
  1433  0597                     	;# 
  1434  0598                     	;# 
  1435  0599                     	;# 
  1436  0599                     	;# 
  1437  0599                     	;# 
  1438  059A                     	;# 
  1439  059A                     	;# 
  1440  059E                     	;# 
  1441  059F                     	;# 
  1442  059F                     	;# 
  1443  0614                     	;# 
  1444  0614                     	;# 
  1445  0615                     	;# 
  1446  0616                     	;# 
  1447  0617                     	;# 
  1448  0617                     	;# 
  1449  0618                     	;# 
  1450  0619                     	;# 
  1451  061A                     	;# 
  1452  061A                     	;# 
  1453  061B                     	;# 
  1454  061C                     	;# 
  1455  068D                     	;# 
  1456  068E                     	;# 
  1457  068F                     	;# 
  1458  0690                     	;# 
  1459  0691                     	;# 
  1460  0692                     	;# 
  1461  0693                     	;# 
  1462  0694                     	;# 
  1463  0695                     	;# 
  1464  0696                     	;# 
  1465  0697                     	;# 
  1466  0698                     	;# 
  1467  0699                     	;# 
  1468  069A                     	;# 
  1469  069B                     	;# 
  1470  069C                     	;# 
  1471  069D                     	;# 
  1472  069E                     	;# 
  1473  069F                     	;# 
  1474  070D                     	;# 
  1475  070E                     	;# 
  1476  070F                     	;# 
  1477  0710                     	;# 
  1478  0711                     	;# 
  1479  0712                     	;# 
  1480  0713                     	;# 
  1481  0714                     	;# 
  1482  0715                     	;# 
  1483  0716                     	;# 
  1484  0717                     	;# 
  1485  0718                     	;# 
  1486  0719                     	;# 
  1487  071A                     	;# 
  1488  071B                     	;# 
  1489  071C                     	;# 
  1490  071D                     	;# 
  1491  071E                     	;# 
  1492  071F                     	;# 
  1493  078E                     	;# 
  1494  078F                     	;# 
  1495  0790                     	;# 
  1496  0791                     	;# 
  1497  0792                     	;# 
  1498  0793                     	;# 
  1499  0794                     	;# 
  1500  0795                     	;# 
  1501  0796                     	;# 
  1502  0797                     	;# 
  1503  0798                     	;# 
  1504  0799                     	;# 
  1505  079A                     	;# 
  1506  079B                     	;# 
  1507  079C                     	;# 
  1508  079D                     	;# 
  1509  079E                     	;# 
  1510  079F                     	;# 
  1511  080D                     	;# 
  1512  080E                     	;# 
  1513  080F                     	;# 
  1514  0810                     	;# 
  1515  0811                     	;# 
  1516  0812                     	;# 
  1517  0813                     	;# 
  1518  0814                     	;# 
  1519  0815                     	;# 
  1520  0816                     	;# 
  1521  0817                     	;# 
  1522  0818                     	;# 
  1523  0819                     	;# 
  1524  081A                     	;# 
  1525  081B                     	;# 
  1526  081C                     	;# 
  1527  081D                     	;# 
  1528  081E                     	;# 
  1529  081F                     	;# 
  1530  090C                     	;# 
  1531  090D                     	;# 
  1532  090E                     	;# 
  1533  090F                     	;# 
  1534  0910                     	;# 
  1535  0911                     	;# 
  1536  0912                     	;# 
  1537  0913                     	;# 
  1538  0914                     	;# 
  1539  0915                     	;# 
  1540  0916                     	;# 
  1541  0917                     	;# 
  1542  0D8E                     	;# 
  1543  0D8F                     	;# 
  1544  0D90                     	;# 
  1545  0D91                     	;# 
  1546  0D91                     	;# 
  1547  0D92                     	;# 
  1548  0D93                     	;# 
  1549  0D93                     	;# 
  1550  0D94                     	;# 
  1551  0D95                     	;# 
  1552  0D95                     	;# 
  1553  0D96                     	;# 
  1554  0D97                     	;# 
  1555  0D97                     	;# 
  1556  0D98                     	;# 
  1557  0D99                     	;# 
  1558  0D99                     	;# 
  1559  0D9A                     	;# 
  1560  0D9B                     	;# 
  1561  0D9C                     	;# 
  1562  0D9C                     	;# 
  1563  0D9D                     	;# 
  1564  0D9D                     	;# 
  1565  0D9E                     	;# 
  1566  0D9F                     	;# 
  1567  0DA0                     	;# 
  1568  0DA1                     	;# 
  1569  0DA1                     	;# 
  1570  0DA2                     	;# 
  1571  0DA3                     	;# 
  1572  0DA3                     	;# 
  1573  0DA4                     	;# 
  1574  0DA5                     	;# 
  1575  0DA5                     	;# 
  1576  0DA6                     	;# 
  1577  0DA7                     	;# 
  1578  0DA7                     	;# 
  1579  0DA8                     	;# 
  1580  0DA9                     	;# 
  1581  0DA9                     	;# 
  1582  0DAA                     	;# 
  1583  0DAB                     	;# 
  1584  0DAC                     	;# 
  1585  0DAC                     	;# 
  1586  0DAD                     	;# 
  1587  0DAD                     	;# 
  1588  0DAE                     	;# 
  1589  0DAF                     	;# 
  1590  0DB0                     	;# 
  1591  0DB1                     	;# 
  1592  0DB1                     	;# 
  1593  0DB2                     	;# 
  1594  0DB3                     	;# 
  1595  0DB3                     	;# 
  1596  0DB4                     	;# 
  1597  0DB5                     	;# 
  1598  0DB5                     	;# 
  1599  0DB6                     	;# 
  1600  0DB7                     	;# 
  1601  0DB7                     	;# 
  1602  0DB8                     	;# 
  1603  0DB9                     	;# 
  1604  0DB9                     	;# 
  1605  0DBA                     	;# 
  1606  0DBB                     	;# 
  1607  0DBC                     	;# 
  1608  0DBC                     	;# 
  1609  0DBD                     	;# 
  1610  0DBD                     	;# 
  1611  0DBE                     	;# 
  1612  0DBF                     	;# 
  1613  0DC0                     	;# 
  1614  0E0C                     	;# 
  1615  0E0D                     	;# 
  1616  0E0E                     	;# 
  1617  0E0F                     	;# 
  1618  0E10                     	;# 
  1619  0E11                     	;# 
  1620  0E12                     	;# 
  1621  0E13                     	;# 
  1622  0E14                     	;# 
  1623  0E15                     	;# 
  1624  0E15                     	;# 
  1625  0E15                     	;# 
  1626  0E16                     	;# 
  1627  0E16                     	;# 
  1628  0E16                     	;# 
  1629  0E17                     	;# 
  1630  0E17                     	;# 
  1631  0E17                     	;# 
  1632  0E18                     	;# 
  1633  0E18                     	;# 
  1634  0E18                     	;# 
  1635  0E19                     	;# 
  1636  0E1A                     	;# 
  1637  0E1B                     	;# 
  1638  0E1D                     	;# 
  1639  0E1E                     	;# 
  1640  0E1F                     	;# 
  1641  0E21                     	;# 
  1642  0E22                     	;# 
  1643  0E23                     	;# 
  1644  0E24                     	;# 
  1645  0E25                     	;# 
  1646  0E26                     	;# 
  1647  0E27                     	;# 
  1648  0E28                     	;# 
  1649  0E29                     	;# 
  1650  0E2D                     	;# 
  1651  0E2E                     	;# 
  1652  0E2F                     	;# 
  1653  0E30                     	;# 
  1654  0E31                     	;# 
  1655  0E32                     	;# 
  1656  0E35                     	;# 
  1657  0E36                     	;# 
  1658  0E37                     	;# 
  1659  0E38                     	;# 
  1660  0E39                     	;# 
  1661  0E3A                     	;# 
  1662  0E3B                     	;# 
  1663  0E3C                     	;# 
  1664  0E3D                     	;# 
  1665  0E3E                     	;# 
  1666  0E90                     	;# 
  1667  0E91                     	;# 
  1668  0E92                     	;# 
  1669  0E93                     	;# 
  1670  0E94                     	;# 
  1671  0E95                     	;# 
  1672  0E96                     	;# 
  1673  0E97                     	;# 
  1674  0E98                     	;# 
  1675  0E99                     	;# 
  1676  0E9A                     	;# 
  1677  0E9B                     	;# 
  1678  0E9C                     	;# 
  1679  0E9D                     	;# 
  1680  0E9E                     	;# 
  1681  0E9F                     	;# 
  1682  0EA0                     	;# 
  1683  0EA1                     	;# 
  1684  0EA2                     	;# 
  1685  0EA3                     	;# 
  1686  0EA4                     	;# 
  1687  0EA5                     	;# 
  1688  0EA6                     	;# 
  1689  0EA7                     	;# 
  1690  0F0F                     	;# 
  1691  0F10                     	;# 
  1692  0F11                     	;# 
  1693  0F12                     	;# 
  1694  0F13                     	;# 
  1695  0F14                     	;# 
  1696  0F15                     	;# 
  1697  0F16                     	;# 
  1698  0F17                     	;# 
  1699  0F18                     	;# 
  1700  0F19                     	;# 
  1701  0F1A                     	;# 
  1702  0F1B                     	;# 
  1703  0F1C                     	;# 
  1704  0F1D                     	;# 
  1705  0F1E                     	;# 
  1706  0F1F                     	;# 
  1707  0F20                     	;# 
  1708  0F21                     	;# 
  1709  0F22                     	;# 
  1710  0F23                     	;# 
  1711  0F24                     	;# 
  1712  0F25                     	;# 
  1713  0F26                     	;# 
  1714  0F27                     	;# 
  1715  0F28                     	;# 
  1716  0F29                     	;# 
  1717  0F2A                     	;# 
  1718  0F2B                     	;# 
  1719  0F2C                     	;# 
  1720  0F2D                     	;# 
  1721  0F2E                     	;# 
  1722  0F2F                     	;# 
  1723  0F30                     	;# 
  1724  0F31                     	;# 
  1725  0F32                     	;# 
  1726  0F33                     	;# 
  1727  0F34                     	;# 
  1728  0F35                     	;# 
  1729  0F36                     	;# 
  1730  0F37                     	;# 
  1731  0FE4                     	;# 
  1732  0FE5                     	;# 
  1733  0FE6                     	;# 
  1734  0FE7                     	;# 
  1735  0FE8                     	;# 
  1736  0FE9                     	;# 
  1737  0FEA                     	;# 
  1738  0FEB                     	;# 
  1739  0FED                     	;# 
  1740  0FEE                     	;# 
  1741  0FEF                     	;# 
  1742  0000                     	;# 
  1743  0001                     	;# 
  1744  0002                     	;# 
  1745  0003                     	;# 
  1746  0004                     	;# 
  1747  0005                     	;# 
  1748  0006                     	;# 
  1749  0007                     	;# 
  1750  0008                     	;# 
  1751  0009                     	;# 
  1752  000A                     	;# 
  1753  000B                     	;# 
  1754  000C                     	;# 
  1755  000D                     	;# 
  1756  000E                     	;# 
  1757  0010                     	;# 
  1758  0011                     	;# 
  1759  0012                     	;# 
  1760  0013                     	;# 
  1761  0014                     	;# 
  1762  0015                     	;# 
  1763  0016                     	;# 
  1764  0017                     	;# 
  1765  0018                     	;# 
  1766  0018                     	;# 
  1767  0019                     	;# 
  1768  001A                     	;# 
  1769  001B                     	;# 
  1770  001C                     	;# 
  1771  001C                     	;# 
  1772  001D                     	;# 
  1773  001E                     	;# 
  1774  001F                     	;# 
  1775  008C                     	;# 
  1776  008D                     	;# 
  1777  008E                     	;# 
  1778  0090                     	;# 
  1779  0091                     	;# 
  1780  0092                     	;# 
  1781  0093                     	;# 
  1782  0094                     	;# 
  1783  0095                     	;# 
  1784  0096                     	;# 
  1785  0097                     	;# 
  1786  0098                     	;# 
  1787  0099                     	;# 
  1788  009A                     	;# 
  1789  009B                     	;# 
  1790  009C                     	;# 
  1791  009D                     	;# 
  1792  009E                     	;# 
  1793  009F                     	;# 
  1794  010C                     	;# 
  1795  010D                     	;# 
  1796  010E                     	;# 
  1797  0111                     	;# 
  1798  0112                     	;# 
  1799  0113                     	;# 
  1800  0114                     	;# 
  1801  0115                     	;# 
  1802  0116                     	;# 
  1803  0117                     	;# 
  1804  0118                     	;# 
  1805  0119                     	;# 
  1806  011A                     	;# 
  1807  011B                     	;# 
  1808  011C                     	;# 
  1809  011D                     	;# 
  1810  018C                     	;# 
  1811  018D                     	;# 
  1812  018E                     	;# 
  1813  0191                     	;# 
  1814  0191                     	;# 
  1815  0192                     	;# 
  1816  0193                     	;# 
  1817  0193                     	;# 
  1818  0194                     	;# 
  1819  0195                     	;# 
  1820  0196                     	;# 
  1821  0197                     	;# 
  1822  0199                     	;# 
  1823  0199                     	;# 
  1824  0199                     	;# 
  1825  019A                     	;# 
  1826  019A                     	;# 
  1827  019A                     	;# 
  1828  019B                     	;# 
  1829  019B                     	;# 
  1830  019B                     	;# 
  1831  019B                     	;# 
  1832  019B                     	;# 
  1833  019C                     	;# 
  1834  019C                     	;# 
  1835  019C                     	;# 
  1836  019D                     	;# 
  1837  019D                     	;# 
  1838  019D                     	;# 
  1839  019E                     	;# 
  1840  019E                     	;# 
  1841  019E                     	;# 
  1842  019F                     	;# 
  1843  019F                     	;# 
  1844  019F                     	;# 
  1845  019F                     	;# 
  1846  019F                     	;# 
  1847  020C                     	;# 
  1848  020D                     	;# 
  1849  020E                     	;# 
  1850  0210                     	;# 
  1851  0211                     	;# 
  1852  0211                     	;# 
  1853  0212                     	;# 
  1854  0212                     	;# 
  1855  0213                     	;# 
  1856  0213                     	;# 
  1857  0214                     	;# 
  1858  0214                     	;# 
  1859  0215                     	;# 
  1860  0215                     	;# 
  1861  0215                     	;# 
  1862  0215                     	;# 
  1863  0216                     	;# 
  1864  0216                     	;# 
  1865  0217                     	;# 
  1866  0217                     	;# 
  1867  021B                     	;# 
  1868  021C                     	;# 
  1869  021D                     	;# 
  1870  021E                     	;# 
  1871  021F                     	;# 
  1872  028C                     	;# 
  1873  028D                     	;# 
  1874  028E                     	;# 
  1875  0291                     	;# 
  1876  0291                     	;# 
  1877  0292                     	;# 
  1878  0293                     	;# 
  1879  0294                     	;# 
  1880  0295                     	;# 
  1881  0295                     	;# 
  1882  0296                     	;# 
  1883  0297                     	;# 
  1884  0298                     	;# 
  1885  0299                     	;# 
  1886  0299                     	;# 
  1887  029A                     	;# 
  1888  029B                     	;# 
  1889  029C                     	;# 
  1890  029E                     	;# 
  1891  029F                     	;# 
  1892  030C                     	;# 
  1893  030D                     	;# 
  1894  030E                     	;# 
  1895  0315                     	;# 
  1896  0316                     	;# 
  1897  0317                     	;# 
  1898  0318                     	;# 
  1899  0319                     	;# 
  1900  031B                     	;# 
  1901  031C                     	;# 
  1902  031D                     	;# 
  1903  031E                     	;# 
  1904  031F                     	;# 
  1905  038C                     	;# 
  1906  038D                     	;# 
  1907  038E                     	;# 
  1908  0390                     	;# 
  1909  0391                     	;# 
  1910  0392                     	;# 
  1911  0393                     	;# 
  1912  0394                     	;# 
  1913  0395                     	;# 
  1914  0396                     	;# 
  1915  0397                     	;# 
  1916  0398                     	;# 
  1917  0399                     	;# 
  1918  039D                     	;# 
  1919  039E                     	;# 
  1920  039F                     	;# 
  1921  040D                     	;# 
  1922  040F                     	;# 
  1923  040F                     	;# 
  1924  0410                     	;# 
  1925  0411                     	;# 
  1926  0412                     	;# 
  1927  0413                     	;# 
  1928  0413                     	;# 
  1929  0414                     	;# 
  1930  0414                     	;# 
  1931  0415                     	;# 
  1932  0416                     	;# 
  1933  0417                     	;# 
  1934  0418                     	;# 
  1935  041A                     	;# 
  1936  041A                     	;# 
  1937  041B                     	;# 
  1938  041B                     	;# 
  1939  041C                     	;# 
  1940  041D                     	;# 
  1941  041E                     	;# 
  1942  041F                     	;# 
  1943  048E                     	;# 
  1944  048E                     	;# 
  1945  048F                     	;# 
  1946  0490                     	;# 
  1947  0491                     	;# 
  1948  0492                     	;# 
  1949  0493                     	;# 
  1950  0493                     	;# 
  1951  0494                     	;# 
  1952  0494                     	;# 
  1953  0495                     	;# 
  1954  0496                     	;# 
  1955  0497                     	;# 
  1956  0498                     	;# 
  1957  049A                     	;# 
  1958  049A                     	;# 
  1959  049B                     	;# 
  1960  049B                     	;# 
  1961  049C                     	;# 
  1962  049D                     	;# 
  1963  049E                     	;# 
  1964  049F                     	;# 
  1965  050F                     	;# 
  1966  0510                     	;# 
  1967  0511                     	;# 
  1968  0512                     	;# 
  1969  0513                     	;# 
  1970  0514                     	;# 
  1971  0515                     	;# 
  1972  0516                     	;# 
  1973  0517                     	;# 
  1974  0518                     	;# 
  1975  0519                     	;# 
  1976  051A                     	;# 
  1977  058D                     	;# 
  1978  058E                     	;# 
  1979  058F                     	;# 
  1980  058F                     	;# 
  1981  058F                     	;# 
  1982  0590                     	;# 
  1983  0590                     	;# 
  1984  0591                     	;# 
  1985  0592                     	;# 
  1986  0592                     	;# 
  1987  0592                     	;# 
  1988  0593                     	;# 
  1989  0593                     	;# 
  1990  0594                     	;# 
  1991  0595                     	;# 
  1992  0595                     	;# 
  1993  0596                     	;# 
  1994  0597                     	;# 
  1995  0597                     	;# 
  1996  0598                     	;# 
  1997  0599                     	;# 
  1998  0599                     	;# 
  1999  0599                     	;# 
  2000  059A                     	;# 
  2001  059A                     	;# 
  2002  059E                     	;# 
  2003  059F                     	;# 
  2004  059F                     	;# 
  2005  0614                     	;# 
  2006  0614                     	;# 
  2007  0615                     	;# 
  2008  0616                     	;# 
  2009  0617                     	;# 
  2010  0617                     	;# 
  2011  0618                     	;# 
  2012  0619                     	;# 
  2013  061A                     	;# 
  2014  061A                     	;# 
  2015  061B                     	;# 
  2016  061C                     	;# 
  2017  068D                     	;# 
  2018  068E                     	;# 
  2019  068F                     	;# 
  2020  0690                     	;# 
  2021  0691                     	;# 
  2022  0692                     	;# 
  2023  0693                     	;# 
  2024  0694                     	;# 
  2025  0695                     	;# 
  2026  0696                     	;# 
  2027  0697                     	;# 
  2028  0698                     	;# 
  2029  0699                     	;# 
  2030  069A                     	;# 
  2031  069B                     	;# 
  2032  069C                     	;# 
  2033  069D                     	;# 
  2034  069E                     	;# 
  2035  069F                     	;# 
  2036  070D                     	;# 
  2037  070E                     	;# 
  2038  070F                     	;# 
  2039  0710                     	;# 
  2040  0711                     	;# 
  2041  0712                     	;# 
  2042  0713                     	;# 
  2043  0714                     	;# 
  2044  0715                     	;# 
  2045  0716                     	;# 
  2046  0717                     	;# 
  2047  0718                     	;# 
  2048  0719                     	;# 
  2049  071A                     	;# 
  2050  071B                     	;# 
  2051  071C                     	;# 
  2052  071D                     	;# 
  2053  071E                     	;# 
  2054  071F                     	;# 
  2055  078E                     	;# 
  2056  078F                     	;# 
  2057  0790                     	;# 
  2058  0791                     	;# 
  2059  0792                     	;# 
  2060  0793                     	;# 
  2061  0794                     	;# 
  2062  0795                     	;# 
  2063  0796                     	;# 
  2064  0797                     	;# 
  2065  0798                     	;# 
  2066  0799                     	;# 
  2067  079A                     	;# 
  2068  079B                     	;# 
  2069  079C                     	;# 
  2070  079D                     	;# 
  2071  079E                     	;# 
  2072  079F                     	;# 
  2073  080D                     	;# 
  2074  080E                     	;# 
  2075  080F                     	;# 
  2076  0810                     	;# 
  2077  0811                     	;# 
  2078  0812                     	;# 
  2079  0813                     	;# 
  2080  0814                     	;# 
  2081  0815                     	;# 
  2082  0816                     	;# 
  2083  0817                     	;# 
  2084  0818                     	;# 
  2085  0819                     	;# 
  2086  081A                     	;# 
  2087  081B                     	;# 
  2088  081C                     	;# 
  2089  081D                     	;# 
  2090  081E                     	;# 
  2091  081F                     	;# 
  2092  090C                     	;# 
  2093  090D                     	;# 
  2094  090E                     	;# 
  2095  090F                     	;# 
  2096  0910                     	;# 
  2097  0911                     	;# 
  2098  0912                     	;# 
  2099  0913                     	;# 
  2100  0914                     	;# 
  2101  0915                     	;# 
  2102  0916                     	;# 
  2103  0917                     	;# 
  2104  0D8E                     	;# 
  2105  0D8F                     	;# 
  2106  0D90                     	;# 
  2107  0D91                     	;# 
  2108  0D91                     	;# 
  2109  0D92                     	;# 
  2110  0D93                     	;# 
  2111  0D93                     	;# 
  2112  0D94                     	;# 
  2113  0D95                     	;# 
  2114  0D95                     	;# 
  2115  0D96                     	;# 
  2116  0D97                     	;# 
  2117  0D97                     	;# 
  2118  0D98                     	;# 
  2119  0D99                     	;# 
  2120  0D99                     	;# 
  2121  0D9A                     	;# 
  2122  0D9B                     	;# 
  2123  0D9C                     	;# 
  2124  0D9C                     	;# 
  2125  0D9D                     	;# 
  2126  0D9D                     	;# 
  2127  0D9E                     	;# 
  2128  0D9F                     	;# 
  2129  0DA0                     	;# 
  2130  0DA1                     	;# 
  2131  0DA1                     	;# 
  2132  0DA2                     	;# 
  2133  0DA3                     	;# 
  2134  0DA3                     	;# 
  2135  0DA4                     	;# 
  2136  0DA5                     	;# 
  2137  0DA5                     	;# 
  2138  0DA6                     	;# 
  2139  0DA7                     	;# 
  2140  0DA7                     	;# 
  2141  0DA8                     	;# 
  2142  0DA9                     	;# 
  2143  0DA9                     	;# 
  2144  0DAA                     	;# 
  2145  0DAB                     	;# 
  2146  0DAC                     	;# 
  2147  0DAC                     	;# 
  2148  0DAD                     	;# 
  2149  0DAD                     	;# 
  2150  0DAE                     	;# 
  2151  0DAF                     	;# 
  2152  0DB0                     	;# 
  2153  0DB1                     	;# 
  2154  0DB1                     	;# 
  2155  0DB2                     	;# 
  2156  0DB3                     	;# 
  2157  0DB3                     	;# 
  2158  0DB4                     	;# 
  2159  0DB5                     	;# 
  2160  0DB5                     	;# 
  2161  0DB6                     	;# 
  2162  0DB7                     	;# 
  2163  0DB7                     	;# 
  2164  0DB8                     	;# 
  2165  0DB9                     	;# 
  2166  0DB9                     	;# 
  2167  0DBA                     	;# 
  2168  0DBB                     	;# 
  2169  0DBC                     	;# 
  2170  0DBC                     	;# 
  2171  0DBD                     	;# 
  2172  0DBD                     	;# 
  2173  0DBE                     	;# 
  2174  0DBF                     	;# 
  2175  0DC0                     	;# 
  2176  0E0C                     	;# 
  2177  0E0D                     	;# 
  2178  0E0E                     	;# 
  2179  0E0F                     	;# 
  2180  0E10                     	;# 
  2181  0E11                     	;# 
  2182  0E12                     	;# 
  2183  0E13                     	;# 
  2184  0E14                     	;# 
  2185  0E15                     	;# 
  2186  0E15                     	;# 
  2187  0E15                     	;# 
  2188  0E16                     	;# 
  2189  0E16                     	;# 
  2190  0E16                     	;# 
  2191  0E17                     	;# 
  2192  0E17                     	;# 
  2193  0E17                     	;# 
  2194  0E18                     	;# 
  2195  0E18                     	;# 
  2196  0E18                     	;# 
  2197  0E19                     	;# 
  2198  0E1A                     	;# 
  2199  0E1B                     	;# 
  2200  0E1D                     	;# 
  2201  0E1E                     	;# 
  2202  0E1F                     	;# 
  2203  0E21                     	;# 
  2204  0E22                     	;# 
  2205  0E23                     	;# 
  2206  0E24                     	;# 
  2207  0E25                     	;# 
  2208  0E26                     	;# 
  2209  0E27                     	;# 
  2210  0E28                     	;# 
  2211  0E29                     	;# 
  2212  0E2D                     	;# 
  2213  0E2E                     	;# 
  2214  0E2F                     	;# 
  2215  0E30                     	;# 
  2216  0E31                     	;# 
  2217  0E32                     	;# 
  2218  0E35                     	;# 
  2219  0E36                     	;# 
  2220  0E37                     	;# 
  2221  0E38                     	;# 
  2222  0E39                     	;# 
  2223  0E3A                     	;# 
  2224  0E3B                     	;# 
  2225  0E3C                     	;# 
  2226  0E3D                     	;# 
  2227  0E3E                     	;# 
  2228  0E90                     	;# 
  2229  0E91                     	;# 
  2230  0E92                     	;# 
  2231  0E93                     	;# 
  2232  0E94                     	;# 
  2233  0E95                     	;# 
  2234  0E96                     	;# 
  2235  0E97                     	;# 
  2236  0E98                     	;# 
  2237  0E99                     	;# 
  2238  0E9A                     	;# 
  2239  0E9B                     	;# 
  2240  0E9C                     	;# 
  2241  0E9D                     	;# 
  2242  0E9E                     	;# 
  2243  0E9F                     	;# 
  2244  0EA0                     	;# 
  2245  0EA1                     	;# 
  2246  0EA2                     	;# 
  2247  0EA3                     	;# 
  2248  0EA4                     	;# 
  2249  0EA5                     	;# 
  2250  0EA6                     	;# 
  2251  0EA7                     	;# 
  2252  0F0F                     	;# 
  2253  0F10                     	;# 
  2254  0F11                     	;# 
  2255  0F12                     	;# 
  2256  0F13                     	;# 
  2257  0F14                     	;# 
  2258  0F15                     	;# 
  2259  0F16                     	;# 
  2260  0F17                     	;# 
  2261  0F18                     	;# 
  2262  0F19                     	;# 
  2263  0F1A                     	;# 
  2264  0F1B                     	;# 
  2265  0F1C                     	;# 
  2266  0F1D                     	;# 
  2267  0F1E                     	;# 
  2268  0F1F                     	;# 
  2269  0F20                     	;# 
  2270  0F21                     	;# 
  2271  0F22                     	;# 
  2272  0F23                     	;# 
  2273  0F24                     	;# 
  2274  0F25                     	;# 
  2275  0F26                     	;# 
  2276  0F27                     	;# 
  2277  0F28                     	;# 
  2278  0F29                     	;# 
  2279  0F2A                     	;# 
  2280  0F2B                     	;# 
  2281  0F2C                     	;# 
  2282  0F2D                     	;# 
  2283  0F2E                     	;# 
  2284  0F2F                     	;# 
  2285  0F30                     	;# 
  2286  0F31                     	;# 
  2287  0F32                     	;# 
  2288  0F33                     	;# 
  2289  0F34                     	;# 
  2290  0F35                     	;# 
  2291  0F36                     	;# 
  2292  0F37                     	;# 
  2293  0FE4                     	;# 
  2294  0FE5                     	;# 
  2295  0FE6                     	;# 
  2296  0FE7                     	;# 
  2297  0FE8                     	;# 
  2298  0FE9                     	;# 
  2299  0FEA                     	;# 
  2300  0FEB                     	;# 
  2301  0FED                     	;# 
  2302  0FEE                     	;# 
  2303  0FEF                     	;# 
  2304  0000                     	;# 
  2305  0001                     	;# 
  2306  0002                     	;# 
  2307  0003                     	;# 
  2308  0004                     	;# 
  2309  0005                     	;# 
  2310  0006                     	;# 
  2311  0007                     	;# 
  2312  0008                     	;# 
  2313  0009                     	;# 
  2314  000A                     	;# 
  2315  000B                     	;# 
  2316  000C                     	;# 
  2317  000D                     	;# 
  2318  000E                     	;# 
  2319  0010                     	;# 
  2320  0011                     	;# 
  2321  0012                     	;# 
  2322  0013                     	;# 
  2323  0014                     	;# 
  2324  0015                     	;# 
  2325  0016                     	;# 
  2326  0017                     	;# 
  2327  0018                     	;# 
  2328  0018                     	;# 
  2329  0019                     	;# 
  2330  001A                     	;# 
  2331  001B                     	;# 
  2332  001C                     	;# 
  2333  001C                     	;# 
  2334  001D                     	;# 
  2335  001E                     	;# 
  2336  001F                     	;# 
  2337  008C                     	;# 
  2338  008D                     	;# 
  2339  008E                     	;# 
  2340  0090                     	;# 
  2341  0091                     	;# 
  2342  0092                     	;# 
  2343  0093                     	;# 
  2344  0094                     	;# 
  2345  0095                     	;# 
  2346  0096                     	;# 
  2347  0097                     	;# 
  2348  0098                     	;# 
  2349  0099                     	;# 
  2350  009A                     	;# 
  2351  009B                     	;# 
  2352  009C                     	;# 
  2353  009D                     	;# 
  2354  009E                     	;# 
  2355  009F                     	;# 
  2356  010C                     	;# 
  2357  010D                     	;# 
  2358  010E                     	;# 
  2359  0111                     	;# 
  2360  0112                     	;# 
  2361  0113                     	;# 
  2362  0114                     	;# 
  2363  0115                     	;# 
  2364  0116                     	;# 
  2365  0117                     	;# 
  2366  0118                     	;# 
  2367  0119                     	;# 
  2368  011A                     	;# 
  2369  011B                     	;# 
  2370  011C                     	;# 
  2371  011D                     	;# 
  2372  018C                     	;# 
  2373  018D                     	;# 
  2374  018E                     	;# 
  2375  0191                     	;# 
  2376  0191                     	;# 
  2377  0192                     	;# 
  2378  0193                     	;# 
  2379  0193                     	;# 
  2380  0194                     	;# 
  2381  0195                     	;# 
  2382  0196                     	;# 
  2383  0197                     	;# 
  2384  0199                     	;# 
  2385  0199                     	;# 
  2386  0199                     	;# 
  2387  019A                     	;# 
  2388  019A                     	;# 
  2389  019A                     	;# 
  2390  019B                     	;# 
  2391  019B                     	;# 
  2392  019B                     	;# 
  2393  019B                     	;# 
  2394  019B                     	;# 
  2395  019C                     	;# 
  2396  019C                     	;# 
  2397  019C                     	;# 
  2398  019D                     	;# 
  2399  019D                     	;# 
  2400  019D                     	;# 
  2401  019E                     	;# 
  2402  019E                     	;# 
  2403  019E                     	;# 
  2404  019F                     	;# 
  2405  019F                     	;# 
  2406  019F                     	;# 
  2407  019F                     	;# 
  2408  019F                     	;# 
  2409  020C                     	;# 
  2410  020D                     	;# 
  2411  020E                     	;# 
  2412  0210                     	;# 
  2413  0211                     	;# 
  2414  0211                     	;# 
  2415  0212                     	;# 
  2416  0212                     	;# 
  2417  0213                     	;# 
  2418  0213                     	;# 
  2419  0214                     	;# 
  2420  0214                     	;# 
  2421  0215                     	;# 
  2422  0215                     	;# 
  2423  0215                     	;# 
  2424  0215                     	;# 
  2425  0216                     	;# 
  2426  0216                     	;# 
  2427  0217                     	;# 
  2428  0217                     	;# 
  2429  021B                     	;# 
  2430  021C                     	;# 
  2431  021D                     	;# 
  2432  021E                     	;# 
  2433  021F                     	;# 
  2434  028C                     	;# 
  2435  028D                     	;# 
  2436  028E                     	;# 
  2437  0291                     	;# 
  2438  0291                     	;# 
  2439  0292                     	;# 
  2440  0293                     	;# 
  2441  0294                     	;# 
  2442  0295                     	;# 
  2443  0295                     	;# 
  2444  0296                     	;# 
  2445  0297                     	;# 
  2446  0298                     	;# 
  2447  0299                     	;# 
  2448  0299                     	;# 
  2449  029A                     	;# 
  2450  029B                     	;# 
  2451  029C                     	;# 
  2452  029E                     	;# 
  2453  029F                     	;# 
  2454  030C                     	;# 
  2455  030D                     	;# 
  2456  030E                     	;# 
  2457  0315                     	;# 
  2458  0316                     	;# 
  2459  0317                     	;# 
  2460  0318                     	;# 
  2461  0319                     	;# 
  2462  031B                     	;# 
  2463  031C                     	;# 
  2464  031D                     	;# 
  2465  031E                     	;# 
  2466  031F                     	;# 
  2467  038C                     	;# 
  2468  038D                     	;# 
  2469  038E                     	;# 
  2470  0390                     	;# 
  2471  0391                     	;# 
  2472  0392                     	;# 
  2473  0393                     	;# 
  2474  0394                     	;# 
  2475  0395                     	;# 
  2476  0396                     	;# 
  2477  0397                     	;# 
  2478  0398                     	;# 
  2479  0399                     	;# 
  2480  039D                     	;# 
  2481  039E                     	;# 
  2482  039F                     	;# 
  2483  040D                     	;# 
  2484  040F                     	;# 
  2485  040F                     	;# 
  2486  0410                     	;# 
  2487  0411                     	;# 
  2488  0412                     	;# 
  2489  0413                     	;# 
  2490  0413                     	;# 
  2491  0414                     	;# 
  2492  0414                     	;# 
  2493  0415                     	;# 
  2494  0416                     	;# 
  2495  0417                     	;# 
  2496  0418                     	;# 
  2497  041A                     	;# 
  2498  041A                     	;# 
  2499  041B                     	;# 
  2500  041B                     	;# 
  2501  041C                     	;# 
  2502  041D                     	;# 
  2503  041E                     	;# 
  2504  041F                     	;# 
  2505  048E                     	;# 
  2506  048E                     	;# 
  2507  048F                     	;# 
  2508  0490                     	;# 
  2509  0491                     	;# 
  2510  0492                     	;# 
  2511  0493                     	;# 
  2512  0493                     	;# 
  2513  0494                     	;# 
  2514  0494                     	;# 
  2515  0495                     	;# 
  2516  0496                     	;# 
  2517  0497                     	;# 
  2518  0498                     	;# 
  2519  049A                     	;# 
  2520  049A                     	;# 
  2521  049B                     	;# 
  2522  049B                     	;# 
  2523  049C                     	;# 
  2524  049D                     	;# 
  2525  049E                     	;# 
  2526  049F                     	;# 
  2527  050F                     	;# 
  2528  0510                     	;# 
  2529  0511                     	;# 
  2530  0512                     	;# 
  2531  0513                     	;# 
  2532  0514                     	;# 
  2533  0515                     	;# 
  2534  0516                     	;# 
  2535  0517                     	;# 
  2536  0518                     	;# 
  2537  0519                     	;# 
  2538  051A                     	;# 
  2539  058D                     	;# 
  2540  058E                     	;# 
  2541  058F                     	;# 
  2542  058F                     	;# 
  2543  058F                     	;# 
  2544  0590                     	;# 
  2545  0590                     	;# 
  2546  0591                     	;# 
  2547  0592                     	;# 
  2548  0592                     	;# 
  2549  0592                     	;# 
  2550  0593                     	;# 
  2551  0593                     	;# 
  2552  0594                     	;# 
  2553  0595                     	;# 
  2554  0595                     	;# 
  2555  0596                     	;# 
  2556  0597                     	;# 
  2557  0597                     	;# 
  2558  0598                     	;# 
  2559  0599                     	;# 
  2560  0599                     	;# 
  2561  0599                     	;# 
  2562  059A                     	;# 
  2563  059A                     	;# 
  2564  059E                     	;# 
  2565  059F                     	;# 
  2566  059F                     	;# 
  2567  0614                     	;# 
  2568  0614                     	;# 
  2569  0615                     	;# 
  2570  0616                     	;# 
  2571  0617                     	;# 
  2572  0617                     	;# 
  2573  0618                     	;# 
  2574  0619                     	;# 
  2575  061A                     	;# 
  2576  061A                     	;# 
  2577  061B                     	;# 
  2578  061C                     	;# 
  2579  068D                     	;# 
  2580  068E                     	;# 
  2581  068F                     	;# 
  2582  0690                     	;# 
  2583  0691                     	;# 
  2584  0692                     	;# 
  2585  0693                     	;# 
  2586  0694                     	;# 
  2587  0695                     	;# 
  2588  0696                     	;# 
  2589  0697                     	;# 
  2590  0698                     	;# 
  2591  0699                     	;# 
  2592  069A                     	;# 
  2593  069B                     	;# 
  2594  069C                     	;# 
  2595  069D                     	;# 
  2596  069E                     	;# 
  2597  069F                     	;# 
  2598  070D                     	;# 
  2599  070E                     	;# 
  2600  070F                     	;# 
  2601  0710                     	;# 
  2602  0711                     	;# 
  2603  0712                     	;# 
  2604  0713                     	;# 
  2605  0714                     	;# 
  2606  0715                     	;# 
  2607  0716                     	;# 
  2608  0717                     	;# 
  2609  0718                     	;# 
  2610  0719                     	;# 
  2611  071A                     	;# 
  2612  071B                     	;# 
  2613  071C                     	;# 
  2614  071D                     	;# 
  2615  071E                     	;# 
  2616  071F                     	;# 
  2617  078E                     	;# 
  2618  078F                     	;# 
  2619  0790                     	;# 
  2620  0791                     	;# 
  2621  0792                     	;# 
  2622  0793                     	;# 
  2623  0794                     	;# 
  2624  0795                     	;# 
  2625  0796                     	;# 
  2626  0797                     	;# 
  2627  0798                     	;# 
  2628  0799                     	;# 
  2629  079A                     	;# 
  2630  079B                     	;# 
  2631  079C                     	;# 
  2632  079D                     	;# 
  2633  079E                     	;# 
  2634  079F                     	;# 
  2635  080D                     	;# 
  2636  080E                     	;# 
  2637  080F                     	;# 
  2638  0810                     	;# 
  2639  0811                     	;# 
  2640  0812                     	;# 
  2641  0813                     	;# 
  2642  0814                     	;# 
  2643  0815                     	;# 
  2644  0816                     	;# 
  2645  0817                     	;# 
  2646  0818                     	;# 
  2647  0819                     	;# 
  2648  081A                     	;# 
  2649  081B                     	;# 
  2650  081C                     	;# 
  2651  081D                     	;# 
  2652  081E                     	;# 
  2653  081F                     	;# 
  2654  090C                     	;# 
  2655  090D                     	;# 
  2656  090E                     	;# 
  2657  090F                     	;# 
  2658  0910                     	;# 
  2659  0911                     	;# 
  2660  0912                     	;# 
  2661  0913                     	;# 
  2662  0914                     	;# 
  2663  0915                     	;# 
  2664  0916                     	;# 
  2665  0917                     	;# 
  2666  0D8E                     	;# 
  2667  0D8F                     	;# 
  2668  0D90                     	;# 
  2669  0D91                     	;# 
  2670  0D91                     	;# 
  2671  0D92                     	;# 
  2672  0D93                     	;# 
  2673  0D93                     	;# 
  2674  0D94                     	;# 
  2675  0D95                     	;# 
  2676  0D95                     	;# 
  2677  0D96                     	;# 
  2678  0D97                     	;# 
  2679  0D97                     	;# 
  2680  0D98                     	;# 
  2681  0D99                     	;# 
  2682  0D99                     	;# 
  2683  0D9A                     	;# 
  2684  0D9B                     	;# 
  2685  0D9C                     	;# 
  2686  0D9C                     	;# 
  2687  0D9D                     	;# 
  2688  0D9D                     	;# 
  2689  0D9E                     	;# 
  2690  0D9F                     	;# 
  2691  0DA0                     	;# 
  2692  0DA1                     	;# 
  2693  0DA1                     	;# 
  2694  0DA2                     	;# 
  2695  0DA3                     	;# 
  2696  0DA3                     	;# 
  2697  0DA4                     	;# 
  2698  0DA5                     	;# 
  2699  0DA5                     	;# 
  2700  0DA6                     	;# 
  2701  0DA7                     	;# 
  2702  0DA7                     	;# 
  2703  0DA8                     	;# 
  2704  0DA9                     	;# 
  2705  0DA9                     	;# 
  2706  0DAA                     	;# 
  2707  0DAB                     	;# 
  2708  0DAC                     	;# 
  2709  0DAC                     	;# 
  2710  0DAD                     	;# 
  2711  0DAD                     	;# 
  2712  0DAE                     	;# 
  2713  0DAF                     	;# 
  2714  0DB0                     	;# 
  2715  0DB1                     	;# 
  2716  0DB1                     	;# 
  2717  0DB2                     	;# 
  2718  0DB3                     	;# 
  2719  0DB3                     	;# 
  2720  0DB4                     	;# 
  2721  0DB5                     	;# 
  2722  0DB5                     	;# 
  2723  0DB6                     	;# 
  2724  0DB7                     	;# 
  2725  0DB7                     	;# 
  2726  0DB8                     	;# 
  2727  0DB9                     	;# 
  2728  0DB9                     	;# 
  2729  0DBA                     	;# 
  2730  0DBB                     	;# 
  2731  0DBC                     	;# 
  2732  0DBC                     	;# 
  2733  0DBD                     	;# 
  2734  0DBD                     	;# 
  2735  0DBE                     	;# 
  2736  0DBF                     	;# 
  2737  0DC0                     	;# 
  2738  0E0C                     	;# 
  2739  0E0D                     	;# 
  2740  0E0E                     	;# 
  2741  0E0F                     	;# 
  2742  0E10                     	;# 
  2743  0E11                     	;# 
  2744  0E12                     	;# 
  2745  0E13                     	;# 
  2746  0E14                     	;# 
  2747  0E15                     	;# 
  2748  0E15                     	;# 
  2749  0E15                     	;# 
  2750  0E16                     	;# 
  2751  0E16                     	;# 
  2752  0E16                     	;# 
  2753  0E17                     	;# 
  2754  0E17                     	;# 
  2755  0E17                     	;# 
  2756  0E18                     	;# 
  2757  0E18                     	;# 
  2758  0E18                     	;# 
  2759  0E19                     	;# 
  2760  0E1A                     	;# 
  2761  0E1B                     	;# 
  2762  0E1D                     	;# 
  2763  0E1E                     	;# 
  2764  0E1F                     	;# 
  2765  0E21                     	;# 
  2766  0E22                     	;# 
  2767  0E23                     	;# 
  2768  0E24                     	;# 
  2769  0E25                     	;# 
  2770  0E26                     	;# 
  2771  0E27                     	;# 
  2772  0E28                     	;# 
  2773  0E29                     	;# 
  2774  0E2D                     	;# 
  2775  0E2E                     	;# 
  2776  0E2F                     	;# 
  2777  0E30                     	;# 
  2778  0E31                     	;# 
  2779  0E32                     	;# 
  2780  0E35                     	;# 
  2781  0E36                     	;# 
  2782  0E37                     	;# 
  2783  0E38                     	;# 
  2784  0E39                     	;# 
  2785  0E3A                     	;# 
  2786  0E3B                     	;# 
  2787  0E3C                     	;# 
  2788  0E3D                     	;# 
  2789  0E3E                     	;# 
  2790  0E90                     	;# 
  2791  0E91                     	;# 
  2792  0E92                     	;# 
  2793  0E93                     	;# 
  2794  0E94                     	;# 
  2795  0E95                     	;# 
  2796  0E96                     	;# 
  2797  0E97                     	;# 
  2798  0E98                     	;# 
  2799  0E99                     	;# 
  2800  0E9A                     	;# 
  2801  0E9B                     	;# 
  2802  0E9C                     	;# 
  2803  0E9D                     	;# 
  2804  0E9E                     	;# 
  2805  0E9F                     	;# 
  2806  0EA0                     	;# 
  2807  0EA1                     	;# 
  2808  0EA2                     	;# 
  2809  0EA3                     	;# 
  2810  0EA4                     	;# 
  2811  0EA5                     	;# 
  2812  0EA6                     	;# 
  2813  0EA7                     	;# 
  2814  0F0F                     	;# 
  2815  0F10                     	;# 
  2816  0F11                     	;# 
  2817  0F12                     	;# 
  2818  0F13                     	;# 
  2819  0F14                     	;# 
  2820  0F15                     	;# 
  2821  0F16                     	;# 
  2822  0F17                     	;# 
  2823  0F18                     	;# 
  2824  0F19                     	;# 
  2825  0F1A                     	;# 
  2826  0F1B                     	;# 
  2827  0F1C                     	;# 
  2828  0F1D                     	;# 
  2829  0F1E                     	;# 
  2830  0F1F                     	;# 
  2831  0F20                     	;# 
  2832  0F21                     	;# 
  2833  0F22                     	;# 
  2834  0F23                     	;# 
  2835  0F24                     	;# 
  2836  0F25                     	;# 
  2837  0F26                     	;# 
  2838  0F27                     	;# 
  2839  0F28                     	;# 
  2840  0F29                     	;# 
  2841  0F2A                     	;# 
  2842  0F2B                     	;# 
  2843  0F2C                     	;# 
  2844  0F2D                     	;# 
  2845  0F2E                     	;# 
  2846  0F2F                     	;# 
  2847  0F30                     	;# 
  2848  0F31                     	;# 
  2849  0F32                     	;# 
  2850  0F33                     	;# 
  2851  0F34                     	;# 
  2852  0F35                     	;# 
  2853  0F36                     	;# 
  2854  0F37                     	;# 
  2855  0FE4                     	;# 
  2856  0FE5                     	;# 
  2857  0FE6                     	;# 
  2858  0FE7                     	;# 
  2859  0FE8                     	;# 
  2860  0FE9                     	;# 
  2861  0FEA                     	;# 
  2862  0FEB                     	;# 
  2863  0FED                     	;# 
  2864  0FEE                     	;# 
  2865  0FEF                     	;# 
  2866                           
  2867                           	psect	stringtext1
  2868  00C8                     __pstringtext1:	
  2869  00C8                     _saludo:	
  2870  00C8  3442               	retlw	66
  2871  00C9  3469               	retlw	105
  2872  00CA  3465               	retlw	101
  2873  00CB  346E               	retlw	110
  2874  00CC  3476               	retlw	118
  2875  00CD  3465               	retlw	101
  2876  00CE  346E               	retlw	110
  2877  00CF  3469               	retlw	105
  2878  00D0  3464               	retlw	100
  2879  00D1  346F               	retlw	111
  2880  00D2  342C               	retlw	44
  2881  00D3  3420               	retlw	32
  2882  00D4  3479               	retlw	121
  2883  00D5  3461               	retlw	97
  2884  00D6  3420               	retlw	32
  2885  00D7  3470               	retlw	112
  2886  00D8  3475               	retlw	117
  2887  00D9  3465               	retlw	101
  2888  00DA  3464               	retlw	100
  2889  00DB  3465               	retlw	101
  2890  00DC  3420               	retlw	32
  2891  00DD  3463               	retlw	99
  2892  00DE  346F               	retlw	111
  2893  00DF  346E               	retlw	110
  2894  00E0  3474               	retlw	116
  2895  00E1  3472               	retlw	114
  2896  00E2  346F               	retlw	111
  2897  00E3  346C               	retlw	108
  2898  00E4  3461               	retlw	97
  2899  00E5  3472               	retlw	114
  2900  00E6  3420               	retlw	32
  2901  00E7  3465               	retlw	101
  2902  00E8  346C               	retlw	108
  2903  00E9  3420               	retlw	32
  2904  00EA  3464               	retlw	100
  2905  00EB  3465               	retlw	101
  2906  00EC  3473               	retlw	115
  2907  00ED  3470               	retlw	112
  2908  00EE  346C               	retlw	108
  2909  00EF  3461               	retlw	97
  2910  00F0  347A               	retlw	122
  2911  00F1  3461               	retlw	97
  2912  00F2  3464               	retlw	100
  2913  00F3  346F               	retlw	111
  2914  00F4  3472               	retlw	114
  2915  00F5  3420               	retlw	32
  2916  00F6  3458               	retlw	88
  2917  00F7  3459               	retlw	89
  2918  00F8  3420               	retlw	32
  2919  00F9  3400               	retlw	0
  2920  00FA                     __end_of_saludo:	
  2921                           
  2922                           	psect	stringtext2
  2923  012F                     __pstringtext2:	
  2924  012F                     _mensaje:	
  2925  012F  3476               	retlw	118
  2926  0130  3461               	retlw	97
  2927  0131  346C               	retlw	108
  2928  0132  346F               	retlw	111
  2929  0133  3472               	retlw	114
  2930  0134  3420               	retlw	32
  2931  0135  3474               	retlw	116
  2932  0136  3465               	retlw	101
  2933  0137  346D               	retlw	109
  2934  0138  3470               	retlw	112
  2935  0139  3420               	retlw	32
  2936  013A  3465               	retlw	101
  2937  013B  346E               	retlw	110
  2938  013C  3420               	retlw	32
  2939  013D  3443               	retlw	67
  2940  013E  343A               	retlw	58
  2941  013F  3400               	retlw	0
  2942  0140                     __end_of_mensaje:	
  2943                           
  2944                           	psect	nvBANK0
  2945  005D                     __pnvBANK0:	
  2946  005D                     _band_aux:	
  2947  005D                     	ds	2
  2948  000B                     _INTCONbits	set	11
  2949  0097                     _OPTION_REGbits	set	151
  2950  0091                     _PIE1bits	set	145
  2951  008E                     _TRISCbits	set	142
  2952  008C                     _TRISAbits	set	140
  2953  009B                     _OSCCONbits	set	155
  2954  010E                     _LATC	set	270
  2955  010D                     _LATB	set	269
  2956  010C                     _LATA	set	268
  2957  010C                     _LATAbits	set	268
  2958  019B                     _SP1BRG	set	411
  2959  019D                     _RC1STAbits	set	413
  2960  019E                     _TX1STAbits	set	414
  2961  019F                     _BAUD1CONbits	set	415
  2962  018E                     _ANSELCbits	set	398
  2963  018C                     _ANSELAbits	set	396
  2964  019E                     _TXSTAbits	set	414
  2965  019A                     _TX1REG	set	410
  2966  020E                     _WPUCbits	set	526
  2967  020C                     _WPUAbits	set	524
  2968  0490                     _ADCON0bits	set	1168
  2969  0491                     _ADCON1bits	set	1169
  2970                           
  2971                           	psect	stringtext3
  2972  0117                     __pstringtext3:	
  2973  0117                     STR_1:	
  2974  0117  3443               	retlw	67	;'C'
  2975  0118  346F               	retlw	111	;'o'
  2976  0119  346D               	retlw	109	;'m'
  2977  011A  3461               	retlw	97	;'a'
  2978  011B  346E               	retlw	110	;'n'
  2979  011C  3464               	retlw	100	;'d'
  2980  011D  346F               	retlw	111	;'o'
  2981  011E  3420               	retlw	32	;' '
  2982  011F  346E               	retlw	110	;'n'
  2983  0120  346F               	retlw	111	;'o'
  2984  0121  3420               	retlw	32	;' '
  2985  0122  3472               	retlw	114	;'r'
  2986  0123  3465               	retlw	101	;'e'
  2987  0124  3463               	retlw	99	;'c'
  2988  0125  346F               	retlw	111	;'o'
  2989  0126  346E               	retlw	110	;'n'
  2990  0127  346F               	retlw	111	;'o'
  2991  0128  3463               	retlw	99	;'c'
  2992  0129  3469               	retlw	105	;'i'
  2993  012A  3464               	retlw	100	;'d'
  2994  012B  346F               	retlw	111	;'o'
  2995  012C  340A               	retlw	10
  2996  012D  340D               	retlw	13
  2997  012E  3400               	retlw	0
  2998                           
  2999                           	psect	stringtext4
  3000  0000                     __pstringtext4:	
  3001                           
  3002                           ; #config settings
  3003  0000                     
  3004                           	psect	cinit
  3005  001A                     start_initialization:	
  3006  001A                     __initialization:	
  3007                           
  3008                           ; Clear objects allocated to COMMON
  3009  001A  3070               	movlw	low __pbssCOMMON
  3010  001B  0084               	movwf	4
  3011  001C  3000               	movlw	high __pbssCOMMON
  3012  001D  0085               	movwf	5
  3013  001E  3008               	movlw	8
  3014  001F  3181  2148  3180   	fcall	clear_ram0
  3015                           
  3016                           ; Clear objects allocated to BANK0
  3017  0022  3020               	movlw	low __pbssBANK0
  3018  0023  0084               	movwf	4
  3019  0024  3000               	movlw	high __pbssBANK0
  3020  0025  0085               	movwf	5
  3021  0026  303D               	movlw	61
  3022  0027  3181  2148  3180   	fcall	clear_ram0
  3023                           
  3024                           ; Clear objects allocated to BANK1
  3025  002A  30A0               	movlw	low __pbssBANK1
  3026  002B  0084               	movwf	4
  3027  002C  3000               	movlw	high __pbssBANK1
  3028  002D  0085               	movwf	5
  3029  002E  3019               	movlw	25
  3030  002F  3181  2148  3180   	fcall	clear_ram0
  3031  0032                     end_of_initialization:	
  3032                           ;End of C runtime variable initialization code
  3033                           
  3034  0032                     __end_of__initialization:	
  3035  0032  107E               	bcf	int$flags,0	;clear compiler interrupt flag (level 1)
  3036  0033  0020               	movlb	0
  3037  0034  3180  2836         	ljmp	_main	;jump to C main() function
  3038                           
  3039                           	psect	bssCOMMON
  3040  0070                     __pbssCOMMON:	
  3041  0070                     _cont_led:	
  3042  0070                     	ds	2
  3043  0072                     _i:	
  3044  0072                     	ds	2
  3045  0074                     _led:	
  3046  0074                     	ds	2
  3047  0076                     _AD_almacenado:	
  3048  0076                     	ds	2
  3049                           
  3050                           	psect	bssBANK0
  3051  0020                     __pbssBANK0:	
  3052  0020                     _str2:	
  3053  0020                     	ds	16
  3054  0030                     _str1:	
  3055  0030                     	ds	10
  3056  003A                     _str3:	
  3057  003A                     	ds	5
  3058  003F                     _temp:	
  3059  003F                     	ds	4
  3060  0043                     _v_sensor:	
  3061  0043                     	ds	4
  3062  0047                     _str4:	
  3063  0047                     	ds	22
  3064                           
  3065                           	psect	bssBANK1
  3066  00A0                     __pbssBANK1:	
  3067  00A0                     _salida:	
  3068  00A0                     	ds	25
  3069                           
  3070                           	psect	clrtext
  3071  0148                     clear_ram0:	
  3072                           ;	Called with FSR0 containing the base address, and
  3073                           ;	WREG with the size to clear
  3074                           
  3075  0148  0064               	clrwdt	;clear the watchdog before getting into this loop
  3076  0149                     clrloop0:	
  3077  0149  0180               	clrf	0	;clear RAM location pointed to by FSR
  3078  014A  3101               	addfsr 0,1
  3079  014B  0B89               	decfsz	9,f	;Have we reached the end of clearing yet?
  3080  014C  2949               	goto	clrloop0	;have we reached the end yet?
  3081  014D  3400               	retlw	0	;all done for this memory range, return
  3082                           
  3083                           	psect	cstackCOMMON
  3084  0078                     __pcstackCOMMON:	
  3085  0078                     ?_ConfigureOscillator:	
  3086  0078                     ??_ConfigureOscillator:	
  3087                           ; 1 bytes @ 0x0
  3088                           
  3089  0078                     ?_InitApp:	
  3090                           ; 1 bytes @ 0x0
  3091                           
  3092  0078                     ??_InitApp:	
  3093                           ; 1 bytes @ 0x0
  3094                           
  3095  0078                     ?_strcpy:	
  3096                           ; 1 bytes @ 0x0
  3097                           
  3098  0078                     ?_isr:	
  3099                           ; 1 bytes @ 0x0
  3100                           
  3101  0078                     ??_isr:	
  3102                           ; 1 bytes @ 0x0
  3103                           
  3104  0078                     ?_main:	
  3105                           ; 1 bytes @ 0x0
  3106                           
  3107  0078                     strcpy@from:	
  3108                           ; 1 bytes @ 0x0
  3109                           
  3110                           
  3111                           ; 2 bytes @ 0x0
  3112  0078                     	ds	2
  3113  007A                     ??_strcpy:	
  3114                           
  3115                           ; 1 bytes @ 0x2
  3116  007A                     	ds	1
  3117  007B                     strcpy@to:	
  3118                           
  3119                           ; 1 bytes @ 0x3
  3120  007B                     	ds	1
  3121  007C                     strcpy@cp:	
  3122                           
  3123                           ; 1 bytes @ 0x4
  3124  007C                     	ds	1
  3125  007D                     ??_main:	
  3126                           
  3127                           ; 1 bytes @ 0x5
  3128  007D                     	ds	1
  3129                           
  3130                           	psect	maintext
  3131  0036                     __pmaintext:	
  3132 ;;
  3133 ;;Main: autosize = 0, tempsize = 1, incstack = 0, save=0
  3134 ;;
  3135 ;; *************** function _main *****************
  3136 ;; Defined at:
  3137 ;;		line 47 in file "main.c"
  3138 ;; Parameters:    Size  Location     Type
  3139 ;;		None
  3140 ;; Auto vars:     Size  Location     Type
  3141 ;;		None
  3142 ;; Return value:  Size  Location     Type
  3143 ;;                  1    wreg      void 
  3144 ;; Registers used:
  3145 ;;		wreg, fsr0l, fsr0h, fsr1l, fsr1h, status,2, status,0, pclath, cstack
  3146 ;; Tracked objects:
  3147 ;;		On entry : B1F/0
  3148 ;;		On exit  : 0/0
  3149 ;;		Unchanged: 0/0
  3150 ;; Data sizes:     COMMON   BANK0   BANK1   BANK2   BANK3   BANK4   BANK5   BANK6
  3151 ;;      Params:         0       0       0       0       0       0       0       0
  3152 ;;      Locals:         0       0       0       0       0       0       0       0
  3153 ;;      Temps:          1       0       0       0       0       0       0       0
  3154 ;;      Totals:         1       0       0       0       0       0       0       0
  3155 ;;Total ram usage:        1 bytes
  3156 ;; Hardware stack levels required when called:    2
  3157 ;; This function calls:
  3158 ;;		_ConfigureOscillator
  3159 ;;		_InitApp
  3160 ;;		_strcpy
  3161 ;; This function is called by:
  3162 ;;		Startup code after reset
  3163 ;; This function uses a non-reentrant model
  3164 ;;
  3165                           
  3166                           
  3167                           ;psect for function _main
  3168  0036                     _main:	
  3169  0036                     l927:	
  3170                           ;incstack = 0
  3171                           ; Regs used in _main: [wreg-fsr1h+status,2+status,0+pclath+cstack]
  3172                           
  3173                           
  3174                           ;main.c: 50: ConfigureOscillator();
  3175  0036  3181  2140  3180   	fcall	_ConfigureOscillator
  3176                           
  3177                           ;main.c: 53: InitApp();
  3178  0039  3180  2084  3180   	fcall	_InitApp
  3179  003C                     l929:	
  3180                           
  3181                           ;main.c: 57: {;main.c: 62: band_aux = 0;
  3182  003C  0020               	movlb	0	; select bank0
  3183  003D  01DD               	clrf	_band_aux
  3184  003E  01DE               	clrf	_band_aux+1
  3185  003F                     l931:	
  3186                           
  3187                           ;main.c: 63: strcpy(str4, "Comando no reconocido\n\r");
  3188  003F  3017               	movlw	low (STR_1| (0+32768))
  3189  0040  00F8               	movwf	strcpy@from
  3190  0041  3081               	movlw	high (STR_1| (0+32768))
  3191  0042  00F9               	movwf	strcpy@from+1
  3192  0043  3047               	movlw	(low (_str4| 0))& (0+255)
  3193  0044  3180  20FA  3180   	fcall	_strcpy
  3194  0047                     l933:	
  3195                           
  3196                           ;main.c: 64: if(led>10){
  3197  0047  0875               	movf	_led+1,w
  3198  0048  3A80               	xorlw	128
  3199  0049  00FD               	movwf	??_main
  3200  004A  3080               	movlw	128
  3201  004B  027D               	subwf	??_main,w
  3202  004C  1D03               	skipz
  3203  004D  2850               	goto	u145
  3204  004E  300B               	movlw	11
  3205  004F  0274               	subwf	_led,w
  3206  0050                     u145:	
  3207  0050  1C03               	skipc
  3208  0051  2853               	goto	u141
  3209  0052  2854               	goto	u140
  3210  0053                     u141:	
  3211  0053  283C               	goto	l929
  3212  0054                     u140:	
  3213  0054                     l935:	
  3214                           
  3215                           ;main.c: 65: LATAbits.LATA1= ~LATAbits.LATA1;
  3216  0054  1003               	clrc
  3217  0055  0022               	movlb	2	; select bank2
  3218  0056  1C8C               	btfss	12,1	;volatile
  3219  0057  1403               	setc
  3220  0058  1803               	btfsc	3,0
  3221  0059  285B               	goto	u151
  3222  005A  285E               	goto	u150
  3223  005B                     u151:	
  3224  005B  0022               	movlb	2	; select bank2
  3225  005C  148C               	bsf	12,1	;volatile
  3226  005D  2860               	goto	u164
  3227  005E                     u150:	
  3228  005E  0022               	movlb	2	; select bank2
  3229  005F  108C               	bcf	12,1	;volatile
  3230  0060                     u164:	
  3231  0060                     l937:	
  3232                           
  3233                           ;main.c: 66: led=0;
  3234  0060  01F4               	clrf	_led
  3235  0061  01F5               	clrf	_led+1
  3236  0062                     l939:	
  3237                           
  3238                           ;main.c: 70: for (i = 0; i < 22; i++) {
  3239  0062  01F2               	clrf	_i
  3240  0063  01F3               	clrf	_i+1
  3241  0064                     l945:	
  3242                           
  3243                           ;main.c: 71: TX1REG = str4[i];
  3244  0064  0872               	movf	_i,w
  3245  0065  3E47               	addlw	(low (_str4| 0))& (0+255)
  3246  0066  0086               	movwf	6
  3247  0067  0187               	clrf	7
  3248  0068  0801               	movf	1,w
  3249  0069  0023               	movlb	3	; select bank3
  3250  006A  009A               	movwf	26	;volatile
  3251  006B                     l84:	
  3252                           ;main.c: 72: while (TXSTAbits.TRMT == 0);
  3253                           
  3254  006B  1C9E               	btfss	30,1	;volatile
  3255  006C  286E               	goto	u171
  3256  006D  286F               	goto	u170
  3257  006E                     u171:	
  3258  006E  286B               	goto	l84
  3259  006F                     u170:	
  3260  006F                     l86:	
  3261                           
  3262                           ;main.c: 73: __nop();
  3263  006F  0000               	nop
  3264  0070                     l947:	
  3265  0070  3001               	movlw	1
  3266  0071  07F2               	addwf	_i,f
  3267  0072  3000               	movlw	0
  3268  0073  3DF3               	addwfc	_i+1,f
  3269  0074  0873               	movf	_i+1,w
  3270  0075  3A80               	xorlw	128
  3271  0076  00FD               	movwf	??_main
  3272  0077  3080               	movlw	128
  3273  0078  027D               	subwf	??_main,w
  3274  0079  1D03               	skipz
  3275  007A  287D               	goto	u185
  3276  007B  3016               	movlw	22
  3277  007C  0272               	subwf	_i,w
  3278  007D                     u185:	
  3279  007D  1C03               	skipc
  3280  007E  2880               	goto	u181
  3281  007F  2881               	goto	u180
  3282  0080                     u181:	
  3283  0080  2864               	goto	l945
  3284  0081                     u180:	
  3285  0081  283C               	goto	l929
  3286  0082  3180  2818         	ljmp	start
  3287  0084                     __end_of_main:	
  3288                           
  3289                           	psect	text1
  3290  00FA                     __ptext1:	
  3291 ;; *************** function _strcpy *****************
  3292 ;; Defined at:
  3293 ;;		line 8 in file "C:\Program Files (x86)\Microchip\xc8\v2.10\pic\sources\c90\common\strcpy.c"
  3294 ;; Parameters:    Size  Location     Type
  3295 ;;  to              1    wreg     PTR unsigned char 
  3296 ;;		 -> str4(22), 
  3297 ;;  from            2    0[COMMON] PTR const unsigned char 
  3298 ;;		 -> STR_1(24), 
  3299 ;; Auto vars:     Size  Location     Type
  3300 ;;  to              1    3[COMMON] PTR unsigned char 
  3301 ;;		 -> str4(22), 
  3302 ;;  cp              1    4[COMMON] PTR unsigned char 
  3303 ;;		 -> str4(22), 
  3304 ;; Return value:  Size  Location     Type
  3305 ;;                  1    wreg      PTR unsigned char 
  3306 ;; Registers used:
  3307 ;;		wreg, fsr0l, fsr0h, fsr1l, fsr1h, status,2, status,0, pclath
  3308 ;; Tracked objects:
  3309 ;;		On entry : 0/0
  3310 ;;		On exit  : 0/0
  3311 ;;		Unchanged: 0/0
  3312 ;; Data sizes:     COMMON   BANK0   BANK1   BANK2   BANK3   BANK4   BANK5   BANK6
  3313 ;;      Params:         2       0       0       0       0       0       0       0
  3314 ;;      Locals:         2       0       0       0       0       0       0       0
  3315 ;;      Temps:          1       0       0       0       0       0       0       0
  3316 ;;      Totals:         5       0       0       0       0       0       0       0
  3317 ;;Total ram usage:        5 bytes
  3318 ;; Hardware stack levels used:    1
  3319 ;; Hardware stack levels required when called:    1
  3320 ;; This function calls:
  3321 ;;		Nothing
  3322 ;; This function is called by:
  3323 ;;		_main
  3324 ;; This function uses a non-reentrant model
  3325 ;;
  3326                           
  3327                           
  3328                           ;psect for function _strcpy
  3329  00FA                     _strcpy:	
  3330                           
  3331                           ;incstack = 0
  3332                           ; Regs used in _strcpy: [wreg-fsr1h+status,2+status,0+pclath]
  3333                           ;strcpy@to stored from wreg
  3334  00FA  00FB               	movwf	strcpy@to
  3335  00FB                     l911:	
  3336  00FB  087B               	movf	strcpy@to,w
  3337  00FC  00FA               	movwf	??_strcpy
  3338  00FD  087A               	movf	??_strcpy,w
  3339  00FE  00FC               	movwf	strcpy@cp
  3340  00FF  2908               	goto	l917
  3341  0100                     l913:	
  3342  0100  3001               	movlw	1
  3343  0101  00FA               	movwf	??_strcpy
  3344  0102  087A               	movf	??_strcpy,w
  3345  0103  07FC               	addwf	strcpy@cp,f
  3346  0104                     l915:	
  3347  0104  3001               	movlw	1
  3348  0105  07F8               	addwf	strcpy@from,f
  3349  0106  3000               	movlw	0
  3350  0107  3DF9               	addwfc	strcpy@from+1,f
  3351  0108                     l917:	
  3352  0108  087C               	movf	strcpy@cp,w
  3353  0109  0086               	movwf	6
  3354  010A  0187               	clrf	7
  3355  010B  0878               	movf	strcpy@from,w
  3356  010C  0084               	movwf	4
  3357  010D  0879               	movf	strcpy@from+1,w
  3358  010E  0085               	movwf	5
  3359  010F  0800               	movf	0,w	;code access
  3360  0110  3FC0               	movwi [0]fsr1
  3361  0111  0889               	movf	9,f
  3362  0112  1D03               	btfss	3,2
  3363  0113  2915               	goto	u121
  3364  0114  2916               	goto	u120
  3365  0115                     u121:	
  3366  0115  2900               	goto	l913
  3367  0116                     u120:	
  3368  0116                     l649:	
  3369  0116  0008               	return
  3370  0117                     __end_of_strcpy:	
  3371                           
  3372                           	psect	text2
  3373  0084                     __ptext2:	
  3374 ;; *************** function _InitApp *****************
  3375 ;; Defined at:
  3376 ;;		line 22 in file "user.c"
  3377 ;; Parameters:    Size  Location     Type
  3378 ;;		None
  3379 ;; Auto vars:     Size  Location     Type
  3380 ;;		None
  3381 ;; Return value:  Size  Location     Type
  3382 ;;                  1    wreg      void 
  3383 ;; Registers used:
  3384 ;;		wreg, status,2, status,0
  3385 ;; Tracked objects:
  3386 ;;		On entry : 0/0
  3387 ;;		On exit  : 0/0
  3388 ;;		Unchanged: 0/0
  3389 ;; Data sizes:     COMMON   BANK0   BANK1   BANK2   BANK3   BANK4   BANK5   BANK6
  3390 ;;      Params:         0       0       0       0       0       0       0       0
  3391 ;;      Locals:         0       0       0       0       0       0       0       0
  3392 ;;      Temps:          0       0       0       0       0       0       0       0
  3393 ;;      Totals:         0       0       0       0       0       0       0       0
  3394 ;;Total ram usage:        0 bytes
  3395 ;; Hardware stack levels used:    1
  3396 ;; Hardware stack levels required when called:    1
  3397 ;; This function calls:
  3398 ;;		Nothing
  3399 ;; This function is called by:
  3400 ;;		_main
  3401 ;; This function uses a non-reentrant model
  3402 ;;
  3403                           
  3404                           
  3405                           ;psect for function _InitApp
  3406  0084                     _InitApp:	
  3407  0084                     l839:	
  3408                           ;incstack = 0
  3409                           ; Regs used in _InitApp: [wreg+status,2+status,0]
  3410                           
  3411                           
  3412                           ;user.c: 25: LATA=LATB=LATC= 0;
  3413  0084  0022               	movlb	2	; select bank2
  3414  0085  018E               	clrf	14	;volatile
  3415  0086  018D               	clrf	13	;volatile
  3416  0087  018C               	clrf	12	;volatile
  3417  0088                     l841:	
  3418                           
  3419                           ;user.c: 27: TRISAbits.TRISA0=1;
  3420  0088  0021               	movlb	1	; select bank1
  3421  0089  140C               	bsf	12,0	;volatile
  3422  008A                     l843:	
  3423                           
  3424                           ;user.c: 28: ANSELAbits.ANSA0=1;
  3425  008A  0023               	movlb	3	; select bank3
  3426  008B  140C               	bsf	12,0	;volatile
  3427  008C                     l845:	
  3428                           
  3429                           ;user.c: 29: WPUAbits.WPUA0 = 0;
  3430  008C  0024               	movlb	4	; select bank4
  3431  008D  100C               	bcf	12,0	;volatile
  3432  008E                     l847:	
  3433                           
  3434                           ;user.c: 32: TRISAbits.TRISA1=0;
  3435  008E  0021               	movlb	1	; select bank1
  3436  008F  108C               	bcf	12,1	;volatile
  3437  0090                     l849:	
  3438                           
  3439                           ;user.c: 33: ANSELAbits.ANSA1=1;
  3440  0090  0023               	movlb	3	; select bank3
  3441  0091  148C               	bsf	12,1	;volatile
  3442  0092                     l851:	
  3443                           
  3444                           ;user.c: 34: WPUAbits.WPUA1=0;
  3445  0092  0024               	movlb	4	; select bank4
  3446  0093  108C               	bcf	12,1	;volatile
  3447  0094                     l853:	
  3448                           
  3449                           ;user.c: 37: TRISCbits.TRISC7=1;
  3450  0094  0021               	movlb	1	; select bank1
  3451  0095  178E               	bsf	14,7	;volatile
  3452  0096                     l855:	
  3453                           
  3454                           ;user.c: 38: ANSELCbits.ANSC7=0;
  3455  0096  0023               	movlb	3	; select bank3
  3456  0097  138E               	bcf	14,7	;volatile
  3457  0098                     l857:	
  3458                           
  3459                           ;user.c: 39: WPUCbits.WPUC7=0;
  3460  0098  0024               	movlb	4	; select bank4
  3461  0099  138E               	bcf	14,7	;volatile
  3462  009A                     l859:	
  3463                           
  3464                           ;user.c: 43: TRISCbits.TRISC6=0;
  3465  009A  0021               	movlb	1	; select bank1
  3466  009B  130E               	bcf	14,6	;volatile
  3467  009C                     l861:	
  3468                           
  3469                           ;user.c: 44: ANSELCbits.ANSC6=0;
  3470  009C  0023               	movlb	3	; select bank3
  3471  009D  130E               	bcf	14,6	;volatile
  3472  009E                     l863:	
  3473                           
  3474                           ;user.c: 45: WPUCbits.WPUC6 = 0;
  3475  009E  0024               	movlb	4	; select bank4
  3476  009F  130E               	bcf	14,6	;volatile
  3477  00A0                     l865:	
  3478                           
  3479                           ;user.c: 50: INTCONbits.GIE=1;
  3480  00A0  178B               	bsf	11,7	;volatile
  3481  00A1                     l867:	
  3482                           
  3483                           ;user.c: 51: INTCONbits.PEIE=1;
  3484  00A1  170B               	bsf	11,6	;volatile
  3485  00A2                     l869:	
  3486                           
  3487                           ;user.c: 52: PIE1bits.ADIE=0;
  3488  00A2  0021               	movlb	1	; select bank1
  3489  00A3  1311               	bcf	17,6	;volatile
  3490  00A4                     l871:	
  3491                           
  3492                           ;user.c: 53: INTCONbits.TMR0IE=1;
  3493  00A4  168B               	bsf	11,5	;volatile
  3494  00A5                     l873:	
  3495                           
  3496                           ;user.c: 54: PIE1bits.TXIE= 0;
  3497  00A5  1211               	bcf	17,4	;volatile
  3498  00A6                     l875:	
  3499                           
  3500                           ;user.c: 57: ADCON1bits.ADCS=0b011;
  3501  00A6  0029               	movlb	9	; select bank9
  3502  00A7  0811               	movf	17,w	;volatile
  3503  00A8  398F               	andlw	-113
  3504  00A9  3830               	iorlw	48
  3505  00AA  0091               	movwf	17	;volatile
  3506  00AB                     l877:	
  3507                           
  3508                           ;user.c: 58: ADCON1bits.ADPREF= 0;
  3509  00AB  30FC               	movlw	-4
  3510  00AC  0591               	andwf	17,f	;volatile
  3511  00AD                     l879:	
  3512                           
  3513                           ;user.c: 59: ADCON1bits.ADNREF = 0;
  3514  00AD  1111               	bcf	17,2	;volatile
  3515  00AE                     l881:	
  3516                           
  3517                           ;user.c: 60: ADCON1bits.ADFM=1;
  3518  00AE  1791               	bsf	17,7	;volatile
  3519  00AF                     l883:	
  3520                           
  3521                           ;user.c: 61: ADCON0bits.CHS = 0;
  3522  00AF  3003               	movlw	-253
  3523  00B0  0590               	andwf	16,f	;volatile
  3524  00B1                     l885:	
  3525                           
  3526                           ;user.c: 62: ADCON0bits.ADON=0;
  3527  00B1  1010               	bcf	16,0	;volatile
  3528  00B2                     l887:	
  3529                           
  3530                           ;user.c: 65: OPTION_REGbits.PSA=0;
  3531  00B2  0021               	movlb	1	; select bank1
  3532  00B3  1197               	bcf	23,3	;volatile
  3533  00B4                     l889:	
  3534                           
  3535                           ;user.c: 66: OPTION_REGbits.T0CS=0;
  3536  00B4  1297               	bcf	23,5	;volatile
  3537  00B5                     l891:	
  3538                           
  3539                           ;user.c: 67: OPTION_REGbits.PS=101;
  3540  00B5  0817               	movf	23,w	;volatile
  3541  00B6  39F8               	andlw	-8
  3542  00B7  3805               	iorlw	5
  3543  00B8  0097               	movwf	23	;volatile
  3544  00B9                     l893:	
  3545                           
  3546                           ;user.c: 72: BAUD1CONbits.BRG16= 0;
  3547  00B9  0023               	movlb	3	; select bank3
  3548  00BA  119F               	bcf	31,3	;volatile
  3549  00BB                     l895:	
  3550                           
  3551                           ;user.c: 73: TX1STAbits.BRGH= 1;
  3552  00BB  151E               	bsf	30,2	;volatile
  3553  00BC                     l897:	
  3554                           
  3555                           ;user.c: 74: TX1STAbits.SYNC= 0;
  3556  00BC  121E               	bcf	30,4	;volatile
  3557  00BD                     l899:	
  3558                           
  3559                           ;user.c: 75: SP1BRG = 25;
  3560  00BD  3000               	movlw	0
  3561  00BE  009C               	movwf	28	;volatile
  3562  00BF  3019               	movlw	25
  3563  00C0  009B               	movwf	27	;volatile
  3564  00C1                     l901:	
  3565                           
  3566                           ;user.c: 76: RC1STAbits.SPEN=1;
  3567  00C1  179D               	bsf	29,7	;volatile
  3568  00C2                     l903:	
  3569                           
  3570                           ;user.c: 77: TX1STAbits.TX9=0;
  3571  00C2  131E               	bcf	30,6	;volatile
  3572  00C3                     l905:	
  3573                           
  3574                           ;user.c: 78: TX1STAbits.TXEN=1;
  3575  00C3  169E               	bsf	30,5	;volatile
  3576  00C4                     l907:	
  3577                           
  3578                           ;user.c: 80: RC1STAbits.CREN=1;
  3579  00C4  161D               	bsf	29,4	;volatile
  3580  00C5                     l909:	
  3581                           
  3582                           ;user.c: 83: PIE1bits.RCIE = 1;
  3583  00C5  0021               	movlb	1	; select bank1
  3584  00C6  1691               	bsf	17,5	;volatile
  3585  00C7                     l133:	
  3586  00C7  0008               	return
  3587  00C8                     __end_of_InitApp:	
  3588                           
  3589                           	psect	text3
  3590  0140                     __ptext3:	
  3591 ;; *************** function _ConfigureOscillator *****************
  3592 ;; Defined at:
  3593 ;;		line 18 in file "system.c"
  3594 ;; Parameters:    Size  Location     Type
  3595 ;;		None
  3596 ;; Auto vars:     Size  Location     Type
  3597 ;;		None
  3598 ;; Return value:  Size  Location     Type
  3599 ;;                  1    wreg      void 
  3600 ;; Registers used:
  3601 ;;		wreg, status,2, status,0
  3602 ;; Tracked objects:
  3603 ;;		On entry : 0/0
  3604 ;;		On exit  : 0/0
  3605 ;;		Unchanged: 0/0
  3606 ;; Data sizes:     COMMON   BANK0   BANK1   BANK2   BANK3   BANK4   BANK5   BANK6
  3607 ;;      Params:         0       0       0       0       0       0       0       0
  3608 ;;      Locals:         0       0       0       0       0       0       0       0
  3609 ;;      Temps:          0       0       0       0       0       0       0       0
  3610 ;;      Totals:         0       0       0       0       0       0       0       0
  3611 ;;Total ram usage:        0 bytes
  3612 ;; Hardware stack levels used:    1
  3613 ;; Hardware stack levels required when called:    1
  3614 ;; This function calls:
  3615 ;;		Nothing
  3616 ;; This function is called by:
  3617 ;;		_main
  3618 ;; This function uses a non-reentrant model
  3619 ;;
  3620                           
  3621                           
  3622                           ;psect for function _ConfigureOscillator
  3623  0140                     _ConfigureOscillator:	
  3624  0140                     l837:	
  3625                           ;incstack = 0
  3626                           ; Regs used in _ConfigureOscillator: [wreg+status,2+status,0]
  3627                           
  3628                           
  3629                           ;system.c: 21: OSCCONbits.IRCF= 1111;
  3630  0140  0021               	movlb	1	; select bank1
  3631  0141  081B               	movf	27,w	;volatile
  3632  0142  3987               	andlw	-121
  3633  0143  3838               	iorlw	56
  3634  0144  009B               	movwf	27	;volatile
  3635                           
  3636                           ;system.c: 22: OSCCONbits.SCS= 0b11;
  3637  0145  3003               	movlw	3
  3638  0146  049B               	iorwf	27,f	;volatile
  3639  0147                     l94:	
  3640  0147  0008               	return
  3641  0148                     __end_of_ConfigureOscillator:	
  3642                           
  3643                           	psect	intentry
  3644  0004                     __pintentry:	
  3645 ;; *************** function _isr *****************
  3646 ;; Defined at:
  3647 ;;		line 29 in file "interrupts.c"
  3648 ;; Parameters:    Size  Location     Type
  3649 ;;		None
  3650 ;; Auto vars:     Size  Location     Type
  3651 ;;		None
  3652 ;; Return value:  Size  Location     Type
  3653 ;;                  1    wreg      void 
  3654 ;; Registers used:
  3655 ;;		wreg, status,2, status,0
  3656 ;; Tracked objects:
  3657 ;;		On entry : 0/0
  3658 ;;		On exit  : 0/0
  3659 ;;		Unchanged: 0/0
  3660 ;; Data sizes:     COMMON   BANK0   BANK1   BANK2   BANK3   BANK4   BANK5   BANK6
  3661 ;;      Params:         0       0       0       0       0       0       0       0
  3662 ;;      Locals:         0       0       0       0       0       0       0       0
  3663 ;;      Temps:          0       0       0       0       0       0       0       0
  3664 ;;      Totals:         0       0       0       0       0       0       0       0
  3665 ;;Total ram usage:        0 bytes
  3666 ;; Hardware stack levels used:    1
  3667 ;; This function calls:
  3668 ;;		Nothing
  3669 ;; This function is called by:
  3670 ;;		Interrupt level 1
  3671 ;; This function uses a non-reentrant model
  3672 ;;
  3673                           
  3674  0004                     _isr:	
  3675                           
  3676                           ;incstack = 0
  3677  0004  147E               	bsf	int$flags,0	;set compiler interrupt flag (level 1)
  3678                           
  3679                           ; Regs used in _isr: [wreg+status,2+status,0]
  3680  0005  3180               	pagesel	$
  3681  0006                     i1l919:	
  3682                           
  3683                           ;interrupts.c: 38: if (INTCONbits.TMR0IF==1){
  3684  0006  1D0B               	btfss	11,2	;volatile
  3685  0007  2809               	goto	u13_21
  3686  0008  280A               	goto	u13_20
  3687  0009                     u13_21:	
  3688  0009  2816               	goto	i1l22
  3689  000A                     u13_20:	
  3690  000A                     i1l921:	
  3691                           
  3692                           ;interrupts.c: 40: INTCONbits.TMR0IF=0;
  3693  000A  110B               	bcf	11,2	;volatile
  3694  000B                     i1l923:	
  3695                           
  3696                           ;interrupts.c: 41: led= led+1;
  3697  000B  0874               	movf	_led,w
  3698  000C  3E01               	addlw	1
  3699  000D  00F4               	movwf	_led
  3700  000E  3000               	movlw	0
  3701  000F  3D75               	addwfc	_led+1,w
  3702  0010  00F5               	movwf	_led+1
  3703  0011                     i1l925:	
  3704                           
  3705                           ;interrupts.c: 43: band_aux= 1;
  3706  0011  3001               	movlw	1
  3707  0012  0020               	movlb	0	; select bank0
  3708  0013  00DD               	movwf	_band_aux
  3709  0014  3000               	movlw	0
  3710  0015  00DE               	movwf	_band_aux+1
  3711  0016                     i1l22:	
  3712  0016  107E               	bcf	int$flags,0	;clear compiler interrupt flag (level 1)
  3713  0017  0009               	retfie
  3714  0018                     __end_of_isr:	
  3715  007E                     btemp	set	126	;btemp
  3716  007E                     int$flags	set	126
  3717  007E                     wtemp0	set	126


Data Sizes:
    Strings     24
    Constant    67
    Data        0
    BSS         94
    Persistent  34
    Stack       0

Auto Spaces:
    Space          Size  Autos    Used
    COMMON           14      6      14
    BANK0            80      0      63
    BANK1            80      0      25
    BANK2            80      0       0
    BANK3            80      0       0
    BANK4            80      0       0
    BANK5            80      0       0
    BANK6            16      0       0

Pointer List with Targets:

    strcpy@from	PTR const unsigned char  size(2) Largest target is 24
		 -> STR_1(CODE[24]), 

    strcpy@to	PTR unsigned char  size(1) Largest target is 22
		 -> str4(BANK0[22]), 

    strcpy@cp	PTR unsigned char  size(1) Largest target is 22
		 -> str4(BANK0[22]), 

    sp__strcpy	PTR unsigned char  size(1) Largest target is 22
		 -> str4(BANK0[22]), 


Critical Paths under _main in COMMON

    _main->_strcpy

Critical Paths under _isr in COMMON

    None.

Critical Paths under _main in BANK0

    None.

Critical Paths under _isr in BANK0

    None.

Critical Paths under _main in BANK1

    None.

Critical Paths under _isr in BANK1

    None.

Critical Paths under _main in BANK2

    None.

Critical Paths under _isr in BANK2

    None.

Critical Paths under _main in BANK3

    None.

Critical Paths under _isr in BANK3

    None.

Critical Paths under _main in BANK4

    None.

Critical Paths under _isr in BANK4

    None.

Critical Paths under _main in BANK5

    None.

Critical Paths under _isr in BANK5

    None.

Critical Paths under _main in BANK6

    None.

Critical Paths under _isr in BANK6

    None.

Call Graph Tables:

 ---------------------------------------------------------------------------------
 (Depth) Function   	        Calls       Base Space   Used Autos Params    Refs
 ---------------------------------------------------------------------------------
 (0) _main                                                 1     1      0     184
                                              5 COMMON     1     1      0
                _ConfigureOscillator
                            _InitApp
                             _strcpy
 ---------------------------------------------------------------------------------
 (1) _strcpy                                               5     3      2     184
                                              0 COMMON     5     3      2
 ---------------------------------------------------------------------------------
 (1) _InitApp                                              0     0      0       0
 ---------------------------------------------------------------------------------
 (1) _ConfigureOscillator                                  0     0      0       0
 ---------------------------------------------------------------------------------
 Estimated maximum stack depth 1
 ---------------------------------------------------------------------------------
 (Depth) Function   	        Calls       Base Space   Used Autos Params    Refs
 ---------------------------------------------------------------------------------
 (2) _isr                                                  0     0      0       0
 ---------------------------------------------------------------------------------
 Estimated maximum stack depth 2
 ---------------------------------------------------------------------------------

 Call Graph Graphs:

 _main (ROOT)
   _ConfigureOscillator
   _InitApp
   _strcpy

 _isr (ROOT)

 Address spaces:
Name               Size   Autos  Total    Cost      Usage
BIGRAM             1F0      0       0       0        0.0%
NULL                 0      0       0       0        0.0%
CODE                 0      0       0       0        0.0%
BITCOMMON            E      0       0       1        0.0%
BITSFR0              0      0       0       1        0.0%
SFR0                 0      0       0       1        0.0%
COMMON               E      6       E       2      100.0%
BITSFR1              0      0       0       2        0.0%
SFR1                 0      0       0       2        0.0%
BITSFR2              0      0       0       3        0.0%
SFR2                 0      0       0       3        0.0%
STACK                0      0       0       3        0.0%
BITSFR3              0      0       0       4        0.0%
SFR3                 0      0       0       4        0.0%
ABS                  0      0      66       4        0.0%
BITBANK0            50      0       0       5        0.0%
BITSFR4              0      0       0       5        0.0%
SFR4                 0      0       0       5        0.0%
BANK0               50      0      3F       6       78.8%
BITSFR5              0      0       0       6        0.0%
SFR5                 0      0       0       6        0.0%
BITBANK1            50      0       0       7        0.0%
BITSFR6              0      0       0       7        0.0%
SFR6                 0      0       0       7        0.0%
BANK1               50      0      19       8       31.3%
BITSFR7              0      0       0       8        0.0%
SFR7                 0      0       0       8        0.0%
BITBANK2            50      0       0       9        0.0%
BITSFR8              0      0       0       9        0.0%
SFR8                 0      0       0       9        0.0%
BANK2               50      0       0      10        0.0%
BITSFR9              0      0       0      10        0.0%
SFR9                 0      0       0      10        0.0%
BITBANK3            50      0       0      11        0.0%
BITSFR10             0      0       0      11        0.0%
SFR10                0      0       0      11        0.0%
BANK3               50      0       0      12        0.0%
BITSFR11             0      0       0      12        0.0%
SFR11                0      0       0      12        0.0%
BITBANK4            50      0       0      13        0.0%
BITSFR12             0      0       0      13        0.0%
SFR12                0      0       0      13        0.0%
BANK4               50      0       0      14        0.0%
BITSFR13             0      0       0      14        0.0%
SFR13                0      0       0      14        0.0%
BITBANK5            50      0       0      15        0.0%
BITSFR14             0      0       0      15        0.0%
SFR14                0      0       0      15        0.0%
BANK5               50      0       0      16        0.0%
BITSFR15             0      0       0      16        0.0%
SFR15                0      0       0      16        0.0%
BITBANK6            10      0       0      17        0.0%
BITSFR16             0      0       0      17        0.0%
SFR16                0      0       0      17        0.0%
BANK6               10      0       0      18        0.0%
BITSFR17             0      0       0      18        0.0%
SFR17                0      0       0      18        0.0%
BITSFR18             0      0       0      19        0.0%
SFR18                0      0       0      19        0.0%
DATA                 0      0      66      19        0.0%
BITSFR19             0      0       0      20        0.0%
SFR19                0      0       0      20        0.0%
BITSFR20             0      0       0      21        0.0%
SFR20                0      0       0      21        0.0%
BITSFR21             0      0       0      22        0.0%
SFR21                0      0       0      22        0.0%
BITSFR22             0      0       0      23        0.0%
SFR22                0      0       0      23        0.0%
BITSFR23             0      0       0      24        0.0%
SFR23                0      0       0      24        0.0%
BITSFR24             0      0       0      25        0.0%
SFR24                0      0       0      25        0.0%
BITSFR25             0      0       0      26        0.0%
SFR25                0      0       0      26        0.0%
BITSFR26             0      0       0      27        0.0%
SFR26                0      0       0      27        0.0%
BITSFR27             0      0       0      28        0.0%
SFR27                0      0       0      28        0.0%
BITSFR28             0      0       0      29        0.0%
SFR28                0      0       0      29        0.0%
BITSFR29             0      0       0      30        0.0%
SFR29                0      0       0      30        0.0%
BITSFR30             0      0       0      31        0.0%
SFR30                0      0       0      31        0.0%
BITSFR31             0      0       0      32        0.0%
SFR31                0      0       0      32        0.0%


Microchip Technology PIC Macro Assembler V2.10 build 88905656 
Symbol Table                                                                                   Fri Feb 07 15:42:16 2020

                           _i 0072                   __CFG_CP$OFF 0000                            l84 006B  
                          l94 0147                            l86 006F                           l133 00C7  
                         l901 00C1                           l903 00C2                           l911 00FB  
                         l905 00C3                           l841 0088                           l649 0116  
                         l913 0100                           l907 00C4                           l851 0092  
                         l843 008A                           l915 0104                           l931 003F  
                         l837 0140                           l909 00C5                           l861 009C  
                         l853 0094                           l845 008C                           l917 0108  
                         l933 0047                           l871 00A4                           l863 009E  
                         l855 0096                           l847 008E                           l839 0084  
                         l935 0054                           l927 0036                           l881 00AE  
                         l873 00A5                           l865 00A0                           l857 0098  
                         l849 0090                           l945 0064                           l937 0060  
                         l929 003C                           l891 00B5                           l883 00AF  
                         l875 00A6                           l867 00A1                           l859 009A  
                         l947 0070                           l939 0062                           l893 00B9  
                         l885 00B1                           l877 00AB                           l869 00A2  
                         l895 00BB                           l887 00B2                           l879 00AD  
                         l897 00BC                           l889 00B4                           l899 00BD  
                         u120 0116                           u121 0115                           u140 0054  
                         u141 0053                           u150 005E                           u151 005B  
                         u145 0050                           u170 006F                           u171 006E  
                         u180 0081                           u164 0060                           u181 0080  
                         u185 007D                           _led 0074                           _isr 0004  
                __CFG_BORV$LO 0000                           wreg 0009                  _BAUD1CONbits 019F  
                __CFG_LVP$OFF 0000                  __CFG_ZCD$OFF 0000                          ?_isr 0078  
                        STR_1 0117                          _LATA 010C                          _LATB 010D  
                        _LATC 010E                          i1l22 0016                  __CFG_WRT$OFF 0000  
                        _main 0036                          _str1 0030                          _temp 003F  
                        _str2 0020                          _str3 003A                          _str4 0047  
                        fsr0h 0005                          fsr1h 0007                          indf0 0000  
                        fsr0l 0004                          indf1 0001                          fsr1l 0006  
                        btemp 007E                          start 0018                 __CFG_IESO$OFF 0000  
               __CFG_MCLRE$ON 0000               __end_of_InitApp 00C8                         ??_isr 0078  
                       ?_main 0078                 __CFG_WDTE$OFF 0000                         i1l921 000A  
                       i1l923 000B                         i1l925 0011                         i1l919 0006  
                       u13_20 000A                         u13_21 0009           _ConfigureOscillator 0140  
              __CFG_FCMEN$OFF 0000               __end_of_mensaje 0140                __CFG_BOREN$OFF 0000  
                       status 0003                         wtemp0 007E          ?_ConfigureOscillator 0078  
             __initialization 001A                  __end_of_main 0084                __CFG_LPBOR$OFF 0000  
                      ??_main 007D                __CFG_PLLEN$OFF 0000                        _SP1BRG 019B  
                      _TX1REG 019A                     ??_InitApp 0078         ??_ConfigureOscillator 0078  
              __CFG_PWRTE$OFF 0000                        _salida 00A0                        _saludo 00C8  
                      _strcpy 00FA       __end_of__initialization 0032                __pcstackCOMMON 0078  
              _OPTION_REGbits 0097                    __pbssBANK0 0020                    __pbssBANK1 00A0  
                  __pmaintext 0036               __CFG_PPS1WAY$ON 0000                    __pintentry 0004  
                     ?_strcpy 0078                       _InitApp 0084               __CFG_STVREN$OFF 0000  
                     __ptext1 00FA                       __ptext2 0084                       __ptext3 0140  
             __size_of_strcpy 001D                  __size_of_isr 0014                       _mensaje 012F  
                     clrloop0 0149          end_of_initialization 0032              __CFG_FOSC$INTOSC 0000  
                   _TRISAbits 008C                     _TRISCbits 008E   __end_of_ConfigureOscillator 0148  
                   _TXSTAbits 019E                __end_of_saludo 00FA                __end_of_strcpy 0117  
         start_initialization 001A                   __end_of_isr 0018                      ??_strcpy 007A  
                 __pbssCOMMON 0070                     ___latbits 0001                      ?_InitApp 0078  
                   __pnvBANK0 005D                      _LATAbits 010C                     clear_ram0 0148  
                    _PIE1bits 0091                    _ADCON0bits 0490                    _ADCON1bits 0491  
                    _WPUAbits 020C                      _WPUCbits 020E              __size_of_InitApp 0044  
                  _ANSELAbits 018C                    _ANSELCbits 018E                      _band_aux 005D  
                    _cont_led 0070                    strcpy@from 0078                 __size_of_main 004E  
__size_of_ConfigureOscillator 0008                    _RC1STAbits 019D                      _v_sensor 0043  
                    int$flags 007E                    _INTCONbits 000B                 _AD_almacenado 0076  
                    intlevel1 0000             __CFG_CLKOUTEN$OFF 0000                    _OSCCONbits 009B  
               __pstringtext1 00C8                 __pstringtext2 012F                 __pstringtext3 0117  
               __pstringtext4 0000                      strcpy@cp 007C                      strcpy@to 007B  
                  _TX1STAbits 019E  
