

Microchip MPLAB XC8 Assembler V2.10 build 88905656 
                                                                                               Fri Nov 29 00:22:09 2019

Microchip MPLAB XC8 C Compiler v2.10 (Free license) build 20190730164152 Og1 
     1                           	processor	16F1776
     2                           	opt	pw 120
     3                           	opt	flic
     4                           	psect	stringtext1,global,class=STRCODE,delta=2
     5                           	psect	stringtext2,global,class=STRCODE,delta=2
     6                           	psect	stringtext3,global,class=STRCODE,delta=2
     7                           	psect	stringtext4,global,class=STRCODE,delta=2
     8                           	psect	stringtext5,global,class=STRCODE,delta=2
     9                           	psect	cinit,global,class=CODE,merge=1,delta=2
    10                           	psect	bssBANK1,global,class=BANK1,space=1,delta=1
    11                           	psect	bssBANK2,global,class=BANK2,space=1,delta=1
    12                           	psect	clrtext,global,class=CODE,delta=2
    13                           	psect	cstackBANK1,global,class=BANK1,space=1,delta=1
    14                           	psect	cstackCOMMON,global,class=COMMON,space=1,delta=1
    15                           	psect	cstackBANK0,global,class=BANK0,space=1,delta=1
    16                           	psect	maintext,global,class=CODE,merge=1,split=1,delta=2
    17                           	psect	text1,local,class=CODE,merge=1,delta=2
    18                           	psect	text2,local,class=CODE,merge=1,delta=2
    19                           	psect	text3,local,class=CODE,merge=1,delta=2,group=1
    20                           	psect	text4,local,class=CODE,merge=1,delta=2,group=1
    21                           	psect	text5,local,class=CODE,merge=1,delta=2,group=2
    22                           	psect	text6,local,class=CODE,merge=1,delta=2
    23                           	psect	text7,local,class=CODE,merge=1,delta=2,group=1
    24                           	psect	text8,local,class=CODE,merge=1,delta=2,group=1
    25                           	psect	text9,local,class=CODE,merge=1,delta=2,group=1
    26                           	psect	text10,local,class=CODE,merge=1,delta=2,group=1
    27                           	psect	text11,local,class=CODE,merge=1,delta=2,group=1
    28                           	psect	text12,local,class=CODE,merge=1,delta=2,group=1
    29                           	psect	text13,local,class=CODE,merge=1,delta=2,group=1
    30                           	psect	text14,local,class=CODE,merge=1,delta=2,group=1
    31                           	psect	text15,local,class=CODE,merge=1,delta=2,group=1
    32                           	psect	text16,local,class=CODE,merge=1,delta=2,group=1
    33                           	psect	text17,local,class=CODE,merge=1,delta=2,group=1
    34                           	psect	text18,local,class=CODE,merge=1,delta=2,group=1
    35                           	psect	text19,local,class=CODE,merge=1,delta=2,group=1
    36                           	psect	text20,local,class=CODE,merge=1,delta=2,group=1
    37                           	psect	text21,local,class=CODE,merge=1,delta=2,group=1
    38                           	psect	text22,local,class=CODE,merge=1,delta=2,group=1
    39                           	psect	text23,local,class=CODE,merge=1,delta=2
    40                           	psect	text24,local,class=CODE,merge=1,delta=2,group=1
    41                           	psect	text25,local,class=CODE,merge=1,delta=2
    42                           	psect	text26,local,class=CODE,merge=1,delta=2
    43                           	psect	intentry,global,class=CODE,delta=2
    44                           	dabs	1,0x7E,2
    45  0000                     
    46                           ; Version 2.10
    47                           ; Generated 31/07/2019 GMT
    48                           ; 
    49                           ; Copyright © 2019, Microchip Technology Inc. and its subsidiaries ("Microchip")
    50                           ; All rights reserved.
    51                           ; 
    52                           ; This software is developed by Microchip Technology Inc. and its subsidiaries ("Microch
      +                          ip").
    53                           ; 
    54                           ; Redistribution and use in source and binary forms, with or without modification, are
    55                           ; permitted provided that the following conditions are met:
    56                           ; 
    57                           ;     1. Redistributions of source code must retain the above copyright notice, this lis
      +                          t of
    58                           ;        conditions and the following disclaimer.
    59                           ; 
    60                           ;     2. Redistributions in binary form must reproduce the above copyright notice, this 
      +                          list
    61                           ;        of conditions and the following disclaimer in the documentation and/or other
    62                           ;        materials provided with the distribution.
    63                           ; 
    64                           ;     3. Microchip's name may not be used to endorse or promote products derived from th
      +                          is
    65                           ;        software without specific prior written permission.
    66                           ; 
    67                           ; THIS SOFTWARE IS PROVIDED BY MICROCHIP "AS IS" AND ANY EXPRESS OR IMPLIED WARRANTIES,
    68                           ; INCLUDING, BUT NOT LIMITED TO, THE IMPLIED WARRANTIES OF MERCHANTABILITY AND FITNESS F
      +                          OR
    69                           ; PURPOSE ARE DISCLAIMED.  IN NO EVENT SHALL MICROCHIP BE LIABLE FOR ANY DIRECT, INDIREC
      +                          T,
    70                           ; INCIDENTAL, SPECIAL, EXEMPLARY, OR CONSEQUENTIAL DAMAGES (INCLUDING BUT NOT LIMITED TO
    71                           ; PROCUREMENT OF SUBSTITUTE GOODS OR SERVICES; LOSS OF USE, DATA OR PROFITS; OR BUSINESS
    72                           ; INTERRUPTION) HOWSOEVER CAUSED AND ON ANY THEORY OF LIABILITY, WHETHER IN CONTRACT, ST
      +                          RICT
    73                           ; LIABILITY, OR TORT (INCLUDING NEGLIGENCE OR OTHERWISE) ARISING IN ANY WAY OUT OF THE U
      +                          SE OF
    74                           ; THIS SOFTWARE, EVEN IF ADVISED OF THE POSSIBILITY OF SUCH DAMAGE.
    75                           ; 
    76                           ; 
    77                           ; Code-generator required, PIC16F1776 Definitions
    78                           ; 
    79                           ; SFR Addresses
    80  0000                     	;# 
    81  0001                     	;# 
    82  0002                     	;# 
    83  0003                     	;# 
    84  0004                     	;# 
    85  0005                     	;# 
    86  0006                     	;# 
    87  0007                     	;# 
    88  0008                     	;# 
    89  0009                     	;# 
    90  000A                     	;# 
    91  000B                     	;# 
    92  000C                     	;# 
    93  000D                     	;# 
    94  000E                     	;# 
    95  0010                     	;# 
    96  0011                     	;# 
    97  0012                     	;# 
    98  0013                     	;# 
    99  0014                     	;# 
   100  0015                     	;# 
   101  0016                     	;# 
   102  0017                     	;# 
   103  0018                     	;# 
   104  0018                     	;# 
   105  0019                     	;# 
   106  001A                     	;# 
   107  001B                     	;# 
   108  001C                     	;# 
   109  001C                     	;# 
   110  001D                     	;# 
   111  001E                     	;# 
   112  001F                     	;# 
   113  008C                     	;# 
   114  008D                     	;# 
   115  008E                     	;# 
   116  0090                     	;# 
   117  0091                     	;# 
   118  0092                     	;# 
   119  0093                     	;# 
   120  0094                     	;# 
   121  0095                     	;# 
   122  0096                     	;# 
   123  0097                     	;# 
   124  0098                     	;# 
   125  0099                     	;# 
   126  009A                     	;# 
   127  009B                     	;# 
   128  009C                     	;# 
   129  009D                     	;# 
   130  009E                     	;# 
   131  009F                     	;# 
   132  010C                     	;# 
   133  010D                     	;# 
   134  010E                     	;# 
   135  0111                     	;# 
   136  0112                     	;# 
   137  0113                     	;# 
   138  0114                     	;# 
   139  0115                     	;# 
   140  0116                     	;# 
   141  0117                     	;# 
   142  0118                     	;# 
   143  0119                     	;# 
   144  011A                     	;# 
   145  011B                     	;# 
   146  011C                     	;# 
   147  011D                     	;# 
   148  018C                     	;# 
   149  018D                     	;# 
   150  018E                     	;# 
   151  0191                     	;# 
   152  0191                     	;# 
   153  0192                     	;# 
   154  0193                     	;# 
   155  0193                     	;# 
   156  0194                     	;# 
   157  0195                     	;# 
   158  0196                     	;# 
   159  0197                     	;# 
   160  0199                     	;# 
   161  0199                     	;# 
   162  0199                     	;# 
   163  019A                     	;# 
   164  019A                     	;# 
   165  019A                     	;# 
   166  019B                     	;# 
   167  019B                     	;# 
   168  019B                     	;# 
   169  019B                     	;# 
   170  019B                     	;# 
   171  019C                     	;# 
   172  019C                     	;# 
   173  019C                     	;# 
   174  019D                     	;# 
   175  019D                     	;# 
   176  019D                     	;# 
   177  019E                     	;# 
   178  019E                     	;# 
   179  019E                     	;# 
   180  019F                     	;# 
   181  019F                     	;# 
   182  019F                     	;# 
   183  019F                     	;# 
   184  019F                     	;# 
   185  020C                     	;# 
   186  020D                     	;# 
   187  020E                     	;# 
   188  0210                     	;# 
   189  0211                     	;# 
   190  0211                     	;# 
   191  0212                     	;# 
   192  0212                     	;# 
   193  0213                     	;# 
   194  0213                     	;# 
   195  0214                     	;# 
   196  0214                     	;# 
   197  0215                     	;# 
   198  0215                     	;# 
   199  0215                     	;# 
   200  0215                     	;# 
   201  0216                     	;# 
   202  0216                     	;# 
   203  0217                     	;# 
   204  0217                     	;# 
   205  021B                     	;# 
   206  021C                     	;# 
   207  021D                     	;# 
   208  021E                     	;# 
   209  021F                     	;# 
   210  028C                     	;# 
   211  028D                     	;# 
   212  028E                     	;# 
   213  0291                     	;# 
   214  0291                     	;# 
   215  0292                     	;# 
   216  0293                     	;# 
   217  0294                     	;# 
   218  0295                     	;# 
   219  0295                     	;# 
   220  0296                     	;# 
   221  0297                     	;# 
   222  0298                     	;# 
   223  0299                     	;# 
   224  0299                     	;# 
   225  029A                     	;# 
   226  029B                     	;# 
   227  029C                     	;# 
   228  029E                     	;# 
   229  029F                     	;# 
   230  030C                     	;# 
   231  030D                     	;# 
   232  030E                     	;# 
   233  0315                     	;# 
   234  0316                     	;# 
   235  0317                     	;# 
   236  0318                     	;# 
   237  0319                     	;# 
   238  031B                     	;# 
   239  031C                     	;# 
   240  031D                     	;# 
   241  031E                     	;# 
   242  031F                     	;# 
   243  038C                     	;# 
   244  038D                     	;# 
   245  038E                     	;# 
   246  0390                     	;# 
   247  0391                     	;# 
   248  0392                     	;# 
   249  0393                     	;# 
   250  0394                     	;# 
   251  0395                     	;# 
   252  0396                     	;# 
   253  0397                     	;# 
   254  0398                     	;# 
   255  0399                     	;# 
   256  039D                     	;# 
   257  039E                     	;# 
   258  039F                     	;# 
   259  040D                     	;# 
   260  040F                     	;# 
   261  040F                     	;# 
   262  0410                     	;# 
   263  0411                     	;# 
   264  0412                     	;# 
   265  0413                     	;# 
   266  0413                     	;# 
   267  0414                     	;# 
   268  0414                     	;# 
   269  0415                     	;# 
   270  0416                     	;# 
   271  0417                     	;# 
   272  0418                     	;# 
   273  041A                     	;# 
   274  041A                     	;# 
   275  041B                     	;# 
   276  041B                     	;# 
   277  041C                     	;# 
   278  041D                     	;# 
   279  041E                     	;# 
   280  041F                     	;# 
   281  048E                     	;# 
   282  048E                     	;# 
   283  048F                     	;# 
   284  0490                     	;# 
   285  0491                     	;# 
   286  0492                     	;# 
   287  0493                     	;# 
   288  0493                     	;# 
   289  0494                     	;# 
   290  0494                     	;# 
   291  0495                     	;# 
   292  0496                     	;# 
   293  0497                     	;# 
   294  0498                     	;# 
   295  049A                     	;# 
   296  049A                     	;# 
   297  049B                     	;# 
   298  049B                     	;# 
   299  049C                     	;# 
   300  049D                     	;# 
   301  049E                     	;# 
   302  049F                     	;# 
   303  050F                     	;# 
   304  0510                     	;# 
   305  0511                     	;# 
   306  0512                     	;# 
   307  0513                     	;# 
   308  0514                     	;# 
   309  0515                     	;# 
   310  0516                     	;# 
   311  0517                     	;# 
   312  0518                     	;# 
   313  0519                     	;# 
   314  051A                     	;# 
   315  058D                     	;# 
   316  058E                     	;# 
   317  058F                     	;# 
   318  058F                     	;# 
   319  058F                     	;# 
   320  0590                     	;# 
   321  0590                     	;# 
   322  0591                     	;# 
   323  0592                     	;# 
   324  0592                     	;# 
   325  0592                     	;# 
   326  0593                     	;# 
   327  0593                     	;# 
   328  0594                     	;# 
   329  0595                     	;# 
   330  0595                     	;# 
   331  0596                     	;# 
   332  0597                     	;# 
   333  0597                     	;# 
   334  0598                     	;# 
   335  0599                     	;# 
   336  0599                     	;# 
   337  0599                     	;# 
   338  059A                     	;# 
   339  059A                     	;# 
   340  059E                     	;# 
   341  059F                     	;# 
   342  059F                     	;# 
   343  0614                     	;# 
   344  0614                     	;# 
   345  0615                     	;# 
   346  0616                     	;# 
   347  0617                     	;# 
   348  0617                     	;# 
   349  0618                     	;# 
   350  0619                     	;# 
   351  061A                     	;# 
   352  061A                     	;# 
   353  061B                     	;# 
   354  061C                     	;# 
   355  068D                     	;# 
   356  068E                     	;# 
   357  068F                     	;# 
   358  0690                     	;# 
   359  0691                     	;# 
   360  0692                     	;# 
   361  0693                     	;# 
   362  0694                     	;# 
   363  0695                     	;# 
   364  0696                     	;# 
   365  0697                     	;# 
   366  0698                     	;# 
   367  0699                     	;# 
   368  069A                     	;# 
   369  069B                     	;# 
   370  069C                     	;# 
   371  069D                     	;# 
   372  069E                     	;# 
   373  069F                     	;# 
   374  070D                     	;# 
   375  070E                     	;# 
   376  070F                     	;# 
   377  0710                     	;# 
   378  0711                     	;# 
   379  0712                     	;# 
   380  0713                     	;# 
   381  0714                     	;# 
   382  0715                     	;# 
   383  0716                     	;# 
   384  0717                     	;# 
   385  0718                     	;# 
   386  0719                     	;# 
   387  071A                     	;# 
   388  071B                     	;# 
   389  071C                     	;# 
   390  071D                     	;# 
   391  071E                     	;# 
   392  071F                     	;# 
   393  078E                     	;# 
   394  078F                     	;# 
   395  0790                     	;# 
   396  0791                     	;# 
   397  0792                     	;# 
   398  0793                     	;# 
   399  0794                     	;# 
   400  0795                     	;# 
   401  0796                     	;# 
   402  0797                     	;# 
   403  0798                     	;# 
   404  0799                     	;# 
   405  079A                     	;# 
   406  079B                     	;# 
   407  079C                     	;# 
   408  079D                     	;# 
   409  079E                     	;# 
   410  079F                     	;# 
   411  080D                     	;# 
   412  080E                     	;# 
   413  080F                     	;# 
   414  0810                     	;# 
   415  0811                     	;# 
   416  0812                     	;# 
   417  0813                     	;# 
   418  0814                     	;# 
   419  0815                     	;# 
   420  0816                     	;# 
   421  0817                     	;# 
   422  0818                     	;# 
   423  0819                     	;# 
   424  081A                     	;# 
   425  081B                     	;# 
   426  081C                     	;# 
   427  081D                     	;# 
   428  081E                     	;# 
   429  081F                     	;# 
   430  090C                     	;# 
   431  090D                     	;# 
   432  090E                     	;# 
   433  090F                     	;# 
   434  0910                     	;# 
   435  0911                     	;# 
   436  0912                     	;# 
   437  0913                     	;# 
   438  0914                     	;# 
   439  0915                     	;# 
   440  0916                     	;# 
   441  0917                     	;# 
   442  0D8E                     	;# 
   443  0D8F                     	;# 
   444  0D90                     	;# 
   445  0D91                     	;# 
   446  0D91                     	;# 
   447  0D92                     	;# 
   448  0D93                     	;# 
   449  0D93                     	;# 
   450  0D94                     	;# 
   451  0D95                     	;# 
   452  0D95                     	;# 
   453  0D96                     	;# 
   454  0D97                     	;# 
   455  0D97                     	;# 
   456  0D98                     	;# 
   457  0D99                     	;# 
   458  0D99                     	;# 
   459  0D9A                     	;# 
   460  0D9B                     	;# 
   461  0D9C                     	;# 
   462  0D9C                     	;# 
   463  0D9D                     	;# 
   464  0D9D                     	;# 
   465  0D9E                     	;# 
   466  0D9F                     	;# 
   467  0DA0                     	;# 
   468  0DA1                     	;# 
   469  0DA1                     	;# 
   470  0DA2                     	;# 
   471  0DA3                     	;# 
   472  0DA3                     	;# 
   473  0DA4                     	;# 
   474  0DA5                     	;# 
   475  0DA5                     	;# 
   476  0DA6                     	;# 
   477  0DA7                     	;# 
   478  0DA7                     	;# 
   479  0DA8                     	;# 
   480  0DA9                     	;# 
   481  0DA9                     	;# 
   482  0DAA                     	;# 
   483  0DAB                     	;# 
   484  0DAC                     	;# 
   485  0DAC                     	;# 
   486  0DAD                     	;# 
   487  0DAD                     	;# 
   488  0DAE                     	;# 
   489  0DAF                     	;# 
   490  0DB0                     	;# 
   491  0DB1                     	;# 
   492  0DB1                     	;# 
   493  0DB2                     	;# 
   494  0DB3                     	;# 
   495  0DB3                     	;# 
   496  0DB4                     	;# 
   497  0DB5                     	;# 
   498  0DB5                     	;# 
   499  0DB6                     	;# 
   500  0DB7                     	;# 
   501  0DB7                     	;# 
   502  0DB8                     	;# 
   503  0DB9                     	;# 
   504  0DB9                     	;# 
   505  0DBA                     	;# 
   506  0DBB                     	;# 
   507  0DBC                     	;# 
   508  0DBC                     	;# 
   509  0DBD                     	;# 
   510  0DBD                     	;# 
   511  0DBE                     	;# 
   512  0DBF                     	;# 
   513  0DC0                     	;# 
   514  0E0C                     	;# 
   515  0E0D                     	;# 
   516  0E0E                     	;# 
   517  0E0F                     	;# 
   518  0E10                     	;# 
   519  0E11                     	;# 
   520  0E12                     	;# 
   521  0E13                     	;# 
   522  0E14                     	;# 
   523  0E15                     	;# 
   524  0E15                     	;# 
   525  0E15                     	;# 
   526  0E16                     	;# 
   527  0E16                     	;# 
   528  0E16                     	;# 
   529  0E17                     	;# 
   530  0E17                     	;# 
   531  0E17                     	;# 
   532  0E18                     	;# 
   533  0E18                     	;# 
   534  0E18                     	;# 
   535  0E19                     	;# 
   536  0E1A                     	;# 
   537  0E1B                     	;# 
   538  0E1D                     	;# 
   539  0E1E                     	;# 
   540  0E1F                     	;# 
   541  0E21                     	;# 
   542  0E22                     	;# 
   543  0E23                     	;# 
   544  0E24                     	;# 
   545  0E25                     	;# 
   546  0E26                     	;# 
   547  0E27                     	;# 
   548  0E28                     	;# 
   549  0E29                     	;# 
   550  0E2D                     	;# 
   551  0E2E                     	;# 
   552  0E2F                     	;# 
   553  0E30                     	;# 
   554  0E31                     	;# 
   555  0E32                     	;# 
   556  0E35                     	;# 
   557  0E36                     	;# 
   558  0E37                     	;# 
   559  0E38                     	;# 
   560  0E39                     	;# 
   561  0E3A                     	;# 
   562  0E3B                     	;# 
   563  0E3C                     	;# 
   564  0E3D                     	;# 
   565  0E3E                     	;# 
   566  0E90                     	;# 
   567  0E91                     	;# 
   568  0E92                     	;# 
   569  0E93                     	;# 
   570  0E94                     	;# 
   571  0E95                     	;# 
   572  0E96                     	;# 
   573  0E97                     	;# 
   574  0E98                     	;# 
   575  0E99                     	;# 
   576  0E9A                     	;# 
   577  0E9B                     	;# 
   578  0E9C                     	;# 
   579  0E9D                     	;# 
   580  0E9E                     	;# 
   581  0E9F                     	;# 
   582  0EA0                     	;# 
   583  0EA1                     	;# 
   584  0EA2                     	;# 
   585  0EA3                     	;# 
   586  0EA4                     	;# 
   587  0EA5                     	;# 
   588  0EA6                     	;# 
   589  0EA7                     	;# 
   590  0F0F                     	;# 
   591  0F10                     	;# 
   592  0F11                     	;# 
   593  0F12                     	;# 
   594  0F13                     	;# 
   595  0F14                     	;# 
   596  0F15                     	;# 
   597  0F16                     	;# 
   598  0F17                     	;# 
   599  0F18                     	;# 
   600  0F19                     	;# 
   601  0F1A                     	;# 
   602  0F1B                     	;# 
   603  0F1C                     	;# 
   604  0F1D                     	;# 
   605  0F1E                     	;# 
   606  0F1F                     	;# 
   607  0F20                     	;# 
   608  0F21                     	;# 
   609  0F22                     	;# 
   610  0F23                     	;# 
   611  0F24                     	;# 
   612  0F25                     	;# 
   613  0F26                     	;# 
   614  0F27                     	;# 
   615  0F28                     	;# 
   616  0F29                     	;# 
   617  0F2A                     	;# 
   618  0F2B                     	;# 
   619  0F2C                     	;# 
   620  0F2D                     	;# 
   621  0F2E                     	;# 
   622  0F2F                     	;# 
   623  0F30                     	;# 
   624  0F31                     	;# 
   625  0F32                     	;# 
   626  0F33                     	;# 
   627  0F34                     	;# 
   628  0F35                     	;# 
   629  0F36                     	;# 
   630  0F37                     	;# 
   631  0FE4                     	;# 
   632  0FE5                     	;# 
   633  0FE6                     	;# 
   634  0FE7                     	;# 
   635  0FE8                     	;# 
   636  0FE9                     	;# 
   637  0FEA                     	;# 
   638  0FEB                     	;# 
   639  0FED                     	;# 
   640  0FEE                     	;# 
   641  0FEF                     	;# 
   642  0000                     	;# 
   643  0001                     	;# 
   644  0002                     	;# 
   645  0003                     	;# 
   646  0004                     	;# 
   647  0005                     	;# 
   648  0006                     	;# 
   649  0007                     	;# 
   650  0008                     	;# 
   651  0009                     	;# 
   652  000A                     	;# 
   653  000B                     	;# 
   654  000C                     	;# 
   655  000D                     	;# 
   656  000E                     	;# 
   657  0010                     	;# 
   658  0011                     	;# 
   659  0012                     	;# 
   660  0013                     	;# 
   661  0014                     	;# 
   662  0015                     	;# 
   663  0016                     	;# 
   664  0017                     	;# 
   665  0018                     	;# 
   666  0018                     	;# 
   667  0019                     	;# 
   668  001A                     	;# 
   669  001B                     	;# 
   670  001C                     	;# 
   671  001C                     	;# 
   672  001D                     	;# 
   673  001E                     	;# 
   674  001F                     	;# 
   675  008C                     	;# 
   676  008D                     	;# 
   677  008E                     	;# 
   678  0090                     	;# 
   679  0091                     	;# 
   680  0092                     	;# 
   681  0093                     	;# 
   682  0094                     	;# 
   683  0095                     	;# 
   684  0096                     	;# 
   685  0097                     	;# 
   686  0098                     	;# 
   687  0099                     	;# 
   688  009A                     	;# 
   689  009B                     	;# 
   690  009C                     	;# 
   691  009D                     	;# 
   692  009E                     	;# 
   693  009F                     	;# 
   694  010C                     	;# 
   695  010D                     	;# 
   696  010E                     	;# 
   697  0111                     	;# 
   698  0112                     	;# 
   699  0113                     	;# 
   700  0114                     	;# 
   701  0115                     	;# 
   702  0116                     	;# 
   703  0117                     	;# 
   704  0118                     	;# 
   705  0119                     	;# 
   706  011A                     	;# 
   707  011B                     	;# 
   708  011C                     	;# 
   709  011D                     	;# 
   710  018C                     	;# 
   711  018D                     	;# 
   712  018E                     	;# 
   713  0191                     	;# 
   714  0191                     	;# 
   715  0192                     	;# 
   716  0193                     	;# 
   717  0193                     	;# 
   718  0194                     	;# 
   719  0195                     	;# 
   720  0196                     	;# 
   721  0197                     	;# 
   722  0199                     	;# 
   723  0199                     	;# 
   724  0199                     	;# 
   725  019A                     	;# 
   726  019A                     	;# 
   727  019A                     	;# 
   728  019B                     	;# 
   729  019B                     	;# 
   730  019B                     	;# 
   731  019B                     	;# 
   732  019B                     	;# 
   733  019C                     	;# 
   734  019C                     	;# 
   735  019C                     	;# 
   736  019D                     	;# 
   737  019D                     	;# 
   738  019D                     	;# 
   739  019E                     	;# 
   740  019E                     	;# 
   741  019E                     	;# 
   742  019F                     	;# 
   743  019F                     	;# 
   744  019F                     	;# 
   745  019F                     	;# 
   746  019F                     	;# 
   747  020C                     	;# 
   748  020D                     	;# 
   749  020E                     	;# 
   750  0210                     	;# 
   751  0211                     	;# 
   752  0211                     	;# 
   753  0212                     	;# 
   754  0212                     	;# 
   755  0213                     	;# 
   756  0213                     	;# 
   757  0214                     	;# 
   758  0214                     	;# 
   759  0215                     	;# 
   760  0215                     	;# 
   761  0215                     	;# 
   762  0215                     	;# 
   763  0216                     	;# 
   764  0216                     	;# 
   765  0217                     	;# 
   766  0217                     	;# 
   767  021B                     	;# 
   768  021C                     	;# 
   769  021D                     	;# 
   770  021E                     	;# 
   771  021F                     	;# 
   772  028C                     	;# 
   773  028D                     	;# 
   774  028E                     	;# 
   775  0291                     	;# 
   776  0291                     	;# 
   777  0292                     	;# 
   778  0293                     	;# 
   779  0294                     	;# 
   780  0295                     	;# 
   781  0295                     	;# 
   782  0296                     	;# 
   783  0297                     	;# 
   784  0298                     	;# 
   785  0299                     	;# 
   786  0299                     	;# 
   787  029A                     	;# 
   788  029B                     	;# 
   789  029C                     	;# 
   790  029E                     	;# 
   791  029F                     	;# 
   792  030C                     	;# 
   793  030D                     	;# 
   794  030E                     	;# 
   795  0315                     	;# 
   796  0316                     	;# 
   797  0317                     	;# 
   798  0318                     	;# 
   799  0319                     	;# 
   800  031B                     	;# 
   801  031C                     	;# 
   802  031D                     	;# 
   803  031E                     	;# 
   804  031F                     	;# 
   805  038C                     	;# 
   806  038D                     	;# 
   807  038E                     	;# 
   808  0390                     	;# 
   809  0391                     	;# 
   810  0392                     	;# 
   811  0393                     	;# 
   812  0394                     	;# 
   813  0395                     	;# 
   814  0396                     	;# 
   815  0397                     	;# 
   816  0398                     	;# 
   817  0399                     	;# 
   818  039D                     	;# 
   819  039E                     	;# 
   820  039F                     	;# 
   821  040D                     	;# 
   822  040F                     	;# 
   823  040F                     	;# 
   824  0410                     	;# 
   825  0411                     	;# 
   826  0412                     	;# 
   827  0413                     	;# 
   828  0413                     	;# 
   829  0414                     	;# 
   830  0414                     	;# 
   831  0415                     	;# 
   832  0416                     	;# 
   833  0417                     	;# 
   834  0418                     	;# 
   835  041A                     	;# 
   836  041A                     	;# 
   837  041B                     	;# 
   838  041B                     	;# 
   839  041C                     	;# 
   840  041D                     	;# 
   841  041E                     	;# 
   842  041F                     	;# 
   843  048E                     	;# 
   844  048E                     	;# 
   845  048F                     	;# 
   846  0490                     	;# 
   847  0491                     	;# 
   848  0492                     	;# 
   849  0493                     	;# 
   850  0493                     	;# 
   851  0494                     	;# 
   852  0494                     	;# 
   853  0495                     	;# 
   854  0496                     	;# 
   855  0497                     	;# 
   856  0498                     	;# 
   857  049A                     	;# 
   858  049A                     	;# 
   859  049B                     	;# 
   860  049B                     	;# 
   861  049C                     	;# 
   862  049D                     	;# 
   863  049E                     	;# 
   864  049F                     	;# 
   865  050F                     	;# 
   866  0510                     	;# 
   867  0511                     	;# 
   868  0512                     	;# 
   869  0513                     	;# 
   870  0514                     	;# 
   871  0515                     	;# 
   872  0516                     	;# 
   873  0517                     	;# 
   874  0518                     	;# 
   875  0519                     	;# 
   876  051A                     	;# 
   877  058D                     	;# 
   878  058E                     	;# 
   879  058F                     	;# 
   880  058F                     	;# 
   881  058F                     	;# 
   882  0590                     	;# 
   883  0590                     	;# 
   884  0591                     	;# 
   885  0592                     	;# 
   886  0592                     	;# 
   887  0592                     	;# 
   888  0593                     	;# 
   889  0593                     	;# 
   890  0594                     	;# 
   891  0595                     	;# 
   892  0595                     	;# 
   893  0596                     	;# 
   894  0597                     	;# 
   895  0597                     	;# 
   896  0598                     	;# 
   897  0599                     	;# 
   898  0599                     	;# 
   899  0599                     	;# 
   900  059A                     	;# 
   901  059A                     	;# 
   902  059E                     	;# 
   903  059F                     	;# 
   904  059F                     	;# 
   905  0614                     	;# 
   906  0614                     	;# 
   907  0615                     	;# 
   908  0616                     	;# 
   909  0617                     	;# 
   910  0617                     	;# 
   911  0618                     	;# 
   912  0619                     	;# 
   913  061A                     	;# 
   914  061A                     	;# 
   915  061B                     	;# 
   916  061C                     	;# 
   917  068D                     	;# 
   918  068E                     	;# 
   919  068F                     	;# 
   920  0690                     	;# 
   921  0691                     	;# 
   922  0692                     	;# 
   923  0693                     	;# 
   924  0694                     	;# 
   925  0695                     	;# 
   926  0696                     	;# 
   927  0697                     	;# 
   928  0698                     	;# 
   929  0699                     	;# 
   930  069A                     	;# 
   931  069B                     	;# 
   932  069C                     	;# 
   933  069D                     	;# 
   934  069E                     	;# 
   935  069F                     	;# 
   936  070D                     	;# 
   937  070E                     	;# 
   938  070F                     	;# 
   939  0710                     	;# 
   940  0711                     	;# 
   941  0712                     	;# 
   942  0713                     	;# 
   943  0714                     	;# 
   944  0715                     	;# 
   945  0716                     	;# 
   946  0717                     	;# 
   947  0718                     	;# 
   948  0719                     	;# 
   949  071A                     	;# 
   950  071B                     	;# 
   951  071C                     	;# 
   952  071D                     	;# 
   953  071E                     	;# 
   954  071F                     	;# 
   955  078E                     	;# 
   956  078F                     	;# 
   957  0790                     	;# 
   958  0791                     	;# 
   959  0792                     	;# 
   960  0793                     	;# 
   961  0794                     	;# 
   962  0795                     	;# 
   963  0796                     	;# 
   964  0797                     	;# 
   965  0798                     	;# 
   966  0799                     	;# 
   967  079A                     	;# 
   968  079B                     	;# 
   969  079C                     	;# 
   970  079D                     	;# 
   971  079E                     	;# 
   972  079F                     	;# 
   973  080D                     	;# 
   974  080E                     	;# 
   975  080F                     	;# 
   976  0810                     	;# 
   977  0811                     	;# 
   978  0812                     	;# 
   979  0813                     	;# 
   980  0814                     	;# 
   981  0815                     	;# 
   982  0816                     	;# 
   983  0817                     	;# 
   984  0818                     	;# 
   985  0819                     	;# 
   986  081A                     	;# 
   987  081B                     	;# 
   988  081C                     	;# 
   989  081D                     	;# 
   990  081E                     	;# 
   991  081F                     	;# 
   992  090C                     	;# 
   993  090D                     	;# 
   994  090E                     	;# 
   995  090F                     	;# 
   996  0910                     	;# 
   997  0911                     	;# 
   998  0912                     	;# 
   999  0913                     	;# 
  1000  0914                     	;# 
  1001  0915                     	;# 
  1002  0916                     	;# 
  1003  0917                     	;# 
  1004  0D8E                     	;# 
  1005  0D8F                     	;# 
  1006  0D90                     	;# 
  1007  0D91                     	;# 
  1008  0D91                     	;# 
  1009  0D92                     	;# 
  1010  0D93                     	;# 
  1011  0D93                     	;# 
  1012  0D94                     	;# 
  1013  0D95                     	;# 
  1014  0D95                     	;# 
  1015  0D96                     	;# 
  1016  0D97                     	;# 
  1017  0D97                     	;# 
  1018  0D98                     	;# 
  1019  0D99                     	;# 
  1020  0D99                     	;# 
  1021  0D9A                     	;# 
  1022  0D9B                     	;# 
  1023  0D9C                     	;# 
  1024  0D9C                     	;# 
  1025  0D9D                     	;# 
  1026  0D9D                     	;# 
  1027  0D9E                     	;# 
  1028  0D9F                     	;# 
  1029  0DA0                     	;# 
  1030  0DA1                     	;# 
  1031  0DA1                     	;# 
  1032  0DA2                     	;# 
  1033  0DA3                     	;# 
  1034  0DA3                     	;# 
  1035  0DA4                     	;# 
  1036  0DA5                     	;# 
  1037  0DA5                     	;# 
  1038  0DA6                     	;# 
  1039  0DA7                     	;# 
  1040  0DA7                     	;# 
  1041  0DA8                     	;# 
  1042  0DA9                     	;# 
  1043  0DA9                     	;# 
  1044  0DAA                     	;# 
  1045  0DAB                     	;# 
  1046  0DAC                     	;# 
  1047  0DAC                     	;# 
  1048  0DAD                     	;# 
  1049  0DAD                     	;# 
  1050  0DAE                     	;# 
  1051  0DAF                     	;# 
  1052  0DB0                     	;# 
  1053  0DB1                     	;# 
  1054  0DB1                     	;# 
  1055  0DB2                     	;# 
  1056  0DB3                     	;# 
  1057  0DB3                     	;# 
  1058  0DB4                     	;# 
  1059  0DB5                     	;# 
  1060  0DB5                     	;# 
  1061  0DB6                     	;# 
  1062  0DB7                     	;# 
  1063  0DB7                     	;# 
  1064  0DB8                     	;# 
  1065  0DB9                     	;# 
  1066  0DB9                     	;# 
  1067  0DBA                     	;# 
  1068  0DBB                     	;# 
  1069  0DBC                     	;# 
  1070  0DBC                     	;# 
  1071  0DBD                     	;# 
  1072  0DBD                     	;# 
  1073  0DBE                     	;# 
  1074  0DBF                     	;# 
  1075  0DC0                     	;# 
  1076  0E0C                     	;# 
  1077  0E0D                     	;# 
  1078  0E0E                     	;# 
  1079  0E0F                     	;# 
  1080  0E10                     	;# 
  1081  0E11                     	;# 
  1082  0E12                     	;# 
  1083  0E13                     	;# 
  1084  0E14                     	;# 
  1085  0E15                     	;# 
  1086  0E15                     	;# 
  1087  0E15                     	;# 
  1088  0E16                     	;# 
  1089  0E16                     	;# 
  1090  0E16                     	;# 
  1091  0E17                     	;# 
  1092  0E17                     	;# 
  1093  0E17                     	;# 
  1094  0E18                     	;# 
  1095  0E18                     	;# 
  1096  0E18                     	;# 
  1097  0E19                     	;# 
  1098  0E1A                     	;# 
  1099  0E1B                     	;# 
  1100  0E1D                     	;# 
  1101  0E1E                     	;# 
  1102  0E1F                     	;# 
  1103  0E21                     	;# 
  1104  0E22                     	;# 
  1105  0E23                     	;# 
  1106  0E24                     	;# 
  1107  0E25                     	;# 
  1108  0E26                     	;# 
  1109  0E27                     	;# 
  1110  0E28                     	;# 
  1111  0E29                     	;# 
  1112  0E2D                     	;# 
  1113  0E2E                     	;# 
  1114  0E2F                     	;# 
  1115  0E30                     	;# 
  1116  0E31                     	;# 
  1117  0E32                     	;# 
  1118  0E35                     	;# 
  1119  0E36                     	;# 
  1120  0E37                     	;# 
  1121  0E38                     	;# 
  1122  0E39                     	;# 
  1123  0E3A                     	;# 
  1124  0E3B                     	;# 
  1125  0E3C                     	;# 
  1126  0E3D                     	;# 
  1127  0E3E                     	;# 
  1128  0E90                     	;# 
  1129  0E91                     	;# 
  1130  0E92                     	;# 
  1131  0E93                     	;# 
  1132  0E94                     	;# 
  1133  0E95                     	;# 
  1134  0E96                     	;# 
  1135  0E97                     	;# 
  1136  0E98                     	;# 
  1137  0E99                     	;# 
  1138  0E9A                     	;# 
  1139  0E9B                     	;# 
  1140  0E9C                     	;# 
  1141  0E9D                     	;# 
  1142  0E9E                     	;# 
  1143  0E9F                     	;# 
  1144  0EA0                     	;# 
  1145  0EA1                     	;# 
  1146  0EA2                     	;# 
  1147  0EA3                     	;# 
  1148  0EA4                     	;# 
  1149  0EA5                     	;# 
  1150  0EA6                     	;# 
  1151  0EA7                     	;# 
  1152  0F0F                     	;# 
  1153  0F10                     	;# 
  1154  0F11                     	;# 
  1155  0F12                     	;# 
  1156  0F13                     	;# 
  1157  0F14                     	;# 
  1158  0F15                     	;# 
  1159  0F16                     	;# 
  1160  0F17                     	;# 
  1161  0F18                     	;# 
  1162  0F19                     	;# 
  1163  0F1A                     	;# 
  1164  0F1B                     	;# 
  1165  0F1C                     	;# 
  1166  0F1D                     	;# 
  1167  0F1E                     	;# 
  1168  0F1F                     	;# 
  1169  0F20                     	;# 
  1170  0F21                     	;# 
  1171  0F22                     	;# 
  1172  0F23                     	;# 
  1173  0F24                     	;# 
  1174  0F25                     	;# 
  1175  0F26                     	;# 
  1176  0F27                     	;# 
  1177  0F28                     	;# 
  1178  0F29                     	;# 
  1179  0F2A                     	;# 
  1180  0F2B                     	;# 
  1181  0F2C                     	;# 
  1182  0F2D                     	;# 
  1183  0F2E                     	;# 
  1184  0F2F                     	;# 
  1185  0F30                     	;# 
  1186  0F31                     	;# 
  1187  0F32                     	;# 
  1188  0F33                     	;# 
  1189  0F34                     	;# 
  1190  0F35                     	;# 
  1191  0F36                     	;# 
  1192  0F37                     	;# 
  1193  0FE4                     	;# 
  1194  0FE5                     	;# 
  1195  0FE6                     	;# 
  1196  0FE7                     	;# 
  1197  0FE8                     	;# 
  1198  0FE9                     	;# 
  1199  0FEA                     	;# 
  1200  0FEB                     	;# 
  1201  0FED                     	;# 
  1202  0FEE                     	;# 
  1203  0FEF                     	;# 
  1204  0000                     	;# 
  1205  0001                     	;# 
  1206  0002                     	;# 
  1207  0003                     	;# 
  1208  0004                     	;# 
  1209  0005                     	;# 
  1210  0006                     	;# 
  1211  0007                     	;# 
  1212  0008                     	;# 
  1213  0009                     	;# 
  1214  000A                     	;# 
  1215  000B                     	;# 
  1216  000C                     	;# 
  1217  000D                     	;# 
  1218  000E                     	;# 
  1219  0010                     	;# 
  1220  0011                     	;# 
  1221  0012                     	;# 
  1222  0013                     	;# 
  1223  0014                     	;# 
  1224  0015                     	;# 
  1225  0016                     	;# 
  1226  0017                     	;# 
  1227  0018                     	;# 
  1228  0018                     	;# 
  1229  0019                     	;# 
  1230  001A                     	;# 
  1231  001B                     	;# 
  1232  001C                     	;# 
  1233  001C                     	;# 
  1234  001D                     	;# 
  1235  001E                     	;# 
  1236  001F                     	;# 
  1237  008C                     	;# 
  1238  008D                     	;# 
  1239  008E                     	;# 
  1240  0090                     	;# 
  1241  0091                     	;# 
  1242  0092                     	;# 
  1243  0093                     	;# 
  1244  0094                     	;# 
  1245  0095                     	;# 
  1246  0096                     	;# 
  1247  0097                     	;# 
  1248  0098                     	;# 
  1249  0099                     	;# 
  1250  009A                     	;# 
  1251  009B                     	;# 
  1252  009C                     	;# 
  1253  009D                     	;# 
  1254  009E                     	;# 
  1255  009F                     	;# 
  1256  010C                     	;# 
  1257  010D                     	;# 
  1258  010E                     	;# 
  1259  0111                     	;# 
  1260  0112                     	;# 
  1261  0113                     	;# 
  1262  0114                     	;# 
  1263  0115                     	;# 
  1264  0116                     	;# 
  1265  0117                     	;# 
  1266  0118                     	;# 
  1267  0119                     	;# 
  1268  011A                     	;# 
  1269  011B                     	;# 
  1270  011C                     	;# 
  1271  011D                     	;# 
  1272  018C                     	;# 
  1273  018D                     	;# 
  1274  018E                     	;# 
  1275  0191                     	;# 
  1276  0191                     	;# 
  1277  0192                     	;# 
  1278  0193                     	;# 
  1279  0193                     	;# 
  1280  0194                     	;# 
  1281  0195                     	;# 
  1282  0196                     	;# 
  1283  0197                     	;# 
  1284  0199                     	;# 
  1285  0199                     	;# 
  1286  0199                     	;# 
  1287  019A                     	;# 
  1288  019A                     	;# 
  1289  019A                     	;# 
  1290  019B                     	;# 
  1291  019B                     	;# 
  1292  019B                     	;# 
  1293  019B                     	;# 
  1294  019B                     	;# 
  1295  019C                     	;# 
  1296  019C                     	;# 
  1297  019C                     	;# 
  1298  019D                     	;# 
  1299  019D                     	;# 
  1300  019D                     	;# 
  1301  019E                     	;# 
  1302  019E                     	;# 
  1303  019E                     	;# 
  1304  019F                     	;# 
  1305  019F                     	;# 
  1306  019F                     	;# 
  1307  019F                     	;# 
  1308  019F                     	;# 
  1309  020C                     	;# 
  1310  020D                     	;# 
  1311  020E                     	;# 
  1312  0210                     	;# 
  1313  0211                     	;# 
  1314  0211                     	;# 
  1315  0212                     	;# 
  1316  0212                     	;# 
  1317  0213                     	;# 
  1318  0213                     	;# 
  1319  0214                     	;# 
  1320  0214                     	;# 
  1321  0215                     	;# 
  1322  0215                     	;# 
  1323  0215                     	;# 
  1324  0215                     	;# 
  1325  0216                     	;# 
  1326  0216                     	;# 
  1327  0217                     	;# 
  1328  0217                     	;# 
  1329  021B                     	;# 
  1330  021C                     	;# 
  1331  021D                     	;# 
  1332  021E                     	;# 
  1333  021F                     	;# 
  1334  028C                     	;# 
  1335  028D                     	;# 
  1336  028E                     	;# 
  1337  0291                     	;# 
  1338  0291                     	;# 
  1339  0292                     	;# 
  1340  0293                     	;# 
  1341  0294                     	;# 
  1342  0295                     	;# 
  1343  0295                     	;# 
  1344  0296                     	;# 
  1345  0297                     	;# 
  1346  0298                     	;# 
  1347  0299                     	;# 
  1348  0299                     	;# 
  1349  029A                     	;# 
  1350  029B                     	;# 
  1351  029C                     	;# 
  1352  029E                     	;# 
  1353  029F                     	;# 
  1354  030C                     	;# 
  1355  030D                     	;# 
  1356  030E                     	;# 
  1357  0315                     	;# 
  1358  0316                     	;# 
  1359  0317                     	;# 
  1360  0318                     	;# 
  1361  0319                     	;# 
  1362  031B                     	;# 
  1363  031C                     	;# 
  1364  031D                     	;# 
  1365  031E                     	;# 
  1366  031F                     	;# 
  1367  038C                     	;# 
  1368  038D                     	;# 
  1369  038E                     	;# 
  1370  0390                     	;# 
  1371  0391                     	;# 
  1372  0392                     	;# 
  1373  0393                     	;# 
  1374  0394                     	;# 
  1375  0395                     	;# 
  1376  0396                     	;# 
  1377  0397                     	;# 
  1378  0398                     	;# 
  1379  0399                     	;# 
  1380  039D                     	;# 
  1381  039E                     	;# 
  1382  039F                     	;# 
  1383  040D                     	;# 
  1384  040F                     	;# 
  1385  040F                     	;# 
  1386  0410                     	;# 
  1387  0411                     	;# 
  1388  0412                     	;# 
  1389  0413                     	;# 
  1390  0413                     	;# 
  1391  0414                     	;# 
  1392  0414                     	;# 
  1393  0415                     	;# 
  1394  0416                     	;# 
  1395  0417                     	;# 
  1396  0418                     	;# 
  1397  041A                     	;# 
  1398  041A                     	;# 
  1399  041B                     	;# 
  1400  041B                     	;# 
  1401  041C                     	;# 
  1402  041D                     	;# 
  1403  041E                     	;# 
  1404  041F                     	;# 
  1405  048E                     	;# 
  1406  048E                     	;# 
  1407  048F                     	;# 
  1408  0490                     	;# 
  1409  0491                     	;# 
  1410  0492                     	;# 
  1411  0493                     	;# 
  1412  0493                     	;# 
  1413  0494                     	;# 
  1414  0494                     	;# 
  1415  0495                     	;# 
  1416  0496                     	;# 
  1417  0497                     	;# 
  1418  0498                     	;# 
  1419  049A                     	;# 
  1420  049A                     	;# 
  1421  049B                     	;# 
  1422  049B                     	;# 
  1423  049C                     	;# 
  1424  049D                     	;# 
  1425  049E                     	;# 
  1426  049F                     	;# 
  1427  050F                     	;# 
  1428  0510                     	;# 
  1429  0511                     	;# 
  1430  0512                     	;# 
  1431  0513                     	;# 
  1432  0514                     	;# 
  1433  0515                     	;# 
  1434  0516                     	;# 
  1435  0517                     	;# 
  1436  0518                     	;# 
  1437  0519                     	;# 
  1438  051A                     	;# 
  1439  058D                     	;# 
  1440  058E                     	;# 
  1441  058F                     	;# 
  1442  058F                     	;# 
  1443  058F                     	;# 
  1444  0590                     	;# 
  1445  0590                     	;# 
  1446  0591                     	;# 
  1447  0592                     	;# 
  1448  0592                     	;# 
  1449  0592                     	;# 
  1450  0593                     	;# 
  1451  0593                     	;# 
  1452  0594                     	;# 
  1453  0595                     	;# 
  1454  0595                     	;# 
  1455  0596                     	;# 
  1456  0597                     	;# 
  1457  0597                     	;# 
  1458  0598                     	;# 
  1459  0599                     	;# 
  1460  0599                     	;# 
  1461  0599                     	;# 
  1462  059A                     	;# 
  1463  059A                     	;# 
  1464  059E                     	;# 
  1465  059F                     	;# 
  1466  059F                     	;# 
  1467  0614                     	;# 
  1468  0614                     	;# 
  1469  0615                     	;# 
  1470  0616                     	;# 
  1471  0617                     	;# 
  1472  0617                     	;# 
  1473  0618                     	;# 
  1474  0619                     	;# 
  1475  061A                     	;# 
  1476  061A                     	;# 
  1477  061B                     	;# 
  1478  061C                     	;# 
  1479  068D                     	;# 
  1480  068E                     	;# 
  1481  068F                     	;# 
  1482  0690                     	;# 
  1483  0691                     	;# 
  1484  0692                     	;# 
  1485  0693                     	;# 
  1486  0694                     	;# 
  1487  0695                     	;# 
  1488  0696                     	;# 
  1489  0697                     	;# 
  1490  0698                     	;# 
  1491  0699                     	;# 
  1492  069A                     	;# 
  1493  069B                     	;# 
  1494  069C                     	;# 
  1495  069D                     	;# 
  1496  069E                     	;# 
  1497  069F                     	;# 
  1498  070D                     	;# 
  1499  070E                     	;# 
  1500  070F                     	;# 
  1501  0710                     	;# 
  1502  0711                     	;# 
  1503  0712                     	;# 
  1504  0713                     	;# 
  1505  0714                     	;# 
  1506  0715                     	;# 
  1507  0716                     	;# 
  1508  0717                     	;# 
  1509  0718                     	;# 
  1510  0719                     	;# 
  1511  071A                     	;# 
  1512  071B                     	;# 
  1513  071C                     	;# 
  1514  071D                     	;# 
  1515  071E                     	;# 
  1516  071F                     	;# 
  1517  078E                     	;# 
  1518  078F                     	;# 
  1519  0790                     	;# 
  1520  0791                     	;# 
  1521  0792                     	;# 
  1522  0793                     	;# 
  1523  0794                     	;# 
  1524  0795                     	;# 
  1525  0796                     	;# 
  1526  0797                     	;# 
  1527  0798                     	;# 
  1528  0799                     	;# 
  1529  079A                     	;# 
  1530  079B                     	;# 
  1531  079C                     	;# 
  1532  079D                     	;# 
  1533  079E                     	;# 
  1534  079F                     	;# 
  1535  080D                     	;# 
  1536  080E                     	;# 
  1537  080F                     	;# 
  1538  0810                     	;# 
  1539  0811                     	;# 
  1540  0812                     	;# 
  1541  0813                     	;# 
  1542  0814                     	;# 
  1543  0815                     	;# 
  1544  0816                     	;# 
  1545  0817                     	;# 
  1546  0818                     	;# 
  1547  0819                     	;# 
  1548  081A                     	;# 
  1549  081B                     	;# 
  1550  081C                     	;# 
  1551  081D                     	;# 
  1552  081E                     	;# 
  1553  081F                     	;# 
  1554  090C                     	;# 
  1555  090D                     	;# 
  1556  090E                     	;# 
  1557  090F                     	;# 
  1558  0910                     	;# 
  1559  0911                     	;# 
  1560  0912                     	;# 
  1561  0913                     	;# 
  1562  0914                     	;# 
  1563  0915                     	;# 
  1564  0916                     	;# 
  1565  0917                     	;# 
  1566  0D8E                     	;# 
  1567  0D8F                     	;# 
  1568  0D90                     	;# 
  1569  0D91                     	;# 
  1570  0D91                     	;# 
  1571  0D92                     	;# 
  1572  0D93                     	;# 
  1573  0D93                     	;# 
  1574  0D94                     	;# 
  1575  0D95                     	;# 
  1576  0D95                     	;# 
  1577  0D96                     	;# 
  1578  0D97                     	;# 
  1579  0D97                     	;# 
  1580  0D98                     	;# 
  1581  0D99                     	;# 
  1582  0D99                     	;# 
  1583  0D9A                     	;# 
  1584  0D9B                     	;# 
  1585  0D9C                     	;# 
  1586  0D9C                     	;# 
  1587  0D9D                     	;# 
  1588  0D9D                     	;# 
  1589  0D9E                     	;# 
  1590  0D9F                     	;# 
  1591  0DA0                     	;# 
  1592  0DA1                     	;# 
  1593  0DA1                     	;# 
  1594  0DA2                     	;# 
  1595  0DA3                     	;# 
  1596  0DA3                     	;# 
  1597  0DA4                     	;# 
  1598  0DA5                     	;# 
  1599  0DA5                     	;# 
  1600  0DA6                     	;# 
  1601  0DA7                     	;# 
  1602  0DA7                     	;# 
  1603  0DA8                     	;# 
  1604  0DA9                     	;# 
  1605  0DA9                     	;# 
  1606  0DAA                     	;# 
  1607  0DAB                     	;# 
  1608  0DAC                     	;# 
  1609  0DAC                     	;# 
  1610  0DAD                     	;# 
  1611  0DAD                     	;# 
  1612  0DAE                     	;# 
  1613  0DAF                     	;# 
  1614  0DB0                     	;# 
  1615  0DB1                     	;# 
  1616  0DB1                     	;# 
  1617  0DB2                     	;# 
  1618  0DB3                     	;# 
  1619  0DB3                     	;# 
  1620  0DB4                     	;# 
  1621  0DB5                     	;# 
  1622  0DB5                     	;# 
  1623  0DB6                     	;# 
  1624  0DB7                     	;# 
  1625  0DB7                     	;# 
  1626  0DB8                     	;# 
  1627  0DB9                     	;# 
  1628  0DB9                     	;# 
  1629  0DBA                     	;# 
  1630  0DBB                     	;# 
  1631  0DBC                     	;# 
  1632  0DBC                     	;# 
  1633  0DBD                     	;# 
  1634  0DBD                     	;# 
  1635  0DBE                     	;# 
  1636  0DBF                     	;# 
  1637  0DC0                     	;# 
  1638  0E0C                     	;# 
  1639  0E0D                     	;# 
  1640  0E0E                     	;# 
  1641  0E0F                     	;# 
  1642  0E10                     	;# 
  1643  0E11                     	;# 
  1644  0E12                     	;# 
  1645  0E13                     	;# 
  1646  0E14                     	;# 
  1647  0E15                     	;# 
  1648  0E15                     	;# 
  1649  0E15                     	;# 
  1650  0E16                     	;# 
  1651  0E16                     	;# 
  1652  0E16                     	;# 
  1653  0E17                     	;# 
  1654  0E17                     	;# 
  1655  0E17                     	;# 
  1656  0E18                     	;# 
  1657  0E18                     	;# 
  1658  0E18                     	;# 
  1659  0E19                     	;# 
  1660  0E1A                     	;# 
  1661  0E1B                     	;# 
  1662  0E1D                     	;# 
  1663  0E1E                     	;# 
  1664  0E1F                     	;# 
  1665  0E21                     	;# 
  1666  0E22                     	;# 
  1667  0E23                     	;# 
  1668  0E24                     	;# 
  1669  0E25                     	;# 
  1670  0E26                     	;# 
  1671  0E27                     	;# 
  1672  0E28                     	;# 
  1673  0E29                     	;# 
  1674  0E2D                     	;# 
  1675  0E2E                     	;# 
  1676  0E2F                     	;# 
  1677  0E30                     	;# 
  1678  0E31                     	;# 
  1679  0E32                     	;# 
  1680  0E35                     	;# 
  1681  0E36                     	;# 
  1682  0E37                     	;# 
  1683  0E38                     	;# 
  1684  0E39                     	;# 
  1685  0E3A                     	;# 
  1686  0E3B                     	;# 
  1687  0E3C                     	;# 
  1688  0E3D                     	;# 
  1689  0E3E                     	;# 
  1690  0E90                     	;# 
  1691  0E91                     	;# 
  1692  0E92                     	;# 
  1693  0E93                     	;# 
  1694  0E94                     	;# 
  1695  0E95                     	;# 
  1696  0E96                     	;# 
  1697  0E97                     	;# 
  1698  0E98                     	;# 
  1699  0E99                     	;# 
  1700  0E9A                     	;# 
  1701  0E9B                     	;# 
  1702  0E9C                     	;# 
  1703  0E9D                     	;# 
  1704  0E9E                     	;# 
  1705  0E9F                     	;# 
  1706  0EA0                     	;# 
  1707  0EA1                     	;# 
  1708  0EA2                     	;# 
  1709  0EA3                     	;# 
  1710  0EA4                     	;# 
  1711  0EA5                     	;# 
  1712  0EA6                     	;# 
  1713  0EA7                     	;# 
  1714  0F0F                     	;# 
  1715  0F10                     	;# 
  1716  0F11                     	;# 
  1717  0F12                     	;# 
  1718  0F13                     	;# 
  1719  0F14                     	;# 
  1720  0F15                     	;# 
  1721  0F16                     	;# 
  1722  0F17                     	;# 
  1723  0F18                     	;# 
  1724  0F19                     	;# 
  1725  0F1A                     	;# 
  1726  0F1B                     	;# 
  1727  0F1C                     	;# 
  1728  0F1D                     	;# 
  1729  0F1E                     	;# 
  1730  0F1F                     	;# 
  1731  0F20                     	;# 
  1732  0F21                     	;# 
  1733  0F22                     	;# 
  1734  0F23                     	;# 
  1735  0F24                     	;# 
  1736  0F25                     	;# 
  1737  0F26                     	;# 
  1738  0F27                     	;# 
  1739  0F28                     	;# 
  1740  0F29                     	;# 
  1741  0F2A                     	;# 
  1742  0F2B                     	;# 
  1743  0F2C                     	;# 
  1744  0F2D                     	;# 
  1745  0F2E                     	;# 
  1746  0F2F                     	;# 
  1747  0F30                     	;# 
  1748  0F31                     	;# 
  1749  0F32                     	;# 
  1750  0F33                     	;# 
  1751  0F34                     	;# 
  1752  0F35                     	;# 
  1753  0F36                     	;# 
  1754  0F37                     	;# 
  1755  0FE4                     	;# 
  1756  0FE5                     	;# 
  1757  0FE6                     	;# 
  1758  0FE7                     	;# 
  1759  0FE8                     	;# 
  1760  0FE9                     	;# 
  1761  0FEA                     	;# 
  1762  0FEB                     	;# 
  1763  0FED                     	;# 
  1764  0FEE                     	;# 
  1765  0FEF                     	;# 
  1766  0000                     	;# 
  1767  0001                     	;# 
  1768  0002                     	;# 
  1769  0003                     	;# 
  1770  0004                     	;# 
  1771  0005                     	;# 
  1772  0006                     	;# 
  1773  0007                     	;# 
  1774  0008                     	;# 
  1775  0009                     	;# 
  1776  000A                     	;# 
  1777  000B                     	;# 
  1778  000C                     	;# 
  1779  000D                     	;# 
  1780  000E                     	;# 
  1781  0010                     	;# 
  1782  0011                     	;# 
  1783  0012                     	;# 
  1784  0013                     	;# 
  1785  0014                     	;# 
  1786  0015                     	;# 
  1787  0016                     	;# 
  1788  0017                     	;# 
  1789  0018                     	;# 
  1790  0018                     	;# 
  1791  0019                     	;# 
  1792  001A                     	;# 
  1793  001B                     	;# 
  1794  001C                     	;# 
  1795  001C                     	;# 
  1796  001D                     	;# 
  1797  001E                     	;# 
  1798  001F                     	;# 
  1799  008C                     	;# 
  1800  008D                     	;# 
  1801  008E                     	;# 
  1802  0090                     	;# 
  1803  0091                     	;# 
  1804  0092                     	;# 
  1805  0093                     	;# 
  1806  0094                     	;# 
  1807  0095                     	;# 
  1808  0096                     	;# 
  1809  0097                     	;# 
  1810  0098                     	;# 
  1811  0099                     	;# 
  1812  009A                     	;# 
  1813  009B                     	;# 
  1814  009C                     	;# 
  1815  009D                     	;# 
  1816  009E                     	;# 
  1817  009F                     	;# 
  1818  010C                     	;# 
  1819  010D                     	;# 
  1820  010E                     	;# 
  1821  0111                     	;# 
  1822  0112                     	;# 
  1823  0113                     	;# 
  1824  0114                     	;# 
  1825  0115                     	;# 
  1826  0116                     	;# 
  1827  0117                     	;# 
  1828  0118                     	;# 
  1829  0119                     	;# 
  1830  011A                     	;# 
  1831  011B                     	;# 
  1832  011C                     	;# 
  1833  011D                     	;# 
  1834  018C                     	;# 
  1835  018D                     	;# 
  1836  018E                     	;# 
  1837  0191                     	;# 
  1838  0191                     	;# 
  1839  0192                     	;# 
  1840  0193                     	;# 
  1841  0193                     	;# 
  1842  0194                     	;# 
  1843  0195                     	;# 
  1844  0196                     	;# 
  1845  0197                     	;# 
  1846  0199                     	;# 
  1847  0199                     	;# 
  1848  0199                     	;# 
  1849  019A                     	;# 
  1850  019A                     	;# 
  1851  019A                     	;# 
  1852  019B                     	;# 
  1853  019B                     	;# 
  1854  019B                     	;# 
  1855  019B                     	;# 
  1856  019B                     	;# 
  1857  019C                     	;# 
  1858  019C                     	;# 
  1859  019C                     	;# 
  1860  019D                     	;# 
  1861  019D                     	;# 
  1862  019D                     	;# 
  1863  019E                     	;# 
  1864  019E                     	;# 
  1865  019E                     	;# 
  1866  019F                     	;# 
  1867  019F                     	;# 
  1868  019F                     	;# 
  1869  019F                     	;# 
  1870  019F                     	;# 
  1871  020C                     	;# 
  1872  020D                     	;# 
  1873  020E                     	;# 
  1874  0210                     	;# 
  1875  0211                     	;# 
  1876  0211                     	;# 
  1877  0212                     	;# 
  1878  0212                     	;# 
  1879  0213                     	;# 
  1880  0213                     	;# 
  1881  0214                     	;# 
  1882  0214                     	;# 
  1883  0215                     	;# 
  1884  0215                     	;# 
  1885  0215                     	;# 
  1886  0215                     	;# 
  1887  0216                     	;# 
  1888  0216                     	;# 
  1889  0217                     	;# 
  1890  0217                     	;# 
  1891  021B                     	;# 
  1892  021C                     	;# 
  1893  021D                     	;# 
  1894  021E                     	;# 
  1895  021F                     	;# 
  1896  028C                     	;# 
  1897  028D                     	;# 
  1898  028E                     	;# 
  1899  0291                     	;# 
  1900  0291                     	;# 
  1901  0292                     	;# 
  1902  0293                     	;# 
  1903  0294                     	;# 
  1904  0295                     	;# 
  1905  0295                     	;# 
  1906  0296                     	;# 
  1907  0297                     	;# 
  1908  0298                     	;# 
  1909  0299                     	;# 
  1910  0299                     	;# 
  1911  029A                     	;# 
  1912  029B                     	;# 
  1913  029C                     	;# 
  1914  029E                     	;# 
  1915  029F                     	;# 
  1916  030C                     	;# 
  1917  030D                     	;# 
  1918  030E                     	;# 
  1919  0315                     	;# 
  1920  0316                     	;# 
  1921  0317                     	;# 
  1922  0318                     	;# 
  1923  0319                     	;# 
  1924  031B                     	;# 
  1925  031C                     	;# 
  1926  031D                     	;# 
  1927  031E                     	;# 
  1928  031F                     	;# 
  1929  038C                     	;# 
  1930  038D                     	;# 
  1931  038E                     	;# 
  1932  0390                     	;# 
  1933  0391                     	;# 
  1934  0392                     	;# 
  1935  0393                     	;# 
  1936  0394                     	;# 
  1937  0395                     	;# 
  1938  0396                     	;# 
  1939  0397                     	;# 
  1940  0398                     	;# 
  1941  0399                     	;# 
  1942  039D                     	;# 
  1943  039E                     	;# 
  1944  039F                     	;# 
  1945  040D                     	;# 
  1946  040F                     	;# 
  1947  040F                     	;# 
  1948  0410                     	;# 
  1949  0411                     	;# 
  1950  0412                     	;# 
  1951  0413                     	;# 
  1952  0413                     	;# 
  1953  0414                     	;# 
  1954  0414                     	;# 
  1955  0415                     	;# 
  1956  0416                     	;# 
  1957  0417                     	;# 
  1958  0418                     	;# 
  1959  041A                     	;# 
  1960  041A                     	;# 
  1961  041B                     	;# 
  1962  041B                     	;# 
  1963  041C                     	;# 
  1964  041D                     	;# 
  1965  041E                     	;# 
  1966  041F                     	;# 
  1967  048E                     	;# 
  1968  048E                     	;# 
  1969  048F                     	;# 
  1970  0490                     	;# 
  1971  0491                     	;# 
  1972  0492                     	;# 
  1973  0493                     	;# 
  1974  0493                     	;# 
  1975  0494                     	;# 
  1976  0494                     	;# 
  1977  0495                     	;# 
  1978  0496                     	;# 
  1979  0497                     	;# 
  1980  0498                     	;# 
  1981  049A                     	;# 
  1982  049A                     	;# 
  1983  049B                     	;# 
  1984  049B                     	;# 
  1985  049C                     	;# 
  1986  049D                     	;# 
  1987  049E                     	;# 
  1988  049F                     	;# 
  1989  050F                     	;# 
  1990  0510                     	;# 
  1991  0511                     	;# 
  1992  0512                     	;# 
  1993  0513                     	;# 
  1994  0514                     	;# 
  1995  0515                     	;# 
  1996  0516                     	;# 
  1997  0517                     	;# 
  1998  0518                     	;# 
  1999  0519                     	;# 
  2000  051A                     	;# 
  2001  058D                     	;# 
  2002  058E                     	;# 
  2003  058F                     	;# 
  2004  058F                     	;# 
  2005  058F                     	;# 
  2006  0590                     	;# 
  2007  0590                     	;# 
  2008  0591                     	;# 
  2009  0592                     	;# 
  2010  0592                     	;# 
  2011  0592                     	;# 
  2012  0593                     	;# 
  2013  0593                     	;# 
  2014  0594                     	;# 
  2015  0595                     	;# 
  2016  0595                     	;# 
  2017  0596                     	;# 
  2018  0597                     	;# 
  2019  0597                     	;# 
  2020  0598                     	;# 
  2021  0599                     	;# 
  2022  0599                     	;# 
  2023  0599                     	;# 
  2024  059A                     	;# 
  2025  059A                     	;# 
  2026  059E                     	;# 
  2027  059F                     	;# 
  2028  059F                     	;# 
  2029  0614                     	;# 
  2030  0614                     	;# 
  2031  0615                     	;# 
  2032  0616                     	;# 
  2033  0617                     	;# 
  2034  0617                     	;# 
  2035  0618                     	;# 
  2036  0619                     	;# 
  2037  061A                     	;# 
  2038  061A                     	;# 
  2039  061B                     	;# 
  2040  061C                     	;# 
  2041  068D                     	;# 
  2042  068E                     	;# 
  2043  068F                     	;# 
  2044  0690                     	;# 
  2045  0691                     	;# 
  2046  0692                     	;# 
  2047  0693                     	;# 
  2048  0694                     	;# 
  2049  0695                     	;# 
  2050  0696                     	;# 
  2051  0697                     	;# 
  2052  0698                     	;# 
  2053  0699                     	;# 
  2054  069A                     	;# 
  2055  069B                     	;# 
  2056  069C                     	;# 
  2057  069D                     	;# 
  2058  069E                     	;# 
  2059  069F                     	;# 
  2060  070D                     	;# 
  2061  070E                     	;# 
  2062  070F                     	;# 
  2063  0710                     	;# 
  2064  0711                     	;# 
  2065  0712                     	;# 
  2066  0713                     	;# 
  2067  0714                     	;# 
  2068  0715                     	;# 
  2069  0716                     	;# 
  2070  0717                     	;# 
  2071  0718                     	;# 
  2072  0719                     	;# 
  2073  071A                     	;# 
  2074  071B                     	;# 
  2075  071C                     	;# 
  2076  071D                     	;# 
  2077  071E                     	;# 
  2078  071F                     	;# 
  2079  078E                     	;# 
  2080  078F                     	;# 
  2081  0790                     	;# 
  2082  0791                     	;# 
  2083  0792                     	;# 
  2084  0793                     	;# 
  2085  0794                     	;# 
  2086  0795                     	;# 
  2087  0796                     	;# 
  2088  0797                     	;# 
  2089  0798                     	;# 
  2090  0799                     	;# 
  2091  079A                     	;# 
  2092  079B                     	;# 
  2093  079C                     	;# 
  2094  079D                     	;# 
  2095  079E                     	;# 
  2096  079F                     	;# 
  2097  080D                     	;# 
  2098  080E                     	;# 
  2099  080F                     	;# 
  2100  0810                     	;# 
  2101  0811                     	;# 
  2102  0812                     	;# 
  2103  0813                     	;# 
  2104  0814                     	;# 
  2105  0815                     	;# 
  2106  0816                     	;# 
  2107  0817                     	;# 
  2108  0818                     	;# 
  2109  0819                     	;# 
  2110  081A                     	;# 
  2111  081B                     	;# 
  2112  081C                     	;# 
  2113  081D                     	;# 
  2114  081E                     	;# 
  2115  081F                     	;# 
  2116  090C                     	;# 
  2117  090D                     	;# 
  2118  090E                     	;# 
  2119  090F                     	;# 
  2120  0910                     	;# 
  2121  0911                     	;# 
  2122  0912                     	;# 
  2123  0913                     	;# 
  2124  0914                     	;# 
  2125  0915                     	;# 
  2126  0916                     	;# 
  2127  0917                     	;# 
  2128  0D8E                     	;# 
  2129  0D8F                     	;# 
  2130  0D90                     	;# 
  2131  0D91                     	;# 
  2132  0D91                     	;# 
  2133  0D92                     	;# 
  2134  0D93                     	;# 
  2135  0D93                     	;# 
  2136  0D94                     	;# 
  2137  0D95                     	;# 
  2138  0D95                     	;# 
  2139  0D96                     	;# 
  2140  0D97                     	;# 
  2141  0D97                     	;# 
  2142  0D98                     	;# 
  2143  0D99                     	;# 
  2144  0D99                     	;# 
  2145  0D9A                     	;# 
  2146  0D9B                     	;# 
  2147  0D9C                     	;# 
  2148  0D9C                     	;# 
  2149  0D9D                     	;# 
  2150  0D9D                     	;# 
  2151  0D9E                     	;# 
  2152  0D9F                     	;# 
  2153  0DA0                     	;# 
  2154  0DA1                     	;# 
  2155  0DA1                     	;# 
  2156  0DA2                     	;# 
  2157  0DA3                     	;# 
  2158  0DA3                     	;# 
  2159  0DA4                     	;# 
  2160  0DA5                     	;# 
  2161  0DA5                     	;# 
  2162  0DA6                     	;# 
  2163  0DA7                     	;# 
  2164  0DA7                     	;# 
  2165  0DA8                     	;# 
  2166  0DA9                     	;# 
  2167  0DA9                     	;# 
  2168  0DAA                     	;# 
  2169  0DAB                     	;# 
  2170  0DAC                     	;# 
  2171  0DAC                     	;# 
  2172  0DAD                     	;# 
  2173  0DAD                     	;# 
  2174  0DAE                     	;# 
  2175  0DAF                     	;# 
  2176  0DB0                     	;# 
  2177  0DB1                     	;# 
  2178  0DB1                     	;# 
  2179  0DB2                     	;# 
  2180  0DB3                     	;# 
  2181  0DB3                     	;# 
  2182  0DB4                     	;# 
  2183  0DB5                     	;# 
  2184  0DB5                     	;# 
  2185  0DB6                     	;# 
  2186  0DB7                     	;# 
  2187  0DB7                     	;# 
  2188  0DB8                     	;# 
  2189  0DB9                     	;# 
  2190  0DB9                     	;# 
  2191  0DBA                     	;# 
  2192  0DBB                     	;# 
  2193  0DBC                     	;# 
  2194  0DBC                     	;# 
  2195  0DBD                     	;# 
  2196  0DBD                     	;# 
  2197  0DBE                     	;# 
  2198  0DBF                     	;# 
  2199  0DC0                     	;# 
  2200  0E0C                     	;# 
  2201  0E0D                     	;# 
  2202  0E0E                     	;# 
  2203  0E0F                     	;# 
  2204  0E10                     	;# 
  2205  0E11                     	;# 
  2206  0E12                     	;# 
  2207  0E13                     	;# 
  2208  0E14                     	;# 
  2209  0E15                     	;# 
  2210  0E15                     	;# 
  2211  0E15                     	;# 
  2212  0E16                     	;# 
  2213  0E16                     	;# 
  2214  0E16                     	;# 
  2215  0E17                     	;# 
  2216  0E17                     	;# 
  2217  0E17                     	;# 
  2218  0E18                     	;# 
  2219  0E18                     	;# 
  2220  0E18                     	;# 
  2221  0E19                     	;# 
  2222  0E1A                     	;# 
  2223  0E1B                     	;# 
  2224  0E1D                     	;# 
  2225  0E1E                     	;# 
  2226  0E1F                     	;# 
  2227  0E21                     	;# 
  2228  0E22                     	;# 
  2229  0E23                     	;# 
  2230  0E24                     	;# 
  2231  0E25                     	;# 
  2232  0E26                     	;# 
  2233  0E27                     	;# 
  2234  0E28                     	;# 
  2235  0E29                     	;# 
  2236  0E2D                     	;# 
  2237  0E2E                     	;# 
  2238  0E2F                     	;# 
  2239  0E30                     	;# 
  2240  0E31                     	;# 
  2241  0E32                     	;# 
  2242  0E35                     	;# 
  2243  0E36                     	;# 
  2244  0E37                     	;# 
  2245  0E38                     	;# 
  2246  0E39                     	;# 
  2247  0E3A                     	;# 
  2248  0E3B                     	;# 
  2249  0E3C                     	;# 
  2250  0E3D                     	;# 
  2251  0E3E                     	;# 
  2252  0E90                     	;# 
  2253  0E91                     	;# 
  2254  0E92                     	;# 
  2255  0E93                     	;# 
  2256  0E94                     	;# 
  2257  0E95                     	;# 
  2258  0E96                     	;# 
  2259  0E97                     	;# 
  2260  0E98                     	;# 
  2261  0E99                     	;# 
  2262  0E9A                     	;# 
  2263  0E9B                     	;# 
  2264  0E9C                     	;# 
  2265  0E9D                     	;# 
  2266  0E9E                     	;# 
  2267  0E9F                     	;# 
  2268  0EA0                     	;# 
  2269  0EA1                     	;# 
  2270  0EA2                     	;# 
  2271  0EA3                     	;# 
  2272  0EA4                     	;# 
  2273  0EA5                     	;# 
  2274  0EA6                     	;# 
  2275  0EA7                     	;# 
  2276  0F0F                     	;# 
  2277  0F10                     	;# 
  2278  0F11                     	;# 
  2279  0F12                     	;# 
  2280  0F13                     	;# 
  2281  0F14                     	;# 
  2282  0F15                     	;# 
  2283  0F16                     	;# 
  2284  0F17                     	;# 
  2285  0F18                     	;# 
  2286  0F19                     	;# 
  2287  0F1A                     	;# 
  2288  0F1B                     	;# 
  2289  0F1C                     	;# 
  2290  0F1D                     	;# 
  2291  0F1E                     	;# 
  2292  0F1F                     	;# 
  2293  0F20                     	;# 
  2294  0F21                     	;# 
  2295  0F22                     	;# 
  2296  0F23                     	;# 
  2297  0F24                     	;# 
  2298  0F25                     	;# 
  2299  0F26                     	;# 
  2300  0F27                     	;# 
  2301  0F28                     	;# 
  2302  0F29                     	;# 
  2303  0F2A                     	;# 
  2304  0F2B                     	;# 
  2305  0F2C                     	;# 
  2306  0F2D                     	;# 
  2307  0F2E                     	;# 
  2308  0F2F                     	;# 
  2309  0F30                     	;# 
  2310  0F31                     	;# 
  2311  0F32                     	;# 
  2312  0F33                     	;# 
  2313  0F34                     	;# 
  2314  0F35                     	;# 
  2315  0F36                     	;# 
  2316  0F37                     	;# 
  2317  0FE4                     	;# 
  2318  0FE5                     	;# 
  2319  0FE6                     	;# 
  2320  0FE7                     	;# 
  2321  0FE8                     	;# 
  2322  0FE9                     	;# 
  2323  0FEA                     	;# 
  2324  0FEB                     	;# 
  2325  0FED                     	;# 
  2326  0FEE                     	;# 
  2327  0FEF                     	;# 
  2328  0000                     	;# 
  2329  0001                     	;# 
  2330  0002                     	;# 
  2331  0003                     	;# 
  2332  0004                     	;# 
  2333  0005                     	;# 
  2334  0006                     	;# 
  2335  0007                     	;# 
  2336  0008                     	;# 
  2337  0009                     	;# 
  2338  000A                     	;# 
  2339  000B                     	;# 
  2340  000C                     	;# 
  2341  000D                     	;# 
  2342  000E                     	;# 
  2343  0010                     	;# 
  2344  0011                     	;# 
  2345  0012                     	;# 
  2346  0013                     	;# 
  2347  0014                     	;# 
  2348  0015                     	;# 
  2349  0016                     	;# 
  2350  0017                     	;# 
  2351  0018                     	;# 
  2352  0018                     	;# 
  2353  0019                     	;# 
  2354  001A                     	;# 
  2355  001B                     	;# 
  2356  001C                     	;# 
  2357  001C                     	;# 
  2358  001D                     	;# 
  2359  001E                     	;# 
  2360  001F                     	;# 
  2361  008C                     	;# 
  2362  008D                     	;# 
  2363  008E                     	;# 
  2364  0090                     	;# 
  2365  0091                     	;# 
  2366  0092                     	;# 
  2367  0093                     	;# 
  2368  0094                     	;# 
  2369  0095                     	;# 
  2370  0096                     	;# 
  2371  0097                     	;# 
  2372  0098                     	;# 
  2373  0099                     	;# 
  2374  009A                     	;# 
  2375  009B                     	;# 
  2376  009C                     	;# 
  2377  009D                     	;# 
  2378  009E                     	;# 
  2379  009F                     	;# 
  2380  010C                     	;# 
  2381  010D                     	;# 
  2382  010E                     	;# 
  2383  0111                     	;# 
  2384  0112                     	;# 
  2385  0113                     	;# 
  2386  0114                     	;# 
  2387  0115                     	;# 
  2388  0116                     	;# 
  2389  0117                     	;# 
  2390  0118                     	;# 
  2391  0119                     	;# 
  2392  011A                     	;# 
  2393  011B                     	;# 
  2394  011C                     	;# 
  2395  011D                     	;# 
  2396  018C                     	;# 
  2397  018D                     	;# 
  2398  018E                     	;# 
  2399  0191                     	;# 
  2400  0191                     	;# 
  2401  0192                     	;# 
  2402  0193                     	;# 
  2403  0193                     	;# 
  2404  0194                     	;# 
  2405  0195                     	;# 
  2406  0196                     	;# 
  2407  0197                     	;# 
  2408  0199                     	;# 
  2409  0199                     	;# 
  2410  0199                     	;# 
  2411  019A                     	;# 
  2412  019A                     	;# 
  2413  019A                     	;# 
  2414  019B                     	;# 
  2415  019B                     	;# 
  2416  019B                     	;# 
  2417  019B                     	;# 
  2418  019B                     	;# 
  2419  019C                     	;# 
  2420  019C                     	;# 
  2421  019C                     	;# 
  2422  019D                     	;# 
  2423  019D                     	;# 
  2424  019D                     	;# 
  2425  019E                     	;# 
  2426  019E                     	;# 
  2427  019E                     	;# 
  2428  019F                     	;# 
  2429  019F                     	;# 
  2430  019F                     	;# 
  2431  019F                     	;# 
  2432  019F                     	;# 
  2433  020C                     	;# 
  2434  020D                     	;# 
  2435  020E                     	;# 
  2436  0210                     	;# 
  2437  0211                     	;# 
  2438  0211                     	;# 
  2439  0212                     	;# 
  2440  0212                     	;# 
  2441  0213                     	;# 
  2442  0213                     	;# 
  2443  0214                     	;# 
  2444  0214                     	;# 
  2445  0215                     	;# 
  2446  0215                     	;# 
  2447  0215                     	;# 
  2448  0215                     	;# 
  2449  0216                     	;# 
  2450  0216                     	;# 
  2451  0217                     	;# 
  2452  0217                     	;# 
  2453  021B                     	;# 
  2454  021C                     	;# 
  2455  021D                     	;# 
  2456  021E                     	;# 
  2457  021F                     	;# 
  2458  028C                     	;# 
  2459  028D                     	;# 
  2460  028E                     	;# 
  2461  0291                     	;# 
  2462  0291                     	;# 
  2463  0292                     	;# 
  2464  0293                     	;# 
  2465  0294                     	;# 
  2466  0295                     	;# 
  2467  0295                     	;# 
  2468  0296                     	;# 
  2469  0297                     	;# 
  2470  0298                     	;# 
  2471  0299                     	;# 
  2472  0299                     	;# 
  2473  029A                     	;# 
  2474  029B                     	;# 
  2475  029C                     	;# 
  2476  029E                     	;# 
  2477  029F                     	;# 
  2478  030C                     	;# 
  2479  030D                     	;# 
  2480  030E                     	;# 
  2481  0315                     	;# 
  2482  0316                     	;# 
  2483  0317                     	;# 
  2484  0318                     	;# 
  2485  0319                     	;# 
  2486  031B                     	;# 
  2487  031C                     	;# 
  2488  031D                     	;# 
  2489  031E                     	;# 
  2490  031F                     	;# 
  2491  038C                     	;# 
  2492  038D                     	;# 
  2493  038E                     	;# 
  2494  0390                     	;# 
  2495  0391                     	;# 
  2496  0392                     	;# 
  2497  0393                     	;# 
  2498  0394                     	;# 
  2499  0395                     	;# 
  2500  0396                     	;# 
  2501  0397                     	;# 
  2502  0398                     	;# 
  2503  0399                     	;# 
  2504  039D                     	;# 
  2505  039E                     	;# 
  2506  039F                     	;# 
  2507  040D                     	;# 
  2508  040F                     	;# 
  2509  040F                     	;# 
  2510  0410                     	;# 
  2511  0411                     	;# 
  2512  0412                     	;# 
  2513  0413                     	;# 
  2514  0413                     	;# 
  2515  0414                     	;# 
  2516  0414                     	;# 
  2517  0415                     	;# 
  2518  0416                     	;# 
  2519  0417                     	;# 
  2520  0418                     	;# 
  2521  041A                     	;# 
  2522  041A                     	;# 
  2523  041B                     	;# 
  2524  041B                     	;# 
  2525  041C                     	;# 
  2526  041D                     	;# 
  2527  041E                     	;# 
  2528  041F                     	;# 
  2529  048E                     	;# 
  2530  048E                     	;# 
  2531  048F                     	;# 
  2532  0490                     	;# 
  2533  0491                     	;# 
  2534  0492                     	;# 
  2535  0493                     	;# 
  2536  0493                     	;# 
  2537  0494                     	;# 
  2538  0494                     	;# 
  2539  0495                     	;# 
  2540  0496                     	;# 
  2541  0497                     	;# 
  2542  0498                     	;# 
  2543  049A                     	;# 
  2544  049A                     	;# 
  2545  049B                     	;# 
  2546  049B                     	;# 
  2547  049C                     	;# 
  2548  049D                     	;# 
  2549  049E                     	;# 
  2550  049F                     	;# 
  2551  050F                     	;# 
  2552  0510                     	;# 
  2553  0511                     	;# 
  2554  0512                     	;# 
  2555  0513                     	;# 
  2556  0514                     	;# 
  2557  0515                     	;# 
  2558  0516                     	;# 
  2559  0517                     	;# 
  2560  0518                     	;# 
  2561  0519                     	;# 
  2562  051A                     	;# 
  2563  058D                     	;# 
  2564  058E                     	;# 
  2565  058F                     	;# 
  2566  058F                     	;# 
  2567  058F                     	;# 
  2568  0590                     	;# 
  2569  0590                     	;# 
  2570  0591                     	;# 
  2571  0592                     	;# 
  2572  0592                     	;# 
  2573  0592                     	;# 
  2574  0593                     	;# 
  2575  0593                     	;# 
  2576  0594                     	;# 
  2577  0595                     	;# 
  2578  0595                     	;# 
  2579  0596                     	;# 
  2580  0597                     	;# 
  2581  0597                     	;# 
  2582  0598                     	;# 
  2583  0599                     	;# 
  2584  0599                     	;# 
  2585  0599                     	;# 
  2586  059A                     	;# 
  2587  059A                     	;# 
  2588  059E                     	;# 
  2589  059F                     	;# 
  2590  059F                     	;# 
  2591  0614                     	;# 
  2592  0614                     	;# 
  2593  0615                     	;# 
  2594  0616                     	;# 
  2595  0617                     	;# 
  2596  0617                     	;# 
  2597  0618                     	;# 
  2598  0619                     	;# 
  2599  061A                     	;# 
  2600  061A                     	;# 
  2601  061B                     	;# 
  2602  061C                     	;# 
  2603  068D                     	;# 
  2604  068E                     	;# 
  2605  068F                     	;# 
  2606  0690                     	;# 
  2607  0691                     	;# 
  2608  0692                     	;# 
  2609  0693                     	;# 
  2610  0694                     	;# 
  2611  0695                     	;# 
  2612  0696                     	;# 
  2613  0697                     	;# 
  2614  0698                     	;# 
  2615  0699                     	;# 
  2616  069A                     	;# 
  2617  069B                     	;# 
  2618  069C                     	;# 
  2619  069D                     	;# 
  2620  069E                     	;# 
  2621  069F                     	;# 
  2622  070D                     	;# 
  2623  070E                     	;# 
  2624  070F                     	;# 
  2625  0710                     	;# 
  2626  0711                     	;# 
  2627  0712                     	;# 
  2628  0713                     	;# 
  2629  0714                     	;# 
  2630  0715                     	;# 
  2631  0716                     	;# 
  2632  0717                     	;# 
  2633  0718                     	;# 
  2634  0719                     	;# 
  2635  071A                     	;# 
  2636  071B                     	;# 
  2637  071C                     	;# 
  2638  071D                     	;# 
  2639  071E                     	;# 
  2640  071F                     	;# 
  2641  078E                     	;# 
  2642  078F                     	;# 
  2643  0790                     	;# 
  2644  0791                     	;# 
  2645  0792                     	;# 
  2646  0793                     	;# 
  2647  0794                     	;# 
  2648  0795                     	;# 
  2649  0796                     	;# 
  2650  0797                     	;# 
  2651  0798                     	;# 
  2652  0799                     	;# 
  2653  079A                     	;# 
  2654  079B                     	;# 
  2655  079C                     	;# 
  2656  079D                     	;# 
  2657  079E                     	;# 
  2658  079F                     	;# 
  2659  080D                     	;# 
  2660  080E                     	;# 
  2661  080F                     	;# 
  2662  0810                     	;# 
  2663  0811                     	;# 
  2664  0812                     	;# 
  2665  0813                     	;# 
  2666  0814                     	;# 
  2667  0815                     	;# 
  2668  0816                     	;# 
  2669  0817                     	;# 
  2670  0818                     	;# 
  2671  0819                     	;# 
  2672  081A                     	;# 
  2673  081B                     	;# 
  2674  081C                     	;# 
  2675  081D                     	;# 
  2676  081E                     	;# 
  2677  081F                     	;# 
  2678  090C                     	;# 
  2679  090D                     	;# 
  2680  090E                     	;# 
  2681  090F                     	;# 
  2682  0910                     	;# 
  2683  0911                     	;# 
  2684  0912                     	;# 
  2685  0913                     	;# 
  2686  0914                     	;# 
  2687  0915                     	;# 
  2688  0916                     	;# 
  2689  0917                     	;# 
  2690  0D8E                     	;# 
  2691  0D8F                     	;# 
  2692  0D90                     	;# 
  2693  0D91                     	;# 
  2694  0D91                     	;# 
  2695  0D92                     	;# 
  2696  0D93                     	;# 
  2697  0D93                     	;# 
  2698  0D94                     	;# 
  2699  0D95                     	;# 
  2700  0D95                     	;# 
  2701  0D96                     	;# 
  2702  0D97                     	;# 
  2703  0D97                     	;# 
  2704  0D98                     	;# 
  2705  0D99                     	;# 
  2706  0D99                     	;# 
  2707  0D9A                     	;# 
  2708  0D9B                     	;# 
  2709  0D9C                     	;# 
  2710  0D9C                     	;# 
  2711  0D9D                     	;# 
  2712  0D9D                     	;# 
  2713  0D9E                     	;# 
  2714  0D9F                     	;# 
  2715  0DA0                     	;# 
  2716  0DA1                     	;# 
  2717  0DA1                     	;# 
  2718  0DA2                     	;# 
  2719  0DA3                     	;# 
  2720  0DA3                     	;# 
  2721  0DA4                     	;# 
  2722  0DA5                     	;# 
  2723  0DA5                     	;# 
  2724  0DA6                     	;# 
  2725  0DA7                     	;# 
  2726  0DA7                     	;# 
  2727  0DA8                     	;# 
  2728  0DA9                     	;# 
  2729  0DA9                     	;# 
  2730  0DAA                     	;# 
  2731  0DAB                     	;# 
  2732  0DAC                     	;# 
  2733  0DAC                     	;# 
  2734  0DAD                     	;# 
  2735  0DAD                     	;# 
  2736  0DAE                     	;# 
  2737  0DAF                     	;# 
  2738  0DB0                     	;# 
  2739  0DB1                     	;# 
  2740  0DB1                     	;# 
  2741  0DB2                     	;# 
  2742  0DB3                     	;# 
  2743  0DB3                     	;# 
  2744  0DB4                     	;# 
  2745  0DB5                     	;# 
  2746  0DB5                     	;# 
  2747  0DB6                     	;# 
  2748  0DB7                     	;# 
  2749  0DB7                     	;# 
  2750  0DB8                     	;# 
  2751  0DB9                     	;# 
  2752  0DB9                     	;# 
  2753  0DBA                     	;# 
  2754  0DBB                     	;# 
  2755  0DBC                     	;# 
  2756  0DBC                     	;# 
  2757  0DBD                     	;# 
  2758  0DBD                     	;# 
  2759  0DBE                     	;# 
  2760  0DBF                     	;# 
  2761  0DC0                     	;# 
  2762  0E0C                     	;# 
  2763  0E0D                     	;# 
  2764  0E0E                     	;# 
  2765  0E0F                     	;# 
  2766  0E10                     	;# 
  2767  0E11                     	;# 
  2768  0E12                     	;# 
  2769  0E13                     	;# 
  2770  0E14                     	;# 
  2771  0E15                     	;# 
  2772  0E15                     	;# 
  2773  0E15                     	;# 
  2774  0E16                     	;# 
  2775  0E16                     	;# 
  2776  0E16                     	;# 
  2777  0E17                     	;# 
  2778  0E17                     	;# 
  2779  0E17                     	;# 
  2780  0E18                     	;# 
  2781  0E18                     	;# 
  2782  0E18                     	;# 
  2783  0E19                     	;# 
  2784  0E1A                     	;# 
  2785  0E1B                     	;# 
  2786  0E1D                     	;# 
  2787  0E1E                     	;# 
  2788  0E1F                     	;# 
  2789  0E21                     	;# 
  2790  0E22                     	;# 
  2791  0E23                     	;# 
  2792  0E24                     	;# 
  2793  0E25                     	;# 
  2794  0E26                     	;# 
  2795  0E27                     	;# 
  2796  0E28                     	;# 
  2797  0E29                     	;# 
  2798  0E2D                     	;# 
  2799  0E2E                     	;# 
  2800  0E2F                     	;# 
  2801  0E30                     	;# 
  2802  0E31                     	;# 
  2803  0E32                     	;# 
  2804  0E35                     	;# 
  2805  0E36                     	;# 
  2806  0E37                     	;# 
  2807  0E38                     	;# 
  2808  0E39                     	;# 
  2809  0E3A                     	;# 
  2810  0E3B                     	;# 
  2811  0E3C                     	;# 
  2812  0E3D                     	;# 
  2813  0E3E                     	;# 
  2814  0E90                     	;# 
  2815  0E91                     	;# 
  2816  0E92                     	;# 
  2817  0E93                     	;# 
  2818  0E94                     	;# 
  2819  0E95                     	;# 
  2820  0E96                     	;# 
  2821  0E97                     	;# 
  2822  0E98                     	;# 
  2823  0E99                     	;# 
  2824  0E9A                     	;# 
  2825  0E9B                     	;# 
  2826  0E9C                     	;# 
  2827  0E9D                     	;# 
  2828  0E9E                     	;# 
  2829  0E9F                     	;# 
  2830  0EA0                     	;# 
  2831  0EA1                     	;# 
  2832  0EA2                     	;# 
  2833  0EA3                     	;# 
  2834  0EA4                     	;# 
  2835  0EA5                     	;# 
  2836  0EA6                     	;# 
  2837  0EA7                     	;# 
  2838  0F0F                     	;# 
  2839  0F10                     	;# 
  2840  0F11                     	;# 
  2841  0F12                     	;# 
  2842  0F13                     	;# 
  2843  0F14                     	;# 
  2844  0F15                     	;# 
  2845  0F16                     	;# 
  2846  0F17                     	;# 
  2847  0F18                     	;# 
  2848  0F19                     	;# 
  2849  0F1A                     	;# 
  2850  0F1B                     	;# 
  2851  0F1C                     	;# 
  2852  0F1D                     	;# 
  2853  0F1E                     	;# 
  2854  0F1F                     	;# 
  2855  0F20                     	;# 
  2856  0F21                     	;# 
  2857  0F22                     	;# 
  2858  0F23                     	;# 
  2859  0F24                     	;# 
  2860  0F25                     	;# 
  2861  0F26                     	;# 
  2862  0F27                     	;# 
  2863  0F28                     	;# 
  2864  0F29                     	;# 
  2865  0F2A                     	;# 
  2866  0F2B                     	;# 
  2867  0F2C                     	;# 
  2868  0F2D                     	;# 
  2869  0F2E                     	;# 
  2870  0F2F                     	;# 
  2871  0F30                     	;# 
  2872  0F31                     	;# 
  2873  0F32                     	;# 
  2874  0F33                     	;# 
  2875  0F34                     	;# 
  2876  0F35                     	;# 
  2877  0F36                     	;# 
  2878  0F37                     	;# 
  2879  0FE4                     	;# 
  2880  0FE5                     	;# 
  2881  0FE6                     	;# 
  2882  0FE7                     	;# 
  2883  0FE8                     	;# 
  2884  0FE9                     	;# 
  2885  0FEA                     	;# 
  2886  0FEB                     	;# 
  2887  0FED                     	;# 
  2888  0FEE                     	;# 
  2889  0FEF                     	;# 
  2890                           
  2891                           	psect	stringtext1
  2892  1800                     __pstringtext1:	
  2893  1800                     __powers_:	
  2894  1800  3400               	retlw	0
  2895  1801  3400               	retlw	0
  2896  1802  3480               	retlw	128
  2897  1803  343F               	retlw	63
  2898  1804  3400               	retlw	0
  2899  1805  3400               	retlw	0
  2900  1806  3420               	retlw	32
  2901  1807  3441               	retlw	65
  2902  1808  3400               	retlw	0
  2903  1809  3400               	retlw	0
  2904  180A  34C8               	retlw	200
  2905  180B  3442               	retlw	66
  2906  180C  3400               	retlw	0
  2907  180D  3400               	retlw	0
  2908  180E  347A               	retlw	122
  2909  180F  3444               	retlw	68
  2910  1810  3400               	retlw	0
  2911  1811  3440               	retlw	64
  2912  1812  341C               	retlw	28
  2913  1813  3446               	retlw	70
  2914  1814  3400               	retlw	0
  2915  1815  3450               	retlw	80
  2916  1816  34C3               	retlw	195
  2917  1817  3447               	retlw	71
  2918  1818  3400               	retlw	0
  2919  1819  3424               	retlw	36
  2920  181A  3474               	retlw	116
  2921  181B  3449               	retlw	73
  2922  181C  3480               	retlw	128
  2923  181D  3496               	retlw	150
  2924  181E  3418               	retlw	24
  2925  181F  344B               	retlw	75
  2926  1820  3420               	retlw	32
  2927  1821  34BC               	retlw	188
  2928  1822  34BE               	retlw	190
  2929  1823  344C               	retlw	76
  2930  1824  3428               	retlw	40
  2931  1825  346B               	retlw	107
  2932  1826  346E               	retlw	110
  2933  1827  344E               	retlw	78
  2934  1828  34F9               	retlw	249
  2935  1829  3402               	retlw	2
  2936  182A  3415               	retlw	21
  2937  182B  3450               	retlw	80
  2938  182C  34EC               	retlw	236
  2939  182D  3478               	retlw	120
  2940  182E  34AD               	retlw	173
  2941  182F  3460               	retlw	96
  2942  1830  34CA               	retlw	202
  2943  1831  34F2               	retlw	242
  2944  1832  3449               	retlw	73
  2945  1833  3471               	retlw	113
  2946  1834                     __end_of__powers_:	
  2947                           
  2948                           	psect	stringtext2
  2949  1834                     __pstringtext2:	
  2950  1834                     __npowers_:	
  2951  1834  3400               	retlw	0
  2952  1835  3400               	retlw	0
  2953  1836  3480               	retlw	128
  2954  1837  343F               	retlw	63
  2955  1838  34CD               	retlw	205
  2956  1839  34CC               	retlw	204
  2957  183A  34CC               	retlw	204
  2958  183B  343D               	retlw	61
  2959  183C  340A               	retlw	10
  2960  183D  34D7               	retlw	215
  2961  183E  3423               	retlw	35
  2962  183F  343C               	retlw	60
  2963  1840  346F               	retlw	111
  2964  1841  3412               	retlw	18
  2965  1842  3483               	retlw	131
  2966  1843  343A               	retlw	58
  2967  1844  3417               	retlw	23
  2968  1845  34B7               	retlw	183
  2969  1846  34D1               	retlw	209
  2970  1847  3438               	retlw	56
  2971  1848  34AC               	retlw	172
  2972  1849  34C5               	retlw	197
  2973  184A  3427               	retlw	39
  2974  184B  3437               	retlw	55
  2975  184C  34BD               	retlw	189
  2976  184D  3437               	retlw	55
  2977  184E  3486               	retlw	134
  2978  184F  3435               	retlw	53
  2979  1850  3495               	retlw	149
  2980  1851  34BF               	retlw	191
  2981  1852  34D6               	retlw	214
  2982  1853  3433               	retlw	51
  2983  1854  3477               	retlw	119
  2984  1855  34CC               	retlw	204
  2985  1856  342B               	retlw	43
  2986  1857  3432               	retlw	50
  2987  1858  345F               	retlw	95
  2988  1859  3470               	retlw	112
  2989  185A  3489               	retlw	137
  2990  185B  3430               	retlw	48
  2991  185C  34FF               	retlw	255
  2992  185D  34E6               	retlw	230
  2993  185E  34DB               	retlw	219
  2994  185F  342E               	retlw	46
  2995  1860  3408               	retlw	8
  2996  1861  34E5               	retlw	229
  2997  1862  343C               	retlw	60
  2998  1863  341E               	retlw	30
  2999  1864  3460               	retlw	96
  3000  1865  3442               	retlw	66
  3001  1866  34A2               	retlw	162
  3002  1867  340D               	retlw	13
  3003  1868                     __end_of__npowers_:	
  3004                           
  3005                           	psect	stringtext3
  3006  1868                     __pstringtext3:	
  3007  1868                     _dpowers:	
  3008  1868  3401               	retlw	1
  3009  1869  3400               	retlw	0
  3010  186A  3400               	retlw	0
  3011  186B  3400               	retlw	0
  3012  186C  340A               	retlw	10
  3013  186D  3400               	retlw	0
  3014  186E  3400               	retlw	0
  3015  186F  3400               	retlw	0
  3016  1870  3464               	retlw	100
  3017  1871  3400               	retlw	0
  3018  1872  3400               	retlw	0
  3019  1873  3400               	retlw	0
  3020  1874  34E8               	retlw	232
  3021  1875  3403               	retlw	3
  3022  1876  3400               	retlw	0
  3023  1877  3400               	retlw	0
  3024  1878  3410               	retlw	16
  3025  1879  3427               	retlw	39
  3026  187A  3400               	retlw	0
  3027  187B  3400               	retlw	0
  3028  187C  34A0               	retlw	160
  3029  187D  3486               	retlw	134
  3030  187E  3401               	retlw	1
  3031  187F  3400               	retlw	0
  3032  1880  3440               	retlw	64
  3033  1881  3442               	retlw	66
  3034  1882  340F               	retlw	15
  3035  1883  3400               	retlw	0
  3036  1884  3480               	retlw	128
  3037  1885  3496               	retlw	150
  3038  1886  3498               	retlw	152
  3039  1887  3400               	retlw	0
  3040  1888  3400               	retlw	0
  3041  1889  34E1               	retlw	225
  3042  188A  34F5               	retlw	245
  3043  188B  3405               	retlw	5
  3044  188C  3400               	retlw	0
  3045  188D  34CA               	retlw	202
  3046  188E  349A               	retlw	154
  3047  188F  343B               	retlw	59
  3048  1890                     __end_of_dpowers:	
  3049                           
  3050                           	psect	stringtext4
  3051  1890                     __pstringtext4:	
  3052  1890                     _mensaje:	
  3053  1890  3476               	retlw	118
  3054  1891  3461               	retlw	97
  3055  1892  346C               	retlw	108
  3056  1893  346F               	retlw	111
  3057  1894  3472               	retlw	114
  3058  1895  3420               	retlw	32
  3059  1896  3474               	retlw	116
  3060  1897  3465               	retlw	101
  3061  1898  346D               	retlw	109
  3062  1899  3470               	retlw	112
  3063  189A  3420               	retlw	32
  3064  189B  3465               	retlw	101
  3065  189C  346E               	retlw	110
  3066  189D  3420               	retlw	32
  3067  189E  3443               	retlw	67
  3068  189F  343A               	retlw	58
  3069  18A0  3400               	retlw	0
  3070  18A1                     __end_of_mensaje:	
  3071  0011                     _PIR1bits	set	17
  3072  000C                     _PORTAbits	set	12
  3073  000B                     _INTCONbits	set	11
  3074  0097                     _OPTION_REGbits	set	151
  3075  0091                     _PIE1bits	set	145
  3076  008E                     _TRISCbits	set	142
  3077  008C                     _TRISAbits	set	140
  3078  009B                     _OSCCONbits	set	155
  3079  010E                     _LATC	set	270
  3080  010D                     _LATB	set	269
  3081  010C                     _LATA	set	268
  3082  010C                     _LATAbits	set	268
  3083  019B                     _SP1BRG	set	411
  3084  019D                     _RC1STAbits	set	413
  3085  019F                     _BAUD1CONbits	set	415
  3086  018E                     _ANSELCbits	set	398
  3087  018C                     _ANSELAbits	set	396
  3088  019E                     _TX1STAbits	set	414
  3089  019A                     _TX1REG	set	410
  3090  020E                     _WPUCbits	set	526
  3091  020C                     _WPUAbits	set	524
  3092  048E                     _ADRES	set	1166
  3093  0491                     _ADCON1bits	set	1169
  3094  0490                     _ADCON0bits	set	1168
  3095  0E3D                     _RXPPS	set	3645
  3096  0EA6                     _RC6PPS	set	3750
  3097  18A1                     STR_1:	
  3098  18A1  3467               	retlw	103	;'g'
  3099  18A2  3472               	retlw	114	;'r'
  3100  18A3  3461               	retlw	97	;'a'
  3101  18A4  3464               	retlw	100	;'d'
  3102  18A5  346F               	retlw	111	;'o'
  3103  18A6  3473               	retlw	115	;'s'
  3104  18A7  343A               	retlw	58	;':'
  3105  18A8  3420               	retlw	32	;' '
  3106  18A9  3425               	retlw	37	;'%'
  3107  18AA  342E               	retlw	46	;'.'
  3108  18AB  3431               	retlw	49	;'1'
  3109  18AC  3466               	retlw	102	;'f'
  3110  18AD  3420               	retlw	32	;' '
  3111  18AE  3443               	retlw	67	;'C'
  3112  18AF  3400               	retlw	0
  3113                           
  3114                           	psect	stringtext5
  3115  0000                     __pstringtext5:	
  3116                           
  3117                           ; #config settings
  3118  0000                     
  3119                           	psect	cinit
  3120  002F                     start_initialization:	
  3121  002F                     __initialization:	
  3122                           
  3123                           ; Clear objects allocated to BANK1
  3124  002F  30CD               	movlw	low __pbssBANK1
  3125  0030  0084               	movwf	4
  3126  0031  3000               	movlw	high __pbssBANK1
  3127  0032  0085               	movwf	5
  3128  0033  300B               	movlw	11
  3129  0034  3187  27F9  3180   	fcall	clear_ram0
  3130                           
  3131                           ; Clear objects allocated to BANK2
  3132  0037  3020               	movlw	low __pbssBANK2
  3133  0038  0084               	movwf	4
  3134  0039  3001               	movlw	high __pbssBANK2
  3135  003A  0085               	movwf	5
  3136  003B  3019               	movlw	25
  3137  003C  3187  27F9  3180   	fcall	clear_ram0
  3138  003F                     end_of_initialization:	
  3139                           ;End of C runtime variable initialization code
  3140                           
  3141  003F                     __end_of__initialization:	
  3142  003F  107E               	bcf	int$flags,0	;clear compiler interrupt flag (level 1)
  3143  0040  0020               	movlb	0
  3144  0041  3197  2F4A         	ljmp	_main	;jump to C main() function
  3145                           
  3146                           	psect	bssBANK1
  3147  00CD                     __pbssBANK1:	
  3148  00CD                     _temp:	
  3149  00CD                     	ds	4
  3150  00D1                     _v_sensor:	
  3151  00D1                     	ds	4
  3152  00D5                     _band_aux:	
  3153  00D5                     	ds	1
  3154  00D6                     _AD_almacenado:	
  3155  00D6                     	ds	2
  3156                           
  3157                           	psect	bssBANK2
  3158  0120                     __pbssBANK2:	
  3159  0120                     _salida:	
  3160  0120                     	ds	25
  3161                           
  3162                           	psect	clrtext
  3163  07F9                     clear_ram0:	
  3164                           ;	Called with FSR0 containing the base address, and
  3165                           ;	WREG with the size to clear
  3166                           
  3167  07F9  0064               	clrwdt	;clear the watchdog before getting into this loop
  3168  07FA                     clrloop0:	
  3169  07FA  0180               	clrf	0	;clear RAM location pointed to by FSR
  3170  07FB  3101               	addfsr 0,1
  3171  07FC  0B89               	decfsz	9,f	;Have we reached the end of clearing yet?
  3172  07FD  2FFA               	goto	clrloop0	;have we reached the end yet?
  3173  07FE  3400               	retlw	0	;all done for this memory range, return
  3174                           
  3175                           	psect	cstackBANK1
  3176  00A0                     __pcstackBANK1:	
  3177  00A0                     ?___flsub:	
  3178  00A0                     ___flsub@a:	
  3179                           ; 4 bytes @ 0x0
  3180                           
  3181                           
  3182                           ; 4 bytes @ 0x0
  3183  00A0                     	ds	4
  3184  00A4                     ___flsub@b:	
  3185                           
  3186                           ; 4 bytes @ 0x4
  3187  00A4                     	ds	4
  3188  00A8                     ?_sprintf:	
  3189  00A8                     sprintf@f:	
  3190                           ; 2 bytes @ 0x8
  3191                           
  3192                           
  3193                           ; 2 bytes @ 0x8
  3194  00A8                     	ds	6
  3195  00AE                     ??_sprintf:	
  3196                           
  3197                           ; 1 bytes @ 0xE
  3198  00AE                     	ds	6
  3199  00B4                     _sprintf$1151:	
  3200                           
  3201                           ; 4 bytes @ 0x14
  3202  00B4                     	ds	4
  3203  00B8                     sprintf@ap:	
  3204                           
  3205                           ; 1 bytes @ 0x18
  3206  00B8                     	ds	1
  3207  00B9                     sprintf@flag:	
  3208                           
  3209                           ; 2 bytes @ 0x19
  3210  00B9                     	ds	2
  3211  00BB                     sprintf@val:	
  3212                           
  3213                           ; 4 bytes @ 0x1B
  3214  00BB                     	ds	4
  3215  00BF                     sprintf@eexp:	
  3216                           
  3217                           ; 2 bytes @ 0x1F
  3218  00BF                     	ds	2
  3219  00C1                     sprintf@tmpval:	
  3220                           
  3221                           ; 4 bytes @ 0x21
  3222  00C1                     	ds	4
  3223  00C5                     sprintf@sp:	
  3224                           
  3225                           ; 1 bytes @ 0x25
  3226  00C5                     	ds	1
  3227  00C6                     sprintf@prec:	
  3228                           
  3229                           ; 2 bytes @ 0x26
  3230  00C6                     	ds	2
  3231  00C8                     sprintf@fval:	
  3232                           
  3233                           ; 4 bytes @ 0x28
  3234  00C8                     	ds	4
  3235  00CC                     sprintf@c:	
  3236                           
  3237                           ; 1 bytes @ 0x2C
  3238  00CC                     	ds	1
  3239                           
  3240                           	psect	cstackCOMMON
  3241  0070                     __pcstackCOMMON:	
  3242  0070                     ?_isdigit:	
  3243  0070                     ?___fleq:	
  3244                           ; 1 bit 
  3245                           
  3246  0070                     ?___flge:	
  3247                           ; 1 bit 
  3248                           
  3249  0070                     ?_ConfigureOscillator:	
  3250                           ; 1 bit 
  3251                           
  3252  0070                     ??_ConfigureOscillator:	
  3253                           ; 1 bytes @ 0x0
  3254                           
  3255  0070                     ?_InitApp:	
  3256                           ; 1 bytes @ 0x0
  3257                           
  3258  0070                     ??_InitApp:	
  3259                           ; 1 bytes @ 0x0
  3260                           
  3261  0070                     ?_enviarTrama:	
  3262                           ; 1 bytes @ 0x0
  3263                           
  3264  0070                     ??_isdigit:	
  3265                           ; 1 bytes @ 0x0
  3266                           
  3267  0070                     ?_isr:	
  3268                           ; 1 bytes @ 0x0
  3269                           
  3270  0070                     ??_isr:	
  3271                           ; 1 bytes @ 0x0
  3272                           
  3273  0070                     ?_main:	
  3274                           ; 1 bytes @ 0x0
  3275                           
  3276  0070                     ?__Umul8_16:	
  3277                           ; 1 bytes @ 0x0
  3278                           
  3279  0070                     ?___wmul:	
  3280                           ; 2 bytes @ 0x0
  3281                           
  3282  0070                     ?___awmod:	
  3283                           ; 2 bytes @ 0x0
  3284                           
  3285  0070                     ?___lwmod:	
  3286                           ; 2 bytes @ 0x0
  3287                           
  3288  0070                     ?__tdiv_to_l_:	
  3289                           ; 2 bytes @ 0x0
  3290                           
  3291  0070                     ?__div_to_l_:	
  3292                           ; 4 bytes @ 0x0
  3293                           
  3294  0070                     ?___lldiv:	
  3295                           ; 4 bytes @ 0x0
  3296                           
  3297  0070                     ?___flneg:	
  3298                           ; 4 bytes @ 0x0
  3299                           
  3300  0070                     ?___llmod:	
  3301                           ; 4 bytes @ 0x0
  3302                           
  3303  0070                     ?___xxtofl:	
  3304                           ; 4 bytes @ 0x0
  3305                           
  3306  0070                     _isdigit$1020:	
  3307                           ; 4 bytes @ 0x0
  3308                           
  3309  0070                     __Umul8_16@multiplicand:	
  3310                           ; 1 bytes @ 0x0
  3311                           
  3312  0070                     enviarTrama@datos:	
  3313                           ; 1 bytes @ 0x0
  3314                           
  3315  0070                     ___wmul@multiplier:	
  3316                           ; 2 bytes @ 0x0
  3317                           
  3318  0070                     ___awmod@divisor:	
  3319                           ; 2 bytes @ 0x0
  3320                           
  3321  0070                     ___lwmod@divisor:	
  3322                           ; 2 bytes @ 0x0
  3323                           
  3324  0070                     ___lldiv@divisor:	
  3325                           ; 2 bytes @ 0x0
  3326                           
  3327  0070                     __div_to_l_@f1:	
  3328                           ; 4 bytes @ 0x0
  3329                           
  3330  0070                     ___fleq@ff1:	
  3331                           ; 4 bytes @ 0x0
  3332                           
  3333  0070                     ___flge@ff1:	
  3334                           ; 4 bytes @ 0x0
  3335                           
  3336  0070                     ___flneg@f1:	
  3337                           ; 4 bytes @ 0x0
  3338                           
  3339  0070                     __tdiv_to_l_@f1:	
  3340                           ; 4 bytes @ 0x0
  3341                           
  3342  0070                     ___llmod@divisor:	
  3343                           ; 4 bytes @ 0x0
  3344                           
  3345  0070                     ___xxtofl@val:	
  3346                           ; 4 bytes @ 0x0
  3347                           
  3348                           
  3349                           ; 4 bytes @ 0x0
  3350  0070                     	ds	1
  3351  0071                     isdigit@c:	
  3352                           
  3353                           ; 1 bytes @ 0x1
  3354  0071                     	ds	1
  3355  0072                     ??_enviarTrama:	
  3356  0072                     ??__Umul8_16:	
  3357                           ; 1 bytes @ 0x2
  3358                           
  3359  0072                     ___wmul@multiplicand:	
  3360                           ; 1 bytes @ 0x2
  3361                           
  3362  0072                     ___awmod@dividend:	
  3363                           ; 2 bytes @ 0x2
  3364                           
  3365  0072                     ___lwmod@dividend:	
  3366                           ; 2 bytes @ 0x2
  3367                           
  3368                           
  3369                           ; 2 bytes @ 0x2
  3370  0072                     	ds	2
  3371  0074                     ??___wmul:	
  3372  0074                     ??___awmod:	
  3373                           ; 1 bytes @ 0x4
  3374                           
  3375  0074                     ??___flneg:	
  3376                           ; 1 bytes @ 0x4
  3377                           
  3378  0074                     ??___lwmod:	
  3379                           ; 1 bytes @ 0x4
  3380                           
  3381  0074                     ??___xxtofl:	
  3382                           ; 1 bytes @ 0x4
  3383                           
  3384  0074                     ___wmul@product:	
  3385                           ; 1 bytes @ 0x4
  3386                           
  3387  0074                     __Umul8_16@product:	
  3388                           ; 2 bytes @ 0x4
  3389                           
  3390  0074                     ___lldiv@dividend:	
  3391                           ; 2 bytes @ 0x4
  3392                           
  3393  0074                     __div_to_l_@f2:	
  3394                           ; 4 bytes @ 0x4
  3395                           
  3396  0074                     ___fleq@ff2:	
  3397                           ; 4 bytes @ 0x4
  3398                           
  3399  0074                     ___flge@ff2:	
  3400                           ; 4 bytes @ 0x4
  3401                           
  3402  0074                     __tdiv_to_l_@f2:	
  3403                           ; 4 bytes @ 0x4
  3404                           
  3405  0074                     ___llmod@dividend:	
  3406                           ; 4 bytes @ 0x4
  3407                           
  3408                           
  3409                           ; 4 bytes @ 0x4
  3410  0074                     	ds	1
  3411  0075                     ___awmod@counter:	
  3412  0075                     ___lwmod@counter:	
  3413                           ; 1 bytes @ 0x5
  3414                           
  3415                           
  3416                           ; 1 bytes @ 0x5
  3417  0075                     	ds	1
  3418  0076                     ?___lwdiv:	
  3419  0076                     ___awmod@sign:	
  3420                           ; 2 bytes @ 0x6
  3421                           
  3422  0076                     ___lwdiv@divisor:	
  3423                           ; 1 bytes @ 0x6
  3424                           
  3425  0076                     __Umul8_16@word_mpld:	
  3426                           ; 2 bytes @ 0x6
  3427                           
  3428                           
  3429                           ; 2 bytes @ 0x6
  3430  0076                     	ds	1
  3431  0077                     ?___awdiv:	
  3432  0077                     ___awdiv@divisor:	
  3433                           ; 2 bytes @ 0x7
  3434                           
  3435                           
  3436                           ; 2 bytes @ 0x7
  3437  0077                     	ds	1
  3438  0078                     ??__tdiv_to_l_:	
  3439  0078                     ??__div_to_l_:	
  3440                           ; 1 bytes @ 0x8
  3441                           
  3442  0078                     ??___lldiv:	
  3443                           ; 1 bytes @ 0x8
  3444                           
  3445  0078                     ??___fleq:	
  3446                           ; 1 bytes @ 0x8
  3447                           
  3448  0078                     ??___flge:	
  3449                           ; 1 bytes @ 0x8
  3450                           
  3451  0078                     ??___llmod:	
  3452                           ; 1 bytes @ 0x8
  3453                           
  3454  0078                     ___xxtofl@sign:	
  3455                           ; 1 bytes @ 0x8
  3456                           
  3457  0078                     __Umul8_16@multiplier:	
  3458                           ; 1 bytes @ 0x8
  3459                           
  3460  0078                     ___lwdiv@dividend:	
  3461                           ; 1 bytes @ 0x8
  3462                           
  3463                           
  3464                           ; 2 bytes @ 0x8
  3465  0078                     	ds	1
  3466  0079                     ___llmod@counter:	
  3467  0079                     ___xxtofl@exp:	
  3468                           ; 1 bytes @ 0x9
  3469                           
  3470  0079                     ___awdiv@dividend:	
  3471                           ; 1 bytes @ 0x9
  3472                           
  3473  0079                     ___lldiv@quotient:	
  3474                           ; 2 bytes @ 0x9
  3475                           
  3476                           
  3477                           ; 4 bytes @ 0x9
  3478  0079                     	ds	1
  3479  007A                     ??___lwdiv:	
  3480  007A                     ___xxtofl@arg:	
  3481                           ; 1 bytes @ 0xA
  3482                           
  3483                           
  3484                           ; 4 bytes @ 0xA
  3485  007A                     	ds	1
  3486  007B                     ??___awdiv:	
  3487  007B                     ___lwdiv@quotient:	
  3488                           ; 1 bytes @ 0xB
  3489                           
  3490                           
  3491                           ; 2 bytes @ 0xB
  3492  007B                     	ds	2
  3493  007D                     ___lldiv@counter:	
  3494  007D                     ___lwdiv@counter:	
  3495                           ; 1 bytes @ 0xD
  3496                           
  3497                           
  3498                           ; 1 bytes @ 0xD
  3499  007D                     	ds	1
  3500  007E                     ??_main:	
  3501  007E                     ??___flsub:	
  3502                           ; 1 bytes @ 0xE
  3503                           
  3504                           
  3505                           	psect	cstackBANK0
  3506  0020                     __pcstackBANK0:	
  3507                           ; 1 bytes @ 0xE
  3508                           
  3509  0020                     ___awdiv@counter:	
  3510  0020                     __div_to_l_@quot:	
  3511                           ; 1 bytes @ 0x0
  3512                           
  3513  0020                     __tdiv_to_l_@quot:	
  3514                           ; 4 bytes @ 0x0
  3515                           
  3516                           
  3517                           ; 4 bytes @ 0x0
  3518  0020                     	ds	1
  3519  0021                     ___awdiv@sign:	
  3520                           
  3521                           ; 1 bytes @ 0x1
  3522  0021                     	ds	1
  3523  0022                     ___awdiv@quotient:	
  3524                           
  3525                           ; 2 bytes @ 0x2
  3526  0022                     	ds	2
  3527  0024                     ?___flmul:	
  3528  0024                     __div_to_l_@cntr:	
  3529                           ; 4 bytes @ 0x4
  3530                           
  3531  0024                     __tdiv_to_l_@cntr:	
  3532                           ; 1 bytes @ 0x4
  3533                           
  3534  0024                     ___flmul@b:	
  3535                           ; 1 bytes @ 0x4
  3536                           
  3537                           
  3538                           ; 4 bytes @ 0x4
  3539  0024                     	ds	1
  3540  0025                     __div_to_l_@exp1:	
  3541  0025                     __tdiv_to_l_@exp1:	
  3542                           ; 1 bytes @ 0x5
  3543                           
  3544                           
  3545                           ; 1 bytes @ 0x5
  3546  0025                     	ds	3
  3547  0028                     ___flmul@a:	
  3548                           
  3549                           ; 4 bytes @ 0x8
  3550  0028                     	ds	4
  3551  002C                     ??___flmul:	
  3552                           
  3553                           ; 1 bytes @ 0xC
  3554  002C                     	ds	5
  3555  0031                     ___flmul@sign:	
  3556                           
  3557                           ; 1 bytes @ 0x11
  3558  0031                     	ds	1
  3559  0032                     ___flmul@grs:	
  3560                           
  3561                           ; 4 bytes @ 0x12
  3562  0032                     	ds	4
  3563  0036                     ___flmul@aexp:	
  3564                           
  3565                           ; 1 bytes @ 0x16
  3566  0036                     	ds	1
  3567  0037                     ___flmul@bexp:	
  3568                           
  3569                           ; 1 bytes @ 0x17
  3570  0037                     	ds	1
  3571  0038                     ___flmul@prod:	
  3572                           
  3573                           ; 4 bytes @ 0x18
  3574  0038                     	ds	4
  3575  003C                     ___flmul@temp:	
  3576                           
  3577                           ; 2 bytes @ 0x1C
  3578  003C                     	ds	2
  3579  003E                     ?_fround:	
  3580  003E                     ?_scale:	
  3581                           ; 4 bytes @ 0x1E
  3582                           
  3583  003E                     ?___fldiv:	
  3584                           ; 4 bytes @ 0x1E
  3585                           
  3586  003E                     ___fldiv@a:	
  3587                           ; 4 bytes @ 0x1E
  3588                           
  3589                           
  3590                           ; 4 bytes @ 0x1E
  3591  003E                     	ds	4
  3592  0042                     ??_fround:	
  3593  0042                     ??_scale:	
  3594                           ; 1 bytes @ 0x22
  3595                           
  3596  0042                     ___fldiv@b:	
  3597                           ; 1 bytes @ 0x22
  3598                           
  3599                           
  3600                           ; 4 bytes @ 0x22
  3601  0042                     	ds	4
  3602  0046                     ??___fldiv:	
  3603                           
  3604                           ; 1 bytes @ 0x26
  3605  0046                     	ds	2
  3606  0048                     _fround$1149:	
  3607                           
  3608                           ; 4 bytes @ 0x28
  3609  0048                     	ds	3
  3610  004B                     ___fldiv@rem:	
  3611                           
  3612                           ; 4 bytes @ 0x2B
  3613  004B                     	ds	1
  3614  004C                     _fround$1148:	
  3615                           
  3616                           ; 4 bytes @ 0x2C
  3617  004C                     	ds	2
  3618  004E                     _scale$1150:	
  3619                           
  3620                           ; 4 bytes @ 0x2E
  3621  004E                     	ds	1
  3622  004F                     ___fldiv@sign:	
  3623                           
  3624                           ; 1 bytes @ 0x2F
  3625  004F                     	ds	1
  3626  0050                     fround@prec:	
  3627  0050                     ___fldiv@new_exp:	
  3628                           ; 1 bytes @ 0x30
  3629                           
  3630                           
  3631                           ; 2 bytes @ 0x30
  3632  0050                     	ds	2
  3633  0052                     scale@scl:	
  3634  0052                     ___fldiv@grs:	
  3635                           ; 1 bytes @ 0x32
  3636                           
  3637                           
  3638                           ; 4 bytes @ 0x32
  3639  0052                     	ds	1
  3640  0053                     ?___fltol:	
  3641  0053                     ___fltol@f1:	
  3642                           ; 4 bytes @ 0x33
  3643                           
  3644                           
  3645                           ; 4 bytes @ 0x33
  3646  0053                     	ds	3
  3647  0056                     ___fldiv@bexp:	
  3648                           
  3649                           ; 1 bytes @ 0x36
  3650  0056                     	ds	1
  3651  0057                     ??___fltol:	
  3652  0057                     ___fldiv@aexp:	
  3653                           ; 1 bytes @ 0x37
  3654                           
  3655                           
  3656                           ; 1 bytes @ 0x37
  3657  0057                     	ds	1
  3658  0058                     ?___fladd:	
  3659  0058                     ___fladd@b:	
  3660                           ; 4 bytes @ 0x38
  3661                           
  3662                           
  3663                           ; 4 bytes @ 0x38
  3664  0058                     	ds	4
  3665  005C                     ___fltol@sign1:	
  3666  005C                     ___fladd@a:	
  3667                           ; 1 bytes @ 0x3C
  3668                           
  3669                           
  3670                           ; 4 bytes @ 0x3C
  3671  005C                     	ds	1
  3672  005D                     ___fltol@exp1:	
  3673                           
  3674                           ; 1 bytes @ 0x3D
  3675  005D                     	ds	3
  3676  0060                     ??___fladd:	
  3677                           
  3678                           ; 1 bytes @ 0x40
  3679  0060                     	ds	8
  3680  0068                     ___fladd@signs:	
  3681                           
  3682                           ; 1 bytes @ 0x48
  3683  0068                     	ds	1
  3684  0069                     ___fladd@aexp:	
  3685                           
  3686                           ; 1 bytes @ 0x49
  3687  0069                     	ds	1
  3688  006A                     ___fladd@bexp:	
  3689                           
  3690                           ; 1 bytes @ 0x4A
  3691  006A                     	ds	1
  3692  006B                     ___fladd@grs:	
  3693                           
  3694                           ; 1 bytes @ 0x4B
  3695  006B                     	ds	1
  3696                           
  3697                           	psect	maintext
  3698  174A                     __pmaintext:	
  3699 ;;
  3700 ;;Main: autosize = 0, tempsize = 0, incstack = 0, save=0
  3701 ;;
  3702 ;; *************** function _main *****************
  3703 ;; Defined at:
  3704 ;;		line 37 in file "main.c"
  3705 ;; Parameters:    Size  Location     Type
  3706 ;;		None
  3707 ;; Auto vars:     Size  Location     Type
  3708 ;;		None
  3709 ;; Return value:  Size  Location     Type
  3710 ;;                  1    wreg      void 
  3711 ;; Registers used:
  3712 ;;		wreg, fsr0l, fsr0h, fsr1l, fsr1h, status,2, status,0, pclath, cstack
  3713 ;; Tracked objects:
  3714 ;;		On entry : B1F/0
  3715 ;;		On exit  : 0/0
  3716 ;;		Unchanged: 0/0
  3717 ;; Data sizes:     COMMON   BANK0   BANK1   BANK2   BANK3   BANK4   BANK5   BANK6   BANK7   BANK8   BANK9  BANK10  BANK1
      +1  BANK12
  3718 ;;      Params:         0       0       0       0       0       0       0       0       0       0       0       0       
      +0       0
  3719 ;;      Locals:         0       0       0       0       0       0       0       0       0       0       0       0       
      +0       0
  3720 ;;      Temps:          0       0       0       0       0       0       0       0       0       0       0       0       
      +0       0
  3721 ;;      Totals:         0       0       0       0       0       0       0       0       0       0       0       0       
      +0       0
  3722 ;;Total ram usage:        0 bytes
  3723 ;; Hardware stack levels required when called:    5
  3724 ;; This function calls:
  3725 ;;		_ConfigureOscillator
  3726 ;;		_InitApp
  3727 ;;		___fladd
  3728 ;;		___fldiv
  3729 ;;		___flmul
  3730 ;;		___xxtofl
  3731 ;;		_enviarTrama
  3732 ;;		_sprintf
  3733 ;; This function is called by:
  3734 ;;		Startup code after reset
  3735 ;; This function uses a non-reentrant model
  3736 ;;
  3737                           
  3738                           
  3739                           ;psect for function _main
  3740  174A                     _main:	
  3741  174A                     l3435:	
  3742                           ;incstack = 0
  3743                           ; Regs used in _main: [wreg-fsr1h+status,2+status,0+pclath+cstack]
  3744                           
  3745                           
  3746                           ;main.c: 40: ConfigureOscillator();
  3747  174A  3191  217B  3197   	fcall	_ConfigureOscillator
  3748                           
  3749                           ;main.c: 43: InitApp();
  3750  174D  3192  2254  3197   	fcall	_InitApp
  3751  1750                     l3437:	
  3752                           
  3753                           ;main.c: 47: {;main.c: 49: if (band_aux == 1){
  3754  1750  0021               	movlb	1	; select bank1
  3755  1751  0355               	decf	_band_aux^(0+128),w
  3756  1752  1D03               	btfss	3,2
  3757  1753  2F55               	goto	u5161
  3758  1754  2F56               	goto	u5160
  3759  1755                     u5161:	
  3760  1755  2F50               	goto	l3437
  3761  1756                     u5160:	
  3762  1756                     l3439:	
  3763                           
  3764                           ;main.c: 50: v_sensor = (5000.*AD_almacenado)/1023;
  3765  1756  3044               	movlw	68
  3766  1757  0020               	movlb	0	; select bank0
  3767  1758  00C1               	movwf	___fldiv@a+3
  3768  1759  307F               	movlw	127
  3769  175A  00C0               	movwf	___fldiv@a+2
  3770  175B  30C0               	movlw	192
  3771  175C  00BF               	movwf	___fldiv@a+1
  3772  175D  3000               	movlw	0
  3773  175E  00BE               	movwf	___fldiv@a
  3774  175F  3045               	movlw	69
  3775  1760  00A7               	movwf	___flmul@b+3
  3776  1761  309C               	movlw	156
  3777  1762  00A6               	movwf	___flmul@b+2
  3778  1763  3040               	movlw	64
  3779  1764  00A5               	movwf	___flmul@b+1
  3780  1765  3000               	movlw	0
  3781  1766  00A4               	movwf	___flmul@b
  3782  1767  0021               	movlb	1	; select bank1
  3783  1768  0856               	movf	_AD_almacenado^(0+128),w
  3784  1769  00F0               	movwf	___xxtofl@val
  3785  176A  0857               	movf	(_AD_almacenado+1)^(0+128),w
  3786  176B  00F1               	movwf	___xxtofl@val+1
  3787  176C  0D89               	rlf	9,f
  3788  176D  3B89               	subwfb	9,f
  3789  176E  0989               	comf	9,f
  3790  176F  00F2               	movwf	___xxtofl@val+2
  3791  1770  00F3               	movwf	___xxtofl@val+3
  3792  1771  3001               	movlw	1
  3793  1772  3195  253F  3197   	fcall	___xxtofl
  3794  1775  0873               	movf	?___xxtofl+3,w
  3795  1776  0020               	movlb	0	; select bank0
  3796  1777  00AB               	movwf	___flmul@a+3
  3797  1778  0872               	movf	?___xxtofl+2,w
  3798  1779  00AA               	movwf	___flmul@a+2
  3799  177A  0871               	movf	?___xxtofl+1,w
  3800  177B  00A9               	movwf	___flmul@a+1
  3801  177C  0870               	movf	?___xxtofl,w
  3802  177D  00A8               	movwf	___flmul@a
  3803  177E  318D  25A9  3197   	fcall	___flmul
  3804  1781  0020               	movlb	0	; select bank0
  3805  1782  0827               	movf	?___flmul+3,w
  3806  1783  00C5               	movwf	___fldiv@b+3
  3807  1784  0826               	movf	?___flmul+2,w
  3808  1785  00C4               	movwf	___fldiv@b+2
  3809  1786  0825               	movf	?___flmul+1,w
  3810  1787  00C3               	movwf	___fldiv@b+1
  3811  1788  0824               	movf	?___flmul,w
  3812  1789  00C2               	movwf	___fldiv@b
  3813  178A  3189  21BD  3197   	fcall	___fldiv
  3814  178D  0020               	movlb	0	; select bank0
  3815  178E  0841               	movf	?___fldiv+3,w
  3816  178F  0021               	movlb	1	; select bank1
  3817  1790  00D4               	movwf	(_v_sensor+3)^(0+128)
  3818  1791  0020               	movlb	0	; select bank0
  3819  1792  0840               	movf	?___fldiv+2,w
  3820  1793  0021               	movlb	1	; select bank1
  3821  1794  00D3               	movwf	(_v_sensor+2)^(0+128)
  3822  1795  0020               	movlb	0	; select bank0
  3823  1796  083F               	movf	?___fldiv+1,w
  3824  1797  0021               	movlb	1	; select bank1
  3825  1798  00D2               	movwf	(_v_sensor+1)^(0+128)
  3826  1799  0020               	movlb	0	; select bank0
  3827  179A  083E               	movf	?___fldiv,w
  3828  179B  0021               	movlb	1	; select bank1
  3829  179C  00D1               	movwf	_v_sensor^(0+128)
  3830                           
  3831                           ;main.c: 51: temp = (v_sensor/10)-3.8;
  3832  179D  30C0               	movlw	192
  3833  179E  0020               	movlb	0	; select bank0
  3834  179F  00DB               	movwf	___fladd@b+3
  3835  17A0  3073               	movlw	115
  3836  17A1  00DA               	movwf	___fladd@b+2
  3837  17A2  3033               	movlw	51
  3838  17A3  00D9               	movwf	___fladd@b+1
  3839  17A4  3033               	movlw	51
  3840  17A5  00D8               	movwf	___fladd@b
  3841  17A6  3041               	movlw	65
  3842  17A7  00C1               	movwf	___fldiv@a+3
  3843  17A8  3020               	movlw	32
  3844  17A9  00C0               	movwf	___fldiv@a+2
  3845  17AA  3000               	movlw	0
  3846  17AB  00BF               	movwf	___fldiv@a+1
  3847  17AC  3000               	movlw	0
  3848  17AD  00BE               	movwf	___fldiv@a
  3849  17AE  0021               	movlb	1	; select bank1
  3850  17AF  0854               	movf	(_v_sensor+3)^(0+128),w
  3851  17B0  0020               	movlb	0	; select bank0
  3852  17B1  00C5               	movwf	___fldiv@b+3
  3853  17B2  0021               	movlb	1	; select bank1
  3854  17B3  0853               	movf	(_v_sensor+2)^(0+128),w
  3855  17B4  0020               	movlb	0	; select bank0
  3856  17B5  00C4               	movwf	___fldiv@b+2
  3857  17B6  0021               	movlb	1	; select bank1
  3858  17B7  0852               	movf	(_v_sensor+1)^(0+128),w
  3859  17B8  0020               	movlb	0	; select bank0
  3860  17B9  00C3               	movwf	___fldiv@b+1
  3861  17BA  0021               	movlb	1	; select bank1
  3862  17BB  0851               	movf	_v_sensor^(0+128),w
  3863  17BC  0020               	movlb	0	; select bank0
  3864  17BD  00C2               	movwf	___fldiv@b
  3865  17BE  3189  21BD  3197   	fcall	___fldiv
  3866  17C1  0020               	movlb	0	; select bank0
  3867  17C2  0841               	movf	?___fldiv+3,w
  3868  17C3  00DF               	movwf	___fladd@a+3
  3869  17C4  0840               	movf	?___fldiv+2,w
  3870  17C5  00DE               	movwf	___fladd@a+2
  3871  17C6  083F               	movf	?___fldiv+1,w
  3872  17C7  00DD               	movwf	___fladd@a+1
  3873  17C8  083E               	movf	?___fldiv,w
  3874  17C9  00DC               	movwf	___fladd@a
  3875  17CA  318B  2371  3197   	fcall	___fladd
  3876  17CD  0020               	movlb	0	; select bank0
  3877  17CE  085B               	movf	?___fladd+3,w
  3878  17CF  0021               	movlb	1	; select bank1
  3879  17D0  00D0               	movwf	(_temp+3)^(0+128)
  3880  17D1  0020               	movlb	0	; select bank0
  3881  17D2  085A               	movf	?___fladd+2,w
  3882  17D3  0021               	movlb	1	; select bank1
  3883  17D4  00CF               	movwf	(_temp+2)^(0+128)
  3884  17D5  0020               	movlb	0	; select bank0
  3885  17D6  0859               	movf	?___fladd+1,w
  3886  17D7  0021               	movlb	1	; select bank1
  3887  17D8  00CE               	movwf	(_temp+1)^(0+128)
  3888  17D9  0020               	movlb	0	; select bank0
  3889  17DA  0858               	movf	?___fladd,w
  3890  17DB  0021               	movlb	1	; select bank1
  3891  17DC  00CD               	movwf	_temp^(0+128)
  3892  17DD                     l3441:	
  3893                           
  3894                           ;main.c: 52: band_aux = 0;
  3895  17DD  01D5               	clrf	_band_aux^(0+128)
  3896  17DE                     l3443:	
  3897                           
  3898                           ;main.c: 54: enviarTrama(mensaje);
  3899  17DE  3090               	movlw	low (_mensaje| (0+32768))
  3900  17DF  00F0               	movwf	enviarTrama@datos
  3901  17E0  3098               	movlw	high (_mensaje| (0+32768))
  3902  17E1  00F1               	movwf	enviarTrama@datos+1
  3903  17E2  3187  27D2  3197   	fcall	_enviarTrama
  3904  17E5                     l3445:	
  3905                           
  3906                           ;main.c: 55: sprintf(salida, "grados: %.1f C", temp);
  3907  17E5  30A1               	movlw	low (STR_1| (0+32768))
  3908  17E6  0021               	movlb	1	; select bank1
  3909  17E7  00A8               	movwf	sprintf@f^(0+128)
  3910  17E8  3098               	movlw	high (STR_1| (0+32768))
  3911  17E9  00A9               	movwf	(sprintf@f^(0+128)+1)
  3912  17EA  0850               	movf	(_temp+3)^(0+128),w
  3913  17EB  00AD               	movwf	((?_sprintf+3)^(0+128)+2)
  3914  17EC  084F               	movf	(_temp+2)^(0+128),w
  3915  17ED  00AC               	movwf	((?_sprintf+2)^(0+128)+2)
  3916  17EE  084E               	movf	(_temp+1)^(0+128),w
  3917  17EF  00AB               	movwf	((?_sprintf+1)^(0+128)+2)
  3918  17F0  084D               	movf	_temp^(0+128),w
  3919  17F1  00AA               	movwf	(?_sprintf^(0+128)+2)
  3920  17F2  3020               	movlw	(low (_salida| (0+256)))& (0+255)
  3921  17F3  3180  2043  3197   	fcall	_sprintf
  3922  17F6                     l3447:	
  3923                           
  3924                           ;main.c: 56: enviarTrama(salida);
  3925  17F6  3020               	movlw	low _salida
  3926  17F7  00F0               	movwf	enviarTrama@datos
  3927  17F8  3001               	movlw	high _salida
  3928  17F9  00F1               	movwf	enviarTrama@datos+1
  3929  17FA  3187  27D2  3197   	fcall	_enviarTrama
  3930  17FD  2F50               	goto	l3437
  3931  17FE  3180  282D         	ljmp	start
  3932  1800                     __end_of_main:	
  3933                           
  3934                           	psect	text1
  3935  0043                     __ptext1:	
  3936 ;; *************** function _sprintf *****************
  3937 ;; Defined at:
  3938 ;;		line 505 in file "C:\Program Files (x86)\Microchip\xc8\v2.10\pic\sources\c90\common\doprnt.c"
  3939 ;; Parameters:    Size  Location     Type
  3940 ;;  sp              1    wreg     PTR unsigned char 
  3941 ;;		 -> salida(25), 
  3942 ;;  f               2    8[BANK1 ] PTR const unsigned char 
  3943 ;;		 -> STR_1(15), 
  3944 ;; Auto vars:     Size  Location     Type
  3945 ;;  sp              1   37[BANK1 ] PTR unsigned char 
  3946 ;;		 -> salida(25), 
  3947 ;;  fval            4   40[BANK1 ] PTR unsigned char 
  3948 ;;  tmpval          4   33[BANK1 ] struct .
  3949 ;;  val             4   27[BANK1 ] unsigned long 
  3950 ;;  prec            2   38[BANK1 ] int 
  3951 ;;  eexp            2   31[BANK1 ] int 
  3952 ;;  flag            2   25[BANK1 ] unsigned short 
  3953 ;;  cp              2    0        PTR const unsigned char 
  3954 ;;  len             2    0        unsigned int 
  3955 ;;  width           2    0        int 
  3956 ;;  c               1   44[BANK1 ] unsigned char 
  3957 ;;  ap              1   24[BANK1 ] PTR void [1]
  3958 ;;		 -> ?_sprintf(2), 
  3959 ;;  d               1    0        unsigned char 
  3960 ;; Return value:  Size  Location     Type
  3961 ;;                  2    8[BANK1 ] int 
  3962 ;; Registers used:
  3963 ;;		wreg, fsr0l, fsr0h, fsr1l, fsr1h, status,2, status,0, pclath, cstack
  3964 ;; Tracked objects:
  3965 ;;		On entry : 0/0
  3966 ;;		On exit  : 0/0
  3967 ;;		Unchanged: 0/0
  3968 ;; Data sizes:     COMMON   BANK0   BANK1   BANK2   BANK3   BANK4   BANK5   BANK6   BANK7   BANK8   BANK9  BANK10  BANK1
      +1  BANK12
  3969 ;;      Params:         0       0       6       0       0       0       0       0       0       0       0       0       
      +0       0
  3970 ;;      Locals:         0       0      25       0       0       0       0       0       0       0       0       0       
      +0       0
  3971 ;;      Temps:          0       0       6       0       0       0       0       0       0       0       0       0       
      +0       0
  3972 ;;      Totals:         0       0      37       0       0       0       0       0       0       0       0       0       
      +0       0
  3973 ;;Total ram usage:       37 bytes
  3974 ;; Hardware stack levels used:    1
  3975 ;; Hardware stack levels required when called:    4
  3976 ;; This function calls:
  3977 ;;		___awdiv
  3978 ;;		___fladd
  3979 ;;		___fleq
  3980 ;;		___flge
  3981 ;;		___flmul
  3982 ;;		___flneg
  3983 ;;		___flsub
  3984 ;;		___fltol
  3985 ;;		___lldiv
  3986 ;;		___llmod
  3987 ;;		___wmul
  3988 ;;		___xxtofl
  3989 ;;		__div_to_l_
  3990 ;;		__tdiv_to_l_
  3991 ;;		_fround
  3992 ;;		_isdigit
  3993 ;;		_scale
  3994 ;; This function is called by:
  3995 ;;		_main
  3996 ;; This function uses a non-reentrant model
  3997 ;;
  3998                           
  3999                           
  4000                           ;psect for function _sprintf
  4001  0043                     _sprintf:	
  4002                           
  4003                           ;incstack = 0
  4004                           ; Regs used in _sprintf: [wreg-fsr1h+status,2+status,0+pclath+cstack]
  4005                           ;sprintf@sp stored from wreg
  4006  0043  0021               	movlb	1	; select bank1
  4007  0044  00C5               	movwf	sprintf@sp^(0+128)
  4008  0045                     l3077:	
  4009                           
  4010                           ;doprnt.c: 507: va_list ap;;doprnt.c: 512: char c;;doprnt.c: 514: int width;;doprnt.c: 5
      +                          17: int prec;;doprnt.c: 525: unsigned short flag;;doprnt.c: 532: char d;;doprnt.c: 533: 
      +                          double fval;;doprnt.c: 534: int eexp;;doprnt.c: 540: union {;doprnt.c: 541: unsigned lon
      +                          g vd;;doprnt.c: 542: double integ;;doprnt.c: 543: } tmpval;;doprnt.c: 545: unsigned long
      +                           val;;doprnt.c: 546: unsigned len;;doprnt.c: 547: const char * cp;;doprnt.c: 550: *ap = 
      +                          __va_start();
  4011  0045  30AA               	movlw	(low ((?_sprintf| 0+2)))& (0+255)
  4012  0046  00AE               	movwf	??_sprintf^(0+128)
  4013  0047  082E               	movf	??_sprintf^(0+128),w
  4014  0048  00B8               	movwf	sprintf@ap^(0+128)
  4015                           
  4016                           ;doprnt.c: 553: while((c = *f++)) {
  4017  0049  2D3C               	goto	l3273
  4018  004A                     l3079:	
  4019                           
  4020                           ;doprnt.c: 555: if(c != '%')
  4021  004A  3025               	movlw	37
  4022  004B  064C               	xorwf	sprintf@c^(0+128),w
  4023  004C  1903               	btfsc	3,2
  4024  004D  284F               	goto	u4521
  4025  004E  2850               	goto	u4520
  4026  004F                     u4521:	
  4027  004F  285D               	goto	l3085
  4028  0050                     u4520:	
  4029  0050                     l3081:	
  4030                           
  4031                           ;doprnt.c: 557: {;doprnt.c: 558: ((*sp++ = (c)));
  4032  0050  084C               	movf	sprintf@c^(0+128),w
  4033  0051  00AE               	movwf	??_sprintf^(0+128)
  4034  0052  0845               	movf	sprintf@sp^(0+128),w
  4035  0053  0086               	movwf	6
  4036  0054  3001               	movlw	1	; select bank2/3
  4037  0055  0087               	movwf	7
  4038  0056  082E               	movf	??_sprintf^(0+128),w
  4039  0057  0081               	movwf	1
  4040  0058                     l3083:	
  4041  0058  3001               	movlw	1
  4042  0059  00AE               	movwf	??_sprintf^(0+128)
  4043  005A  082E               	movf	??_sprintf^(0+128),w
  4044  005B  07C5               	addwf	sprintf@sp^(0+128),f
  4045                           
  4046                           ;doprnt.c: 559: continue;
  4047  005C  2D3C               	goto	l3273
  4048  005D                     l3085:	
  4049                           
  4050                           ;doprnt.c: 560: };doprnt.c: 565: flag = 0;
  4051  005D  01B9               	clrf	sprintf@flag^(0+128)
  4052  005E  01BA               	clrf	(sprintf@flag+1)^(0+128)
  4053  005F                     l3087:	
  4054                           
  4055                           ;doprnt.c: 628: if(*f == '.') {
  4056  005F  0828               	movf	sprintf@f^(0+128),w
  4057  0060  0084               	movwf	4
  4058  0061  0829               	movf	(sprintf@f+1)^(0+128),w
  4059  0062  0085               	movwf	5
  4060  0063  0012               	moviw fsr0++
  4061  0064  3A2E               	xorlw	46
  4062  0065  1D03               	btfss	3,2
  4063  0066  2868               	goto	u4531
  4064  0067  2869               	goto	u4530
  4065  0068                     u4531:	
  4066  0068  28A2               	goto	l3103
  4067  0069                     u4530:	
  4068  0069                     l3089:	
  4069                           
  4070                           ;doprnt.c: 629: flag |= 0x4000;
  4071  0069  173A               	bsf	(sprintf@flag^(0+128)+1),6
  4072  006A                     l3091:	
  4073                           
  4074                           ;doprnt.c: 630: f++;
  4075  006A  3001               	movlw	1
  4076  006B  07A8               	addwf	sprintf@f^(0+128),f
  4077  006C  3000               	movlw	0
  4078  006D  3DA9               	addwfc	(sprintf@f+1)^(0+128),f
  4079  006E                     l3093:	
  4080                           
  4081                           ;doprnt.c: 644: {;doprnt.c: 645: prec = 0;
  4082  006E  01C6               	clrf	sprintf@prec^(0+128)
  4083  006F  01C7               	clrf	(sprintf@prec+1)^(0+128)
  4084                           
  4085                           ;doprnt.c: 646: while(isdigit((unsigned)*f)) {
  4086  0070  2895               	goto	l3101
  4087  0071                     l3095:	
  4088                           
  4089                           ;doprnt.c: 647: prec *= 10;
  4090  0071  300A               	movlw	10
  4091  0072  00F0               	movwf	___wmul@multiplier
  4092  0073  3000               	movlw	0
  4093  0074  00F1               	movwf	___wmul@multiplier+1
  4094  0075  0021               	movlb	1	; select bank1
  4095  0076  0847               	movf	(sprintf@prec+1)^(0+128),w
  4096  0077  00F3               	movwf	___wmul@multiplicand+1
  4097  0078  0846               	movf	sprintf@prec^(0+128),w
  4098  0079  00F2               	movwf	___wmul@multiplicand
  4099  007A  3191  21A0  3180   	fcall	___wmul
  4100  007D  0871               	movf	?___wmul+1,w
  4101  007E  0021               	movlb	1	; select bank1
  4102  007F  00C7               	movwf	(sprintf@prec+1)^(0+128)
  4103  0080  0870               	movf	?___wmul,w
  4104  0081  00C6               	movwf	sprintf@prec^(0+128)
  4105  0082                     l3097:	
  4106                           
  4107                           ;doprnt.c: 648: prec += *f++ - '0';
  4108  0082  0828               	movf	sprintf@f^(0+128),w
  4109  0083  0084               	movwf	4
  4110  0084  0829               	movf	(sprintf@f+1)^(0+128),w
  4111  0085  0085               	movwf	5
  4112  0086  0800               	movf	0,w	;code access
  4113  0087  3ED0               	addlw	208
  4114  0088  00AE               	movwf	??_sprintf^(0+128)
  4115  0089  30FF               	movlw	255
  4116  008A  1803               	skipnc
  4117  008B  3000               	movlw	0
  4118  008C  00AF               	movwf	(??_sprintf^(0+128)+1)
  4119  008D  082E               	movf	??_sprintf^(0+128),w
  4120  008E  07C6               	addwf	sprintf@prec^(0+128),f
  4121  008F  082F               	movf	(??_sprintf+1)^(0+128),w
  4122  0090  3DC7               	addwfc	(sprintf@prec+1)^(0+128),f
  4123  0091                     l3099:	
  4124  0091  3001               	movlw	1
  4125  0092  07A8               	addwf	sprintf@f^(0+128),f
  4126  0093  3000               	movlw	0
  4127  0094  3DA9               	addwfc	(sprintf@f+1)^(0+128),f
  4128  0095                     l3101:	
  4129  0095  0828               	movf	sprintf@f^(0+128),w
  4130  0096  0084               	movwf	4
  4131  0097  0829               	movf	(sprintf@f+1)^(0+128),w
  4132  0098  0085               	movwf	5
  4133  0099  0800               	movf	0,w	;code access
  4134  009A  3191  218E  3180   	fcall	_isdigit
  4135  009D  1803               	btfsc	3,0
  4136  009E  28A0               	goto	u4541
  4137  009F  28A1               	goto	u4540
  4138  00A0                     u4541:	
  4139  00A0  2871               	goto	l3095
  4140  00A1                     u4540:	
  4141  00A1  28A8               	goto	l3109
  4142  00A2                     l3103:	
  4143                           
  4144                           ;doprnt.c: 652: prec = 0;
  4145  00A2  01C6               	clrf	sprintf@prec^(0+128)
  4146  00A3  01C7               	clrf	(sprintf@prec+1)^(0+128)
  4147  00A4                     l3105:	
  4148                           
  4149                           ;doprnt.c: 654: flag |= 0x1000;
  4150  00A4  163A               	bsf	(sprintf@flag^(0+128)+1),4
  4151  00A5  28A8               	goto	l3109
  4152  00A6                     l229:	
  4153                           ;doprnt.c: 688: case 'f':
  4154                           
  4155                           
  4156                           ;doprnt.c: 689: flag |= 0x400;
  4157  00A6  153A               	bsf	(sprintf@flag^(0+128)+1),2
  4158                           
  4159                           ;doprnt.c: 690: break;
  4160  00A7  28BD               	goto	l3111
  4161  00A8                     l3109:	
  4162  00A8  0021               	movlb	1	; select bank1
  4163  00A9  0829               	movf	(sprintf@f+1)^(0+128),w
  4164  00AA  00AF               	movwf	(??_sprintf^(0+128)+1)
  4165  00AB  0828               	movf	sprintf@f^(0+128),w
  4166  00AC  00AE               	movwf	??_sprintf^(0+128)
  4167  00AD  0AA8               	incf	sprintf@f^(0+128),f
  4168  00AE  1903               	skipnz
  4169  00AF  0AA9               	incf	(sprintf@f+1)^(0+128),f
  4170  00B0  082E               	movf	??_sprintf^(0+128),w
  4171  00B1  0084               	movwf	4
  4172  00B2  082F               	movf	(??_sprintf+1)^(0+128),w
  4173  00B3  0085               	movwf	5
  4174  00B4  0800               	movf	0,w	;code access
  4175  00B5  00CC               	movwf	sprintf@c^(0+128)
  4176                           
  4177                           ; Switch size 1, requested type "simple"
  4178                           ; Number of cases is 2, Range of values is 0 to 102
  4179                           ; switch strategies available:
  4180                           ; Name         Instructions Cycles
  4181                           ; simple_byte            7     4 (average)
  4182                           ; direct_byte          212     6 (fixed)
  4183                           ; jumptable            260     6 (fixed)
  4184                           ;	Chosen strategy is simple_byte
  4185  00B6  3A00               	xorlw	0	; case 0
  4186  00B7  1903               	skipnz
  4187  00B8  2D50               	goto	l3275
  4188  00B9  3A66               	xorlw	102	; case 102
  4189  00BA  1903               	skipnz
  4190  00BB  28A6               	goto	l229
  4191  00BC  2D3C               	goto	l3273
  4192  00BD                     l3111:	
  4193                           
  4194                           ;doprnt.c: 851: if(flag & (0x700)) {
  4195  00BD  3000               	movlw	0
  4196  00BE  0539               	andwf	sprintf@flag^(0+128),w
  4197  00BF  00AE               	movwf	??_sprintf^(0+128)
  4198  00C0  3007               	movlw	7
  4199  00C1  053A               	andwf	(sprintf@flag+1)^(0+128),w
  4200  00C2  00AF               	movwf	(??_sprintf+1)^(0+128)
  4201  00C3  082E               	movf	??_sprintf^(0+128),w
  4202  00C4  042F               	iorwf	(??_sprintf^(0+128)+1),w
  4203  00C5  1903               	btfsc	3,2
  4204  00C6  28C8               	goto	u4551
  4205  00C7  28C9               	goto	u4550
  4206  00C8                     u4551:	
  4207  00C8  2CFA               	goto	l3255
  4208  00C9                     u4550:	
  4209  00C9                     l3113:	
  4210                           
  4211                           ;doprnt.c: 853: if(flag & 0x1000)
  4212  00C9  1E3A               	btfss	(sprintf@flag+1)^(0+128),4
  4213  00CA  28CC               	goto	u4561
  4214  00CB  28CD               	goto	u4560
  4215  00CC                     u4561:	
  4216  00CC  28D1               	goto	l3117
  4217  00CD                     u4560:	
  4218  00CD                     l3115:	
  4219                           
  4220                           ;doprnt.c: 855: prec = 6;
  4221  00CD  3006               	movlw	6
  4222  00CE  00C6               	movwf	sprintf@prec^(0+128)
  4223  00CF  3000               	movlw	0
  4224  00D0  00C7               	movwf	(sprintf@prec^(0+128)+1)
  4225  00D1                     l3117:	
  4226                           
  4227                           ;doprnt.c: 856: fval = (*(double *)__va_arg((*(double **)ap), (double)0));
  4228  00D1  0838               	movf	sprintf@ap^(0+128),w
  4229  00D2  0086               	movwf	6
  4230  00D3  0187               	clrf	7
  4231  00D4  3F40               	moviw [0]fsr1
  4232  00D5  00C8               	movwf	sprintf@fval^(0+128)
  4233  00D6  3F41               	moviw [1]fsr1
  4234  00D7  00C9               	movwf	(sprintf@fval+1)^(0+128)
  4235  00D8  3F42               	moviw [2]fsr1
  4236  00D9  00CA               	movwf	(sprintf@fval+2)^(0+128)
  4237  00DA  3F43               	moviw [3]fsr1
  4238  00DB  00CB               	movwf	(sprintf@fval+3)^(0+128)
  4239  00DC                     l3119:	
  4240  00DC  3004               	movlw	4
  4241  00DD  00AE               	movwf	??_sprintf^(0+128)
  4242  00DE  082E               	movf	??_sprintf^(0+128),w
  4243  00DF  07B8               	addwf	sprintf@ap^(0+128),f
  4244  00E0                     l3121:	
  4245                           
  4246                           ;doprnt.c: 857: if(fval < 0.0) {
  4247  00E0  084B               	movf	(sprintf@fval+3)^(0+128),w
  4248  00E1  00F3               	movwf	___flge@ff1+3
  4249  00E2  084A               	movf	(sprintf@fval+2)^(0+128),w
  4250  00E3  00F2               	movwf	___flge@ff1+2
  4251  00E4  0849               	movf	(sprintf@fval+1)^(0+128),w
  4252  00E5  00F1               	movwf	___flge@ff1+1
  4253  00E6  0848               	movf	sprintf@fval^(0+128),w
  4254  00E7  00F0               	movwf	___flge@ff1
  4255  00E8  3000               	movlw	0
  4256  00E9  00F7               	movwf	___flge@ff2+3
  4257  00EA  3000               	movlw	0
  4258  00EB  00F6               	movwf	___flge@ff2+2
  4259  00EC  3000               	movlw	0
  4260  00ED  00F5               	movwf	___flge@ff2+1
  4261  00EE  3000               	movlw	0
  4262  00EF  00F4               	movwf	___flge@ff2
  4263  00F0  3194  24B5  3180   	fcall	___flge
  4264  00F3  1803               	btfsc	3,0
  4265  00F4  28F6               	goto	u4571
  4266  00F5  28F7               	goto	u4570
  4267  00F6                     u4571:	
  4268  00F6  2910               	goto	l3127
  4269  00F7                     u4570:	
  4270  00F7                     l3123:	
  4271                           
  4272                           ;doprnt.c: 858: fval = -fval;
  4273  00F7  0021               	movlb	1	; select bank1
  4274  00F8  084B               	movf	(sprintf@fval+3)^(0+128),w
  4275  00F9  00F3               	movwf	___flneg@f1+3
  4276  00FA  084A               	movf	(sprintf@fval+2)^(0+128),w
  4277  00FB  00F2               	movwf	___flneg@f1+2
  4278  00FC  0849               	movf	(sprintf@fval+1)^(0+128),w
  4279  00FD  00F1               	movwf	___flneg@f1+1
  4280  00FE  0848               	movf	sprintf@fval^(0+128),w
  4281  00FF  00F0               	movwf	___flneg@f1
  4282  0100  3191  2183  3180   	fcall	___flneg
  4283  0103  0873               	movf	?___flneg+3,w
  4284  0104  0021               	movlb	1	; select bank1
  4285  0105  00CB               	movwf	(sprintf@fval+3)^(0+128)
  4286  0106  0872               	movf	?___flneg+2,w
  4287  0107  00CA               	movwf	(sprintf@fval+2)^(0+128)
  4288  0108  0871               	movf	?___flneg+1,w
  4289  0109  00C9               	movwf	(sprintf@fval+1)^(0+128)
  4290  010A  0870               	movf	?___flneg,w
  4291  010B  00C8               	movwf	sprintf@fval^(0+128)
  4292  010C                     l3125:	
  4293                           
  4294                           ;doprnt.c: 859: flag |= 0x03;
  4295  010C  3003               	movlw	3
  4296  010D  04B9               	iorwf	sprintf@flag^(0+128),f
  4297  010E  3000               	movlw	0
  4298  010F  04BA               	iorwf	(sprintf@flag+1)^(0+128),f
  4299  0110                     l3127:	
  4300                           
  4301                           ;doprnt.c: 860: };doprnt.c: 861: eexp = 0;
  4302  0110  0021               	movlb	1	; select bank1
  4303  0111  01BF               	clrf	sprintf@eexp^(0+128)
  4304  0112  01C0               	clrf	(sprintf@eexp+1)^(0+128)
  4305  0113                     l3129:	
  4306                           
  4307                           ;doprnt.c: 862: if( fval!=0) {
  4308  0113  084B               	movf	(sprintf@fval+3)^(0+128),w
  4309  0114  00F3               	movwf	___fleq@ff1+3
  4310  0115  084A               	movf	(sprintf@fval+2)^(0+128),w
  4311  0116  00F2               	movwf	___fleq@ff1+2
  4312  0117  0849               	movf	(sprintf@fval+1)^(0+128),w
  4313  0118  00F1               	movwf	___fleq@ff1+1
  4314  0119  0848               	movf	sprintf@fval^(0+128),w
  4315  011A  00F0               	movwf	___fleq@ff1
  4316  011B  3000               	movlw	0
  4317  011C  00F7               	movwf	___fleq@ff2+3
  4318  011D  3000               	movlw	0
  4319  011E  00F6               	movwf	___fleq@ff2+2
  4320  011F  3000               	movlw	0
  4321  0120  00F5               	movwf	___fleq@ff2+1
  4322  0121  3000               	movlw	0
  4323  0122  00F4               	movwf	___fleq@ff2
  4324  0123  3192  22E5  3180   	fcall	___fleq
  4325  0126  1803               	btfsc	3,0
  4326  0127  2929               	goto	u4581
  4327  0128  292A               	goto	u4580
  4328  0129                     u4581:	
  4329  0129  29E1               	goto	l235
  4330  012A                     u4580:	
  4331  012A                     l3131:	
  4332                           
  4333                           ;doprnt.c: 863: (void)(*(&eexp) = (unsigned char)((*(unsigned long *)&fval >> 23) & 255)
      +                           - 126);
  4334  012A  1003               	clrc
  4335  012B  0021               	movlb	1	; select bank1
  4336  012C  0D4A               	rlf	(sprintf@fval+2)^(0+128),w
  4337  012D  0D4B               	rlf	(sprintf@fval+3)^(0+128),w
  4338  012E  3E82               	addlw	130
  4339  012F  00BF               	movwf	sprintf@eexp^(0+128)
  4340  0130  30FF               	movlw	255
  4341  0131  1803               	skipnc
  4342  0132  3000               	movlw	0
  4343  0133  00C0               	movwf	(sprintf@eexp^(0+128)+1)
  4344  0134                     l3133:	
  4345                           
  4346                           ;doprnt.c: 864: eexp--;
  4347  0134  30FF               	movlw	255
  4348  0135  07BF               	addwf	sprintf@eexp^(0+128),f
  4349  0136  30FF               	movlw	255
  4350  0137  3DC0               	addwfc	(sprintf@eexp+1)^(0+128),f
  4351  0138                     l3135:	
  4352                           
  4353                           ;doprnt.c: 865: eexp *= 3;
  4354  0138  3003               	movlw	3
  4355  0139  00F0               	movwf	___wmul@multiplier
  4356  013A  3000               	movlw	0
  4357  013B  00F1               	movwf	___wmul@multiplier+1
  4358  013C  0840               	movf	(sprintf@eexp+1)^(0+128),w
  4359  013D  00F3               	movwf	___wmul@multiplicand+1
  4360  013E  083F               	movf	sprintf@eexp^(0+128),w
  4361  013F  00F2               	movwf	___wmul@multiplicand
  4362  0140  3191  21A0  3180   	fcall	___wmul
  4363  0143  0871               	movf	?___wmul+1,w
  4364  0144  0021               	movlb	1	; select bank1
  4365  0145  00C0               	movwf	(sprintf@eexp+1)^(0+128)
  4366  0146  0870               	movf	?___wmul,w
  4367  0147  00BF               	movwf	sprintf@eexp^(0+128)
  4368  0148                     l3137:	
  4369                           
  4370                           ;doprnt.c: 866: eexp /= 10;
  4371  0148  300A               	movlw	10
  4372  0149  00F7               	movwf	___awdiv@divisor
  4373  014A  3000               	movlw	0
  4374  014B  00F8               	movwf	___awdiv@divisor+1
  4375  014C  0840               	movf	(sprintf@eexp+1)^(0+128),w
  4376  014D  00FA               	movwf	___awdiv@dividend+1
  4377  014E  083F               	movf	sprintf@eexp^(0+128),w
  4378  014F  00F9               	movwf	___awdiv@dividend
  4379  0150  3193  23E0  3180   	fcall	___awdiv
  4380  0153  0878               	movf	?___awdiv+1,w
  4381  0154  0021               	movlb	1	; select bank1
  4382  0155  00C0               	movwf	(sprintf@eexp+1)^(0+128)
  4383  0156  0877               	movf	?___awdiv,w
  4384  0157  00BF               	movwf	sprintf@eexp^(0+128)
  4385  0158                     l3139:	
  4386                           
  4387                           ;doprnt.c: 867: if(eexp < 0)
  4388  0158  1FC0               	btfss	(sprintf@eexp+1)^(0+128),7
  4389  0159  295B               	goto	u4591
  4390  015A  295C               	goto	u4590
  4391  015B                     u4591:	
  4392  015B  2960               	goto	l3143
  4393  015C                     u4590:	
  4394  015C                     l3141:	
  4395                           
  4396                           ;doprnt.c: 868: eexp--;
  4397  015C  30FF               	movlw	255
  4398  015D  07BF               	addwf	sprintf@eexp^(0+128),f
  4399  015E  30FF               	movlw	255
  4400  015F  3DC0               	addwfc	(sprintf@eexp+1)^(0+128),f
  4401  0160                     l3143:	
  4402                           
  4403                           ;doprnt.c: 872: tmpval.integ = scale(-eexp);
  4404  0160  033F               	decf	sprintf@eexp^(0+128),w
  4405  0161  3AFF               	xorlw	255
  4406  0162  3185  2556  3180   	fcall	_scale
  4407  0165  0020               	movlb	0	; select bank0
  4408  0166  0841               	movf	?_scale+3,w
  4409  0167  0021               	movlb	1	; select bank1
  4410  0168  00C4               	movwf	(sprintf@tmpval+3)^(0+128)
  4411  0169  0020               	movlb	0	; select bank0
  4412  016A  0840               	movf	?_scale+2,w
  4413  016B  0021               	movlb	1	; select bank1
  4414  016C  00C3               	movwf	(sprintf@tmpval+2)^(0+128)
  4415  016D  0020               	movlb	0	; select bank0
  4416  016E  083F               	movf	?_scale+1,w
  4417  016F  0021               	movlb	1	; select bank1
  4418  0170  00C2               	movwf	(sprintf@tmpval+1)^(0+128)
  4419  0171  0020               	movlb	0	; select bank0
  4420  0172  083E               	movf	?_scale,w
  4421  0173  0021               	movlb	1	; select bank1
  4422  0174  00C1               	movwf	sprintf@tmpval^(0+128)
  4423  0175                     l3145:	
  4424                           
  4425                           ;doprnt.c: 873: tmpval.integ *= fval;
  4426  0175  084B               	movf	(sprintf@fval+3)^(0+128),w
  4427  0176  0020               	movlb	0	; select bank0
  4428  0177  00A7               	movwf	___flmul@b+3
  4429  0178  0021               	movlb	1	; select bank1
  4430  0179  084A               	movf	(sprintf@fval+2)^(0+128),w
  4431  017A  0020               	movlb	0	; select bank0
  4432  017B  00A6               	movwf	___flmul@b+2
  4433  017C  0021               	movlb	1	; select bank1
  4434  017D  0849               	movf	(sprintf@fval+1)^(0+128),w
  4435  017E  0020               	movlb	0	; select bank0
  4436  017F  00A5               	movwf	___flmul@b+1
  4437  0180  0021               	movlb	1	; select bank1
  4438  0181  0848               	movf	sprintf@fval^(0+128),w
  4439  0182  0020               	movlb	0	; select bank0
  4440  0183  00A4               	movwf	___flmul@b
  4441  0184  0021               	movlb	1	; select bank1
  4442  0185  0844               	movf	(sprintf@tmpval+3)^(0+128),w
  4443  0186  0020               	movlb	0	; select bank0
  4444  0187  00AB               	movwf	___flmul@a+3
  4445  0188  0021               	movlb	1	; select bank1
  4446  0189  0843               	movf	(sprintf@tmpval+2)^(0+128),w
  4447  018A  0020               	movlb	0	; select bank0
  4448  018B  00AA               	movwf	___flmul@a+2
  4449  018C  0021               	movlb	1	; select bank1
  4450  018D  0842               	movf	(sprintf@tmpval+1)^(0+128),w
  4451  018E  0020               	movlb	0	; select bank0
  4452  018F  00A9               	movwf	___flmul@a+1
  4453  0190  0021               	movlb	1	; select bank1
  4454  0191  0841               	movf	sprintf@tmpval^(0+128),w
  4455  0192  0020               	movlb	0	; select bank0
  4456  0193  00A8               	movwf	___flmul@a
  4457  0194  318D  25A9  3180   	fcall	___flmul
  4458  0197  0020               	movlb	0	; select bank0
  4459  0198  0827               	movf	?___flmul+3,w
  4460  0199  0021               	movlb	1	; select bank1
  4461  019A  00C4               	movwf	(sprintf@tmpval+3)^(0+128)
  4462  019B  0020               	movlb	0	; select bank0
  4463  019C  0826               	movf	?___flmul+2,w
  4464  019D  0021               	movlb	1	; select bank1
  4465  019E  00C3               	movwf	(sprintf@tmpval+2)^(0+128)
  4466  019F  0020               	movlb	0	; select bank0
  4467  01A0  0825               	movf	?___flmul+1,w
  4468  01A1  0021               	movlb	1	; select bank1
  4469  01A2  00C2               	movwf	(sprintf@tmpval+1)^(0+128)
  4470  01A3  0020               	movlb	0	; select bank0
  4471  01A4  0824               	movf	?___flmul,w
  4472  01A5  0021               	movlb	1	; select bank1
  4473  01A6  00C1               	movwf	sprintf@tmpval^(0+128)
  4474  01A7                     l3147:	
  4475                           
  4476                           ;doprnt.c: 874: if(tmpval.integ < 1.0)
  4477  01A7  0844               	movf	(sprintf@tmpval+3)^(0+128),w
  4478  01A8  00F3               	movwf	___flge@ff1+3
  4479  01A9  0843               	movf	(sprintf@tmpval+2)^(0+128),w
  4480  01AA  00F2               	movwf	___flge@ff1+2
  4481  01AB  0842               	movf	(sprintf@tmpval+1)^(0+128),w
  4482  01AC  00F1               	movwf	___flge@ff1+1
  4483  01AD  0841               	movf	sprintf@tmpval^(0+128),w
  4484  01AE  00F0               	movwf	___flge@ff1
  4485  01AF  303F               	movlw	63
  4486  01B0  00F7               	movwf	___flge@ff2+3
  4487  01B1  3080               	movlw	128
  4488  01B2  00F6               	movwf	___flge@ff2+2
  4489  01B3  3000               	movlw	0
  4490  01B4  00F5               	movwf	___flge@ff2+1
  4491  01B5  3000               	movlw	0
  4492  01B6  00F4               	movwf	___flge@ff2
  4493  01B7  3194  24B5  3180   	fcall	___flge
  4494  01BA  1803               	btfsc	3,0
  4495  01BB  29BD               	goto	u4601
  4496  01BC  29BE               	goto	u4600
  4497  01BD                     u4601:	
  4498  01BD  29C4               	goto	l3151
  4499  01BE                     u4600:	
  4500  01BE                     l3149:	
  4501                           
  4502                           ;doprnt.c: 875: eexp--;
  4503  01BE  30FF               	movlw	255
  4504  01BF  0021               	movlb	1	; select bank1
  4505  01C0  07BF               	addwf	sprintf@eexp^(0+128),f
  4506  01C1  30FF               	movlw	255
  4507  01C2  3DC0               	addwfc	(sprintf@eexp+1)^(0+128),f
  4508  01C3  29E1               	goto	l235
  4509  01C4                     l3151:	
  4510                           
  4511                           ;doprnt.c: 876: else if(tmpval.integ >= 10.0)
  4512  01C4  0021               	movlb	1	; select bank1
  4513  01C5  0844               	movf	(sprintf@tmpval+3)^(0+128),w
  4514  01C6  00F3               	movwf	___flge@ff1+3
  4515  01C7  0843               	movf	(sprintf@tmpval+2)^(0+128),w
  4516  01C8  00F2               	movwf	___flge@ff1+2
  4517  01C9  0842               	movf	(sprintf@tmpval+1)^(0+128),w
  4518  01CA  00F1               	movwf	___flge@ff1+1
  4519  01CB  0841               	movf	sprintf@tmpval^(0+128),w
  4520  01CC  00F0               	movwf	___flge@ff1
  4521  01CD  3041               	movlw	65
  4522  01CE  00F7               	movwf	___flge@ff2+3
  4523  01CF  3020               	movlw	32
  4524  01D0  00F6               	movwf	___flge@ff2+2
  4525  01D1  3000               	movlw	0
  4526  01D2  00F5               	movwf	___flge@ff2+1
  4527  01D3  3000               	movlw	0
  4528  01D4  00F4               	movwf	___flge@ff2
  4529  01D5  3194  24B5  3180   	fcall	___flge
  4530  01D8  1C03               	btfss	3,0
  4531  01D9  29DB               	goto	u4611
  4532  01DA  29DC               	goto	u4610
  4533  01DB                     u4611:	
  4534  01DB  29E1               	goto	l235
  4535  01DC                     u4610:	
  4536  01DC                     l3153:	
  4537                           
  4538                           ;doprnt.c: 877: eexp++;
  4539  01DC  3001               	movlw	1
  4540  01DD  0021               	movlb	1	; select bank1
  4541  01DE  07BF               	addwf	sprintf@eexp^(0+128),f
  4542  01DF  3000               	movlw	0
  4543  01E0  3DC0               	addwfc	(sprintf@eexp+1)^(0+128),f
  4544  01E1                     l235:	
  4545                           
  4546                           ;doprnt.c: 878: };doprnt.c: 1138: if(prec <= 12)
  4547  01E1  0021               	movlb	1	; select bank1
  4548  01E2  0847               	movf	(sprintf@prec+1)^(0+128),w
  4549  01E3  3A80               	xorlw	128
  4550  01E4  00AE               	movwf	??_sprintf^(0+128)
  4551  01E5  3080               	movlw	128
  4552  01E6  022E               	subwf	??_sprintf^(0+128),w
  4553  01E7  1D03               	skipz
  4554  01E8  29EB               	goto	u4625
  4555  01E9  300D               	movlw	13
  4556  01EA  0246               	subwf	sprintf@prec^(0+128),w
  4557  01EB                     u4625:	
  4558  01EB  1803               	skipnc
  4559  01EC  29EE               	goto	u4621
  4560  01ED  29EF               	goto	u4620
  4561  01EE                     u4621:	
  4562  01EE  2A20               	goto	l3157
  4563  01EF                     u4620:	
  4564  01EF                     l3155:	
  4565                           
  4566                           ;doprnt.c: 1139: fval += fround((unsigned int)prec);
  4567  01EF  0021               	movlb	1	; select bank1
  4568  01F0  0846               	movf	sprintf@prec^(0+128),w
  4569  01F1  3188  2035  3180   	fcall	_fround
  4570  01F4  0020               	movlb	0	; select bank0
  4571  01F5  0841               	movf	?_fround+3,w
  4572  01F6  00DB               	movwf	___fladd@b+3
  4573  01F7  0840               	movf	?_fround+2,w
  4574  01F8  00DA               	movwf	___fladd@b+2
  4575  01F9  083F               	movf	?_fround+1,w
  4576  01FA  00D9               	movwf	___fladd@b+1
  4577  01FB  083E               	movf	?_fround,w
  4578  01FC  00D8               	movwf	___fladd@b
  4579  01FD  0021               	movlb	1	; select bank1
  4580  01FE  084B               	movf	(sprintf@fval+3)^(0+128),w
  4581  01FF  0020               	movlb	0	; select bank0
  4582  0200  00DF               	movwf	___fladd@a+3
  4583  0201  0021               	movlb	1	; select bank1
  4584  0202  084A               	movf	(sprintf@fval+2)^(0+128),w
  4585  0203  0020               	movlb	0	; select bank0
  4586  0204  00DE               	movwf	___fladd@a+2
  4587  0205  0021               	movlb	1	; select bank1
  4588  0206  0849               	movf	(sprintf@fval+1)^(0+128),w
  4589  0207  0020               	movlb	0	; select bank0
  4590  0208  00DD               	movwf	___fladd@a+1
  4591  0209  0021               	movlb	1	; select bank1
  4592  020A  0848               	movf	sprintf@fval^(0+128),w
  4593  020B  0020               	movlb	0	; select bank0
  4594  020C  00DC               	movwf	___fladd@a
  4595  020D  318B  2371  3180   	fcall	___fladd
  4596  0210  0020               	movlb	0	; select bank0
  4597  0211  085B               	movf	?___fladd+3,w
  4598  0212  0021               	movlb	1	; select bank1
  4599  0213  00CB               	movwf	(sprintf@fval+3)^(0+128)
  4600  0214  0020               	movlb	0	; select bank0
  4601  0215  085A               	movf	?___fladd+2,w
  4602  0216  0021               	movlb	1	; select bank1
  4603  0217  00CA               	movwf	(sprintf@fval+2)^(0+128)
  4604  0218  0020               	movlb	0	; select bank0
  4605  0219  0859               	movf	?___fladd+1,w
  4606  021A  0021               	movlb	1	; select bank1
  4607  021B  00C9               	movwf	(sprintf@fval+1)^(0+128)
  4608  021C  0020               	movlb	0	; select bank0
  4609  021D  0858               	movf	?___fladd,w
  4610  021E  0021               	movlb	1	; select bank1
  4611  021F  00C8               	movwf	sprintf@fval^(0+128)
  4612  0220                     l3157:	
  4613                           
  4614                           ;doprnt.c: 1142: if((eexp > 9)||(fval != 0 && (unsigned long)fval == 0 && eexp > 1)) {
  4615  0220  0021               	movlb	1	; select bank1
  4616  0221  0840               	movf	(sprintf@eexp+1)^(0+128),w
  4617  0222  3A80               	xorlw	128
  4618  0223  00AE               	movwf	??_sprintf^(0+128)
  4619  0224  3080               	movlw	128
  4620  0225  022E               	subwf	??_sprintf^(0+128),w
  4621  0226  1D03               	skipz
  4622  0227  2A2A               	goto	u4635
  4623  0228  300A               	movlw	10
  4624  0229  023F               	subwf	sprintf@eexp^(0+128),w
  4625  022A                     u4635:	
  4626  022A  1803               	skipnc
  4627  022B  2A2D               	goto	u4631
  4628  022C  2A2E               	goto	u4630
  4629  022D                     u4631:	
  4630  022D  2A70               	goto	l3165
  4631  022E                     u4630:	
  4632  022E                     l3159:	
  4633  022E  0021               	movlb	1	; select bank1
  4634  022F  084B               	movf	(sprintf@fval+3)^(0+128),w
  4635  0230  00F3               	movwf	___fleq@ff1+3
  4636  0231  084A               	movf	(sprintf@fval+2)^(0+128),w
  4637  0232  00F2               	movwf	___fleq@ff1+2
  4638  0233  0849               	movf	(sprintf@fval+1)^(0+128),w
  4639  0234  00F1               	movwf	___fleq@ff1+1
  4640  0235  0848               	movf	sprintf@fval^(0+128),w
  4641  0236  00F0               	movwf	___fleq@ff1
  4642  0237  3000               	movlw	0
  4643  0238  00F7               	movwf	___fleq@ff2+3
  4644  0239  3000               	movlw	0
  4645  023A  00F6               	movwf	___fleq@ff2+2
  4646  023B  3000               	movlw	0
  4647  023C  00F5               	movwf	___fleq@ff2+1
  4648  023D  3000               	movlw	0
  4649  023E  00F4               	movwf	___fleq@ff2
  4650  023F  3192  22E5  3180   	fcall	___fleq
  4651  0242  1803               	btfsc	3,0
  4652  0243  2A45               	goto	u4641
  4653  0244  2A46               	goto	u4640
  4654  0245                     u4641:	
  4655  0245  2ACC               	goto	l3179
  4656  0246                     u4640:	
  4657  0246                     l3161:	
  4658  0246  0021               	movlb	1	; select bank1
  4659  0247  084B               	movf	(sprintf@fval+3)^(0+128),w
  4660  0248  0020               	movlb	0	; select bank0
  4661  0249  00D6               	movwf	___fltol@f1+3
  4662  024A  0021               	movlb	1	; select bank1
  4663  024B  084A               	movf	(sprintf@fval+2)^(0+128),w
  4664  024C  0020               	movlb	0	; select bank0
  4665  024D  00D5               	movwf	___fltol@f1+2
  4666  024E  0021               	movlb	1	; select bank1
  4667  024F  0849               	movf	(sprintf@fval+1)^(0+128),w
  4668  0250  0020               	movlb	0	; select bank0
  4669  0251  00D4               	movwf	___fltol@f1+1
  4670  0252  0021               	movlb	1	; select bank1
  4671  0253  0848               	movf	sprintf@fval^(0+128),w
  4672  0254  0020               	movlb	0	; select bank0
  4673  0255  00D3               	movwf	___fltol@f1
  4674  0256  3194  2440  3180   	fcall	___fltol
  4675  0259  0020               	movlb	0	; select bank0
  4676  025A  0856               	movf	?___fltol+3,w
  4677  025B  0455               	iorwf	?___fltol+2,w
  4678  025C  0454               	iorwf	?___fltol+1,w
  4679  025D  0453               	iorwf	?___fltol,w
  4680  025E  1D03               	skipz
  4681  025F  2A61               	goto	u4651
  4682  0260  2A62               	goto	u4650
  4683  0261                     u4651:	
  4684  0261  2ACC               	goto	l3179
  4685  0262                     u4650:	
  4686  0262                     l3163:	
  4687  0262  0021               	movlb	1	; select bank1
  4688  0263  0840               	movf	(sprintf@eexp+1)^(0+128),w
  4689  0264  3A80               	xorlw	128
  4690  0265  00AE               	movwf	??_sprintf^(0+128)
  4691  0266  3080               	movlw	128
  4692  0267  022E               	subwf	??_sprintf^(0+128),w
  4693  0268  1D03               	skipz
  4694  0269  2A6C               	goto	u4665
  4695  026A  3002               	movlw	2
  4696  026B  023F               	subwf	sprintf@eexp^(0+128),w
  4697  026C                     u4665:	
  4698  026C  1C03               	skipc
  4699  026D  2A6F               	goto	u4661
  4700  026E  2A70               	goto	u4660
  4701  026F                     u4661:	
  4702  026F  2ACC               	goto	l3179
  4703  0270                     u4660:	
  4704  0270                     l3165:	
  4705                           
  4706                           ;doprnt.c: 1146: if(tmpval.integ < 4.294967296){
  4707  0270  0021               	movlb	1	; select bank1
  4708  0271  0844               	movf	(sprintf@tmpval+3)^(0+128),w
  4709  0272  00F3               	movwf	___flge@ff1+3
  4710  0273  0843               	movf	(sprintf@tmpval+2)^(0+128),w
  4711  0274  00F2               	movwf	___flge@ff1+2
  4712  0275  0842               	movf	(sprintf@tmpval+1)^(0+128),w
  4713  0276  00F1               	movwf	___flge@ff1+1
  4714  0277  0841               	movf	sprintf@tmpval^(0+128),w
  4715  0278  00F0               	movwf	___flge@ff1
  4716  0279  3040               	movlw	64
  4717  027A  00F7               	movwf	___flge@ff2+3
  4718  027B  3089               	movlw	137
  4719  027C  00F6               	movwf	___flge@ff2+2
  4720  027D  3070               	movlw	112
  4721  027E  00F5               	movwf	___flge@ff2+1
  4722  027F  305F               	movlw	95
  4723  0280  00F4               	movwf	___flge@ff2
  4724  0281  3194  24B5  3180   	fcall	___flge
  4725  0284  1803               	btfsc	3,0
  4726  0285  2A87               	goto	u4671
  4727  0286  2A88               	goto	u4670
  4728  0287                     u4671:	
  4729  0287  2A8E               	goto	l3169
  4730  0288                     u4670:	
  4731  0288                     l3167:	
  4732                           
  4733                           ;doprnt.c: 1147: eexp -= (sizeof dpowers/sizeof dpowers[0])-1;
  4734  0288  30F7               	movlw	247
  4735  0289  0021               	movlb	1	; select bank1
  4736  028A  07BF               	addwf	sprintf@eexp^(0+128),f
  4737  028B  30FF               	movlw	255
  4738  028C  3DC0               	addwfc	(sprintf@eexp+1)^(0+128),f
  4739                           
  4740                           ;doprnt.c: 1148: }else{
  4741  028D  2A93               	goto	l3171
  4742  028E                     l3169:	
  4743                           
  4744                           ;doprnt.c: 1149: eexp -= (sizeof dpowers/sizeof dpowers[0])-2;
  4745  028E  30F8               	movlw	248
  4746  028F  0021               	movlb	1	; select bank1
  4747  0290  07BF               	addwf	sprintf@eexp^(0+128),f
  4748  0291  30FF               	movlw	255
  4749  0292  3DC0               	addwfc	(sprintf@eexp+1)^(0+128),f
  4750  0293                     l3171:	
  4751                           
  4752                           ;doprnt.c: 1152: val = ((sizeof(double)== 3) ? _tdiv_to_l_(fval,tmpval.integ) : _div_to_
      +                          l_(fval,tmpval.integ));
  4753  0293  083F               	movf	sprintf@eexp^(0+128),w
  4754  0294  3185  2556  3180   	fcall	_scale
  4755  0297  0020               	movlb	0	; select bank0
  4756  0298  0841               	movf	?_scale+3,w
  4757  0299  0021               	movlb	1	; select bank1
  4758  029A  00C4               	movwf	(sprintf@tmpval+3)^(0+128)
  4759  029B  0020               	movlb	0	; select bank0
  4760  029C  0840               	movf	?_scale+2,w
  4761  029D  0021               	movlb	1	; select bank1
  4762  029E  00C3               	movwf	(sprintf@tmpval+2)^(0+128)
  4763  029F  0020               	movlb	0	; select bank0
  4764  02A0  083F               	movf	?_scale+1,w
  4765  02A1  0021               	movlb	1	; select bank1
  4766  02A2  00C2               	movwf	(sprintf@tmpval+1)^(0+128)
  4767  02A3  0020               	movlb	0	; select bank0
  4768  02A4  083E               	movf	?_scale,w
  4769  02A5  0021               	movlb	1	; select bank1
  4770  02A6  00C1               	movwf	sprintf@tmpval^(0+128)
  4771  02A7                     l3173:	
  4772  02A7  084B               	movf	(sprintf@fval+3)^(0+128),w
  4773  02A8  00F3               	movwf	__div_to_l_@f1+3
  4774  02A9  084A               	movf	(sprintf@fval+2)^(0+128),w
  4775  02AA  00F2               	movwf	__div_to_l_@f1+2
  4776  02AB  0849               	movf	(sprintf@fval+1)^(0+128),w
  4777  02AC  00F1               	movwf	__div_to_l_@f1+1
  4778  02AD  0848               	movf	sprintf@fval^(0+128),w
  4779  02AE  00F0               	movwf	__div_to_l_@f1
  4780  02AF  0844               	movf	(sprintf@tmpval+3)^(0+128),w
  4781  02B0  00F7               	movwf	__div_to_l_@f2+3
  4782  02B1  0843               	movf	(sprintf@tmpval+2)^(0+128),w
  4783  02B2  00F6               	movwf	__div_to_l_@f2+2
  4784  02B3  0842               	movf	(sprintf@tmpval+1)^(0+128),w
  4785  02B4  00F5               	movwf	__div_to_l_@f2+1
  4786  02B5  0841               	movf	sprintf@tmpval^(0+128),w
  4787  02B6  00F4               	movwf	__div_to_l_@f2
  4788  02B7  3195  25EB  3180   	fcall	__div_to_l_
  4789  02BA  0873               	movf	?__div_to_l_+3,w
  4790  02BB  0021               	movlb	1	; select bank1
  4791  02BC  00BE               	movwf	(sprintf@val+3)^(0+128)
  4792  02BD  0872               	movf	?__div_to_l_+2,w
  4793  02BE  00BD               	movwf	(sprintf@val+2)^(0+128)
  4794  02BF  0871               	movf	?__div_to_l_+1,w
  4795  02C0  00BC               	movwf	(sprintf@val+1)^(0+128)
  4796  02C1  0870               	movf	?__div_to_l_,w
  4797  02C2  00BB               	movwf	sprintf@val^(0+128)
  4798  02C3                     l3177:	
  4799                           
  4800                           ;doprnt.c: 1155: fval = 0.0;
  4801  02C3  3000               	movlw	0
  4802  02C4  00CB               	movwf	(sprintf@fval+3)^(0+128)
  4803  02C5  3000               	movlw	0
  4804  02C6  00CA               	movwf	(sprintf@fval+2)^(0+128)
  4805  02C7  3000               	movlw	0
  4806  02C8  00C9               	movwf	(sprintf@fval+1)^(0+128)
  4807  02C9  3000               	movlw	0
  4808  02CA  00C8               	movwf	sprintf@fval^(0+128)
  4809                           
  4810                           ;doprnt.c: 1156: } else {
  4811  02CB  2B1A               	goto	l3183
  4812  02CC                     l3179:	
  4813                           
  4814                           ;doprnt.c: 1157: val = (unsigned long)fval;
  4815  02CC  0021               	movlb	1	; select bank1
  4816  02CD  084B               	movf	(sprintf@fval+3)^(0+128),w
  4817  02CE  0020               	movlb	0	; select bank0
  4818  02CF  00D6               	movwf	___fltol@f1+3
  4819  02D0  0021               	movlb	1	; select bank1
  4820  02D1  084A               	movf	(sprintf@fval+2)^(0+128),w
  4821  02D2  0020               	movlb	0	; select bank0
  4822  02D3  00D5               	movwf	___fltol@f1+2
  4823  02D4  0021               	movlb	1	; select bank1
  4824  02D5  0849               	movf	(sprintf@fval+1)^(0+128),w
  4825  02D6  0020               	movlb	0	; select bank0
  4826  02D7  00D4               	movwf	___fltol@f1+1
  4827  02D8  0021               	movlb	1	; select bank1
  4828  02D9  0848               	movf	sprintf@fval^(0+128),w
  4829  02DA  0020               	movlb	0	; select bank0
  4830  02DB  00D3               	movwf	___fltol@f1
  4831  02DC  3194  2440  3180   	fcall	___fltol
  4832  02DF  0020               	movlb	0	; select bank0
  4833  02E0  0856               	movf	?___fltol+3,w
  4834  02E1  0021               	movlb	1	; select bank1
  4835  02E2  00BE               	movwf	(sprintf@val+3)^(0+128)
  4836  02E3  0020               	movlb	0	; select bank0
  4837  02E4  0855               	movf	?___fltol+2,w
  4838  02E5  0021               	movlb	1	; select bank1
  4839  02E6  00BD               	movwf	(sprintf@val+2)^(0+128)
  4840  02E7  0020               	movlb	0	; select bank0
  4841  02E8  0854               	movf	?___fltol+1,w
  4842  02E9  0021               	movlb	1	; select bank1
  4843  02EA  00BC               	movwf	(sprintf@val+1)^(0+128)
  4844  02EB  0020               	movlb	0	; select bank0
  4845  02EC  0853               	movf	?___fltol,w
  4846  02ED  0021               	movlb	1	; select bank1
  4847  02EE  00BB               	movwf	sprintf@val^(0+128)
  4848                           
  4849                           ;doprnt.c: 1158: fval -= (double)val;
  4850  02EF  083E               	movf	(sprintf@val+3)^(0+128),w
  4851  02F0  00F3               	movwf	___xxtofl@val+3
  4852  02F1  083D               	movf	(sprintf@val+2)^(0+128),w
  4853  02F2  00F2               	movwf	___xxtofl@val+2
  4854  02F3  083C               	movf	(sprintf@val+1)^(0+128),w
  4855  02F4  00F1               	movwf	___xxtofl@val+1
  4856  02F5  083B               	movf	sprintf@val^(0+128),w
  4857  02F6  00F0               	movwf	___xxtofl@val
  4858  02F7  3000               	movlw	0
  4859  02F8  3195  253F  3180   	fcall	___xxtofl
  4860  02FB  0873               	movf	?___xxtofl+3,w
  4861  02FC  0021               	movlb	1	; select bank1
  4862  02FD  00A3               	movwf	(___flsub@a+3)^(0+128)
  4863  02FE  0872               	movf	?___xxtofl+2,w
  4864  02FF  00A2               	movwf	(___flsub@a+2)^(0+128)
  4865  0300  0871               	movf	?___xxtofl+1,w
  4866  0301  00A1               	movwf	(___flsub@a+1)^(0+128)
  4867  0302  0870               	movf	?___xxtofl,w
  4868  0303  00A0               	movwf	___flsub@a^(0+128)
  4869  0304  084B               	movf	(sprintf@fval+3)^(0+128),w
  4870  0305  00A7               	movwf	(___flsub@b+3)^(0+128)
  4871  0306  084A               	movf	(sprintf@fval+2)^(0+128),w
  4872  0307  00A6               	movwf	(___flsub@b+2)^(0+128)
  4873  0308  0849               	movf	(sprintf@fval+1)^(0+128),w
  4874  0309  00A5               	movwf	(___flsub@b+1)^(0+128)
  4875  030A  0848               	movf	sprintf@fval^(0+128),w
  4876  030B  00A4               	movwf	___flsub@b^(0+128)
  4877  030C  3191  21E2  3180   	fcall	___flsub
  4878  030F  0021               	movlb	1	; select bank1
  4879  0310  0823               	movf	(?___flsub+3)^(0+128),w
  4880  0311  00CB               	movwf	(sprintf@fval+3)^(0+128)
  4881  0312  0822               	movf	(?___flsub+2)^(0+128),w
  4882  0313  00CA               	movwf	(sprintf@fval+2)^(0+128)
  4883  0314  0821               	movf	(?___flsub+1)^(0+128),w
  4884  0315  00C9               	movwf	(sprintf@fval+1)^(0+128)
  4885  0316  0820               	movf	?___flsub^(0+128),w
  4886  0317  00C8               	movwf	sprintf@fval^(0+128)
  4887  0318                     l3181:	
  4888                           
  4889                           ;doprnt.c: 1159: eexp = 0;
  4890  0318  01BF               	clrf	sprintf@eexp^(0+128)
  4891  0319  01C0               	clrf	(sprintf@eexp+1)^(0+128)
  4892  031A                     l3183:	
  4893                           
  4894                           ;doprnt.c: 1160: };doprnt.c: 1162: for(c = 1 ; c != (sizeof dpowers/sizeof dpowers[0]) ;
      +                           c++)
  4895  031A  01CC               	clrf	sprintf@c^(0+128)
  4896  031B  0ACC               	incf	sprintf@c^(0+128),f
  4897  031C                     l3189:	
  4898                           
  4899                           ;doprnt.c: 1163: if(val < dpowers[c])
  4900  031C  084C               	movf	sprintf@c^(0+128),w
  4901  031D  00AE               	movwf	??_sprintf^(0+128)
  4902  031E  01AF               	clrf	(??_sprintf^(0+128)+1)
  4903  031F  35AE               	lslf	??_sprintf^(0+128),f
  4904  0320  0DAF               	rlf	(??_sprintf^(0+128)+1),f
  4905  0321  35AE               	lslf	??_sprintf^(0+128),f
  4906  0322  0DAF               	rlf	(??_sprintf^(0+128)+1),f
  4907  0323  3068               	movlw	low (_dpowers| (0+32768))
  4908  0324  072E               	addwf	??_sprintf^(0+128),w
  4909  0325  0084               	movwf	4
  4910  0326  3098               	movlw	high (_dpowers| (0+32768))
  4911  0327  3D2F               	addwfc	(??_sprintf+1)^(0+128),w
  4912  0328  0085               	movwf	5
  4913  0329  3F00               	moviw [0]fsr0
  4914  032A  00B0               	movwf	(??_sprintf+2)^(0+128)
  4915  032B  3F01               	moviw [1]fsr0
  4916  032C  00B1               	movwf	((??_sprintf+2)^(0+128)+1)
  4917  032D  3F02               	moviw [2]fsr0
  4918  032E  00B2               	movwf	((??_sprintf+2)^(0+128)+2)
  4919  032F  3F03               	moviw [3]fsr0
  4920  0330  00B3               	movwf	((??_sprintf+2)^(0+128)+3)
  4921  0331  0833               	movf	(??_sprintf+5)^(0+128),w
  4922  0332  023E               	subwf	(sprintf@val+3)^(0+128),w
  4923  0333  1D03               	skipz
  4924  0334  2B3F               	goto	u4685
  4925  0335  0832               	movf	(??_sprintf+4)^(0+128),w
  4926  0336  023D               	subwf	(sprintf@val+2)^(0+128),w
  4927  0337  1D03               	skipz
  4928  0338  2B3F               	goto	u4685
  4929  0339  0831               	movf	(??_sprintf+3)^(0+128),w
  4930  033A  023C               	subwf	(sprintf@val+1)^(0+128),w
  4931  033B  1D03               	skipz
  4932  033C  2B3F               	goto	u4685
  4933  033D  0830               	movf	(??_sprintf+2)^(0+128),w
  4934  033E  023B               	subwf	sprintf@val^(0+128),w
  4935  033F                     u4685:	
  4936  033F  1803               	skipnc
  4937  0340  2B42               	goto	u4681
  4938  0341  2B43               	goto	u4680
  4939  0342                     u4681:	
  4940  0342  2B44               	goto	l3193
  4941  0343                     u4680:	
  4942  0343  2B4E               	goto	l3195
  4943  0344                     l3193:	
  4944  0344  3001               	movlw	1
  4945  0345  00AE               	movwf	??_sprintf^(0+128)
  4946  0346  082E               	movf	??_sprintf^(0+128),w
  4947  0347  07CC               	addwf	sprintf@c^(0+128),f
  4948  0348  300A               	movlw	10
  4949  0349  064C               	xorwf	sprintf@c^(0+128),w
  4950  034A  1D03               	btfss	3,2
  4951  034B  2B4D               	goto	u4691
  4952  034C  2B4E               	goto	u4690
  4953  034D                     u4691:	
  4954  034D  2B1C               	goto	l3189
  4955  034E                     u4690:	
  4956  034E                     l3195:	
  4957                           
  4958                           ;doprnt.c: 1201: {;doprnt.c: 1214: if(flag & 0x03)
  4959  034E  3003               	movlw	3
  4960  034F  0539               	andwf	sprintf@flag^(0+128),w
  4961  0350  00AE               	movwf	??_sprintf^(0+128)
  4962  0351  3000               	movlw	0
  4963  0352  053A               	andwf	(sprintf@flag+1)^(0+128),w
  4964  0353  00AF               	movwf	(??_sprintf+1)^(0+128)
  4965  0354  082E               	movf	??_sprintf^(0+128),w
  4966  0355  042F               	iorwf	(??_sprintf^(0+128)+1),w
  4967  0356  1903               	btfsc	3,2
  4968  0357  2B59               	goto	u4701
  4969  0358  2B5A               	goto	u4700
  4970  0359                     u4701:	
  4971  0359  2BB6               	goto	l3209
  4972  035A                     u4700:	
  4973  035A                     l3197:	
  4974                           
  4975                           ;doprnt.c: 1216: ((*sp++ = ('-')));
  4976  035A  302D               	movlw	45
  4977  035B  00AE               	movwf	??_sprintf^(0+128)
  4978  035C  0845               	movf	sprintf@sp^(0+128),w
  4979  035D  0086               	movwf	6
  4980  035E  3001               	movlw	1	; select bank2/3
  4981  035F  0087               	movwf	7
  4982  0360  082E               	movf	??_sprintf^(0+128),w
  4983  0361  0081               	movwf	1
  4984  0362                     l3199:	
  4985  0362  3001               	movlw	1
  4986  0363  00AE               	movwf	??_sprintf^(0+128)
  4987  0364  082E               	movf	??_sprintf^(0+128),w
  4988  0365  07C5               	addwf	sprintf@sp^(0+128),f
  4989  0366  2BB6               	goto	l3209
  4990  0367                     l3201:	
  4991                           
  4992                           ;doprnt.c: 1226: {;doprnt.c: 1227: tmpval.vd = val/dpowers[c];
  4993  0367  084C               	movf	sprintf@c^(0+128),w
  4994  0368  00AE               	movwf	??_sprintf^(0+128)
  4995  0369  01AF               	clrf	(??_sprintf^(0+128)+1)
  4996  036A  35AE               	lslf	??_sprintf^(0+128),f
  4997  036B  0DAF               	rlf	(??_sprintf^(0+128)+1),f
  4998  036C  35AE               	lslf	??_sprintf^(0+128),f
  4999  036D  0DAF               	rlf	(??_sprintf^(0+128)+1),f
  5000  036E  3068               	movlw	low (_dpowers| (0+32768))
  5001  036F  072E               	addwf	??_sprintf^(0+128),w
  5002  0370  0084               	movwf	4
  5003  0371  3098               	movlw	high (_dpowers| (0+32768))
  5004  0372  3D2F               	addwfc	(??_sprintf+1)^(0+128),w
  5005  0373  0085               	movwf	5
  5006  0374  3F00               	moviw [0]fsr0
  5007  0375  00F0               	movwf	___lldiv@divisor
  5008  0376  3F01               	moviw [1]fsr0
  5009  0377  00F1               	movwf	___lldiv@divisor+1
  5010  0378  3F02               	moviw [2]fsr0
  5011  0379  00F2               	movwf	___lldiv@divisor+2
  5012  037A  3F03               	moviw [3]fsr0
  5013  037B  00F3               	movwf	___lldiv@divisor+3
  5014  037C  083E               	movf	(sprintf@val+3)^(0+128),w
  5015  037D  00F7               	movwf	___lldiv@dividend+3
  5016  037E  083D               	movf	(sprintf@val+2)^(0+128),w
  5017  037F  00F6               	movwf	___lldiv@dividend+2
  5018  0380  083C               	movf	(sprintf@val+1)^(0+128),w
  5019  0381  00F5               	movwf	___lldiv@dividend+1
  5020  0382  083B               	movf	sprintf@val^(0+128),w
  5021  0383  00F4               	movwf	___lldiv@dividend
  5022  0384  3193  2386  3180   	fcall	___lldiv
  5023  0387  0873               	movf	?___lldiv+3,w
  5024  0388  0021               	movlb	1	; select bank1
  5025  0389  00C4               	movwf	(sprintf@tmpval+3)^(0+128)
  5026  038A  0872               	movf	?___lldiv+2,w
  5027  038B  00C3               	movwf	(sprintf@tmpval+2)^(0+128)
  5028  038C  0871               	movf	?___lldiv+1,w
  5029  038D  00C2               	movwf	(sprintf@tmpval+1)^(0+128)
  5030  038E  0870               	movf	?___lldiv,w
  5031  038F  00C1               	movwf	sprintf@tmpval^(0+128)
  5032  0390                     l3203:	
  5033                           
  5034                           ;doprnt.c: 1228: tmpval.vd %= 10;
  5035  0390  3000               	movlw	0
  5036  0391  00F3               	movwf	___llmod@divisor+3
  5037  0392  3000               	movlw	0
  5038  0393  00F2               	movwf	___llmod@divisor+2
  5039  0394  3000               	movlw	0
  5040  0395  00F1               	movwf	___llmod@divisor+1
  5041  0396  300A               	movlw	10
  5042  0397  00F0               	movwf	___llmod@divisor
  5043  0398  0844               	movf	(sprintf@tmpval+3)^(0+128),w
  5044  0399  00F7               	movwf	___llmod@dividend+3
  5045  039A  0843               	movf	(sprintf@tmpval+2)^(0+128),w
  5046  039B  00F6               	movwf	___llmod@dividend+2
  5047  039C  0842               	movf	(sprintf@tmpval+1)^(0+128),w
  5048  039D  00F5               	movwf	___llmod@dividend+1
  5049  039E  0841               	movf	sprintf@tmpval^(0+128),w
  5050  039F  00F4               	movwf	___llmod@dividend
  5051  03A0  3192  229B  3180   	fcall	___llmod
  5052  03A3  0873               	movf	?___llmod+3,w
  5053  03A4  0021               	movlb	1	; select bank1
  5054  03A5  00C4               	movwf	(sprintf@tmpval+3)^(0+128)
  5055  03A6  0872               	movf	?___llmod+2,w
  5056  03A7  00C3               	movwf	(sprintf@tmpval+2)^(0+128)
  5057  03A8  0871               	movf	?___llmod+1,w
  5058  03A9  00C2               	movwf	(sprintf@tmpval+1)^(0+128)
  5059  03AA  0870               	movf	?___llmod,w
  5060  03AB  00C1               	movwf	sprintf@tmpval^(0+128)
  5061  03AC                     l3205:	
  5062                           
  5063                           ;doprnt.c: 1229: ((*sp++ = ('0' + tmpval.vd)));
  5064  03AC  0841               	movf	sprintf@tmpval^(0+128),w
  5065  03AD  3E30               	addlw	48
  5066  03AE  00AE               	movwf	??_sprintf^(0+128)
  5067  03AF  0845               	movf	sprintf@sp^(0+128),w
  5068  03B0  0086               	movwf	6
  5069  03B1  3001               	movlw	1	; select bank2/3
  5070  03B2  0087               	movwf	7
  5071  03B3  082E               	movf	??_sprintf^(0+128),w
  5072  03B4  0081               	movwf	1
  5073  03B5  2B62               	goto	l3199
  5074  03B6                     l3209:	
  5075  03B6  3001               	movlw	1
  5076  03B7  02CC               	subwf	sprintf@c^(0+128),f
  5077  03B8  0A4C               	incf	sprintf@c^(0+128),w
  5078  03B9  1D03               	btfss	3,2
  5079  03BA  2BBC               	goto	u4711
  5080  03BB  2BBD               	goto	u4710
  5081  03BC                     u4711:	
  5082  03BC  2B67               	goto	l3201
  5083  03BD                     u4710:	
  5084  03BD  2BCF               	goto	l3217
  5085  03BE                     l3211:	
  5086                           
  5087                           ;doprnt.c: 1234: ((*sp++ = ('0')));
  5088  03BE  3030               	movlw	48
  5089  03BF  0021               	movlb	1	; select bank1
  5090  03C0  00AE               	movwf	??_sprintf^(0+128)
  5091  03C1  0845               	movf	sprintf@sp^(0+128),w
  5092  03C2  0086               	movwf	6
  5093  03C3  3001               	movlw	1	; select bank2/3
  5094  03C4  0087               	movwf	7
  5095  03C5  082E               	movf	??_sprintf^(0+128),w
  5096  03C6  0081               	movwf	1
  5097  03C7                     l3213:	
  5098  03C7  3001               	movlw	1
  5099  03C8  00AE               	movwf	??_sprintf^(0+128)
  5100  03C9  082E               	movf	??_sprintf^(0+128),w
  5101  03CA  07C5               	addwf	sprintf@sp^(0+128),f
  5102  03CB                     l3215:	
  5103                           
  5104                           ;doprnt.c: 1235: eexp--;
  5105  03CB  30FF               	movlw	255
  5106  03CC  07BF               	addwf	sprintf@eexp^(0+128),f
  5107  03CD  30FF               	movlw	255
  5108  03CE  3DC0               	addwfc	(sprintf@eexp+1)^(0+128),f
  5109  03CF                     l3217:	
  5110  03CF  0840               	movf	(sprintf@eexp+1)^(0+128),w
  5111  03D0  3A80               	xorlw	128
  5112  03D1  00AE               	movwf	??_sprintf^(0+128)
  5113  03D2  3080               	movlw	128
  5114  03D3  022E               	subwf	??_sprintf^(0+128),w
  5115  03D4  1D03               	skipz
  5116  03D5  2BD8               	goto	u4725
  5117  03D6  3001               	movlw	1
  5118  03D7  023F               	subwf	sprintf@eexp^(0+128),w
  5119  03D8                     u4725:	
  5120  03D8  1803               	skipnc
  5121  03D9  2BDB               	goto	u4721
  5122  03DA  2BDC               	goto	u4720
  5123  03DB                     u4721:	
  5124  03DB  2BBE               	goto	l3211
  5125  03DC                     u4720:	
  5126  03DC                     l3219:	
  5127                           
  5128                           ;doprnt.c: 1236: };doprnt.c: 1237: if(prec > (int)((sizeof dpowers/sizeof dpowers[0])-2)
      +                          )
  5129  03DC  0021               	movlb	1	; select bank1
  5130  03DD  0847               	movf	(sprintf@prec+1)^(0+128),w
  5131  03DE  3A80               	xorlw	128
  5132  03DF  00AE               	movwf	??_sprintf^(0+128)
  5133  03E0  3080               	movlw	128
  5134  03E1  022E               	subwf	??_sprintf^(0+128),w
  5135  03E2  1D03               	skipz
  5136  03E3  2BE6               	goto	u4735
  5137  03E4  3009               	movlw	9
  5138  03E5  0246               	subwf	sprintf@prec^(0+128),w
  5139  03E6                     u4735:	
  5140  03E6  1C03               	skipc
  5141  03E7  2BE9               	goto	u4731
  5142  03E8  2BEA               	goto	u4730
  5143  03E9                     u4731:	
  5144  03E9  2BF0               	goto	l3223
  5145  03EA                     u4730:	
  5146  03EA                     l3221:	
  5147                           
  5148                           ;doprnt.c: 1238: c = (sizeof dpowers/sizeof dpowers[0])-2;
  5149  03EA  3008               	movlw	8
  5150  03EB  0021               	movlb	1	; select bank1
  5151  03EC  00AE               	movwf	??_sprintf^(0+128)
  5152  03ED  082E               	movf	??_sprintf^(0+128),w
  5153  03EE  00CC               	movwf	sprintf@c^(0+128)
  5154  03EF  2BF5               	goto	l262
  5155  03F0                     l3223:	
  5156                           
  5157                           ;doprnt.c: 1239: else;doprnt.c: 1240: c = (char)prec;
  5158  03F0  0021               	movlb	1	; select bank1
  5159  03F1  0846               	movf	sprintf@prec^(0+128),w
  5160  03F2  00AE               	movwf	??_sprintf^(0+128)
  5161  03F3  082E               	movf	??_sprintf^(0+128),w
  5162  03F4  00CC               	movwf	sprintf@c^(0+128)
  5163  03F5                     l262:	
  5164                           
  5165                           ;doprnt.c: 1241: prec -= (int)c;
  5166  03F5  084C               	movf	sprintf@c^(0+128),w
  5167  03F6  00AE               	movwf	??_sprintf^(0+128)
  5168  03F7  01AF               	clrf	(??_sprintf^(0+128)+1)
  5169  03F8  082E               	movf	??_sprintf^(0+128),w
  5170  03F9  02C6               	subwf	sprintf@prec^(0+128),f
  5171  03FA  082F               	movf	(??_sprintf+1)^(0+128),w
  5172  03FB  3BC7               	subwfb	(sprintf@prec+1)^(0+128),f
  5173  03FC                     l3225:	
  5174                           
  5175                           ;doprnt.c: 1245: if(c)
  5176  03FC  084C               	movf	sprintf@c^(0+128),w
  5177  03FD  1903               	btfsc	3,2
  5178  03FE  2C00               	goto	u4741
  5179  03FF  2C01               	goto	u4740
  5180  0400                     u4741:	
  5181  0400  2C0D               	goto	l3231
  5182  0401                     u4740:	
  5183  0401                     l3227:	
  5184                           
  5185                           ;doprnt.c: 1247: ((*sp++ = ('.')));
  5186  0401  302E               	movlw	46
  5187  0402  00AE               	movwf	??_sprintf^(0+128)
  5188  0403  0845               	movf	sprintf@sp^(0+128),w
  5189  0404  0086               	movwf	6
  5190  0405  3001               	movlw	1	; select bank2/3
  5191  0406  0087               	movwf	7
  5192  0407  082E               	movf	??_sprintf^(0+128),w
  5193  0408  0081               	movwf	1
  5194  0409                     l3229:	
  5195  0409  3001               	movlw	1
  5196  040A  00AE               	movwf	??_sprintf^(0+128)
  5197  040B  082E               	movf	??_sprintf^(0+128),w
  5198  040C  07C5               	addwf	sprintf@sp^(0+128),f
  5199  040D                     l3231:	
  5200                           
  5201                           ;doprnt.c: 1253: val = (unsigned long)(fval * scale((signed char)c));
  5202  040D  084C               	movf	sprintf@c^(0+128),w
  5203  040E  3185  2556  3180   	fcall	_scale
  5204  0411  0020               	movlb	0	; select bank0
  5205  0412  0841               	movf	?_scale+3,w
  5206  0413  0021               	movlb	1	; select bank1
  5207  0414  00B7               	movwf	(_sprintf$1151+3)^(0+128)
  5208  0415  0020               	movlb	0	; select bank0
  5209  0416  0840               	movf	?_scale+2,w
  5210  0417  0021               	movlb	1	; select bank1
  5211  0418  00B6               	movwf	(_sprintf$1151+2)^(0+128)
  5212  0419  0020               	movlb	0	; select bank0
  5213  041A  083F               	movf	?_scale+1,w
  5214  041B  0021               	movlb	1	; select bank1
  5215  041C  00B5               	movwf	(_sprintf$1151+1)^(0+128)
  5216  041D  0020               	movlb	0	; select bank0
  5217  041E  083E               	movf	?_scale,w
  5218  041F  0021               	movlb	1	; select bank1
  5219  0420  00B4               	movwf	_sprintf$1151^(0+128)
  5220  0421                     l3233:	
  5221                           
  5222                           ;doprnt.c: 1253: val = (unsigned long)(fval * scale((signed char)c));
  5223  0421  0837               	movf	(_sprintf$1151+3)^(0+128),w
  5224  0422  0020               	movlb	0	; select bank0
  5225  0423  00AB               	movwf	___flmul@a+3
  5226  0424  0021               	movlb	1	; select bank1
  5227  0425  0836               	movf	(_sprintf$1151+2)^(0+128),w
  5228  0426  0020               	movlb	0	; select bank0
  5229  0427  00AA               	movwf	___flmul@a+2
  5230  0428  0021               	movlb	1	; select bank1
  5231  0429  0835               	movf	(_sprintf$1151+1)^(0+128),w
  5232  042A  0020               	movlb	0	; select bank0
  5233  042B  00A9               	movwf	___flmul@a+1
  5234  042C  0021               	movlb	1	; select bank1
  5235  042D  0834               	movf	_sprintf$1151^(0+128),w
  5236  042E  0020               	movlb	0	; select bank0
  5237  042F  00A8               	movwf	___flmul@a
  5238  0430  0021               	movlb	1	; select bank1
  5239  0431  084B               	movf	(sprintf@fval+3)^(0+128),w
  5240  0432  0020               	movlb	0	; select bank0
  5241  0433  00A7               	movwf	___flmul@b+3
  5242  0434  0021               	movlb	1	; select bank1
  5243  0435  084A               	movf	(sprintf@fval+2)^(0+128),w
  5244  0436  0020               	movlb	0	; select bank0
  5245  0437  00A6               	movwf	___flmul@b+2
  5246  0438  0021               	movlb	1	; select bank1
  5247  0439  0849               	movf	(sprintf@fval+1)^(0+128),w
  5248  043A  0020               	movlb	0	; select bank0
  5249  043B  00A5               	movwf	___flmul@b+1
  5250  043C  0021               	movlb	1	; select bank1
  5251  043D  0848               	movf	sprintf@fval^(0+128),w
  5252  043E  0020               	movlb	0	; select bank0
  5253  043F  00A4               	movwf	___flmul@b
  5254  0440  318D  25A9  3180   	fcall	___flmul
  5255  0443  0020               	movlb	0	; select bank0
  5256  0444  0827               	movf	?___flmul+3,w
  5257  0445  00D6               	movwf	___fltol@f1+3
  5258  0446  0826               	movf	?___flmul+2,w
  5259  0447  00D5               	movwf	___fltol@f1+2
  5260  0448  0825               	movf	?___flmul+1,w
  5261  0449  00D4               	movwf	___fltol@f1+1
  5262  044A  0824               	movf	?___flmul,w
  5263  044B  00D3               	movwf	___fltol@f1
  5264  044C  3194  2440  3180   	fcall	___fltol
  5265  044F  0020               	movlb	0	; select bank0
  5266  0450  0856               	movf	?___fltol+3,w
  5267  0451  0021               	movlb	1	; select bank1
  5268  0452  00BE               	movwf	(sprintf@val+3)^(0+128)
  5269  0453  0020               	movlb	0	; select bank0
  5270  0454  0855               	movf	?___fltol+2,w
  5271  0455  0021               	movlb	1	; select bank1
  5272  0456  00BD               	movwf	(sprintf@val+2)^(0+128)
  5273  0457  0020               	movlb	0	; select bank0
  5274  0458  0854               	movf	?___fltol+1,w
  5275  0459  0021               	movlb	1	; select bank1
  5276  045A  00BC               	movwf	(sprintf@val+1)^(0+128)
  5277  045B  0020               	movlb	0	; select bank0
  5278  045C  0853               	movf	?___fltol,w
  5279  045D  0021               	movlb	1	; select bank1
  5280  045E  00BB               	movwf	sprintf@val^(0+128)
  5281                           
  5282                           ;doprnt.c: 1254: while(c--) {
  5283  045F  2CDB               	goto	l3245
  5284  0460                     l3235:	
  5285                           
  5286                           ;doprnt.c: 1255: tmpval.vd = val/dpowers[c];
  5287  0460  084C               	movf	sprintf@c^(0+128),w
  5288  0461  00AE               	movwf	??_sprintf^(0+128)
  5289  0462  01AF               	clrf	(??_sprintf^(0+128)+1)
  5290  0463  35AE               	lslf	??_sprintf^(0+128),f
  5291  0464  0DAF               	rlf	(??_sprintf^(0+128)+1),f
  5292  0465  35AE               	lslf	??_sprintf^(0+128),f
  5293  0466  0DAF               	rlf	(??_sprintf^(0+128)+1),f
  5294  0467  3068               	movlw	low (_dpowers| (0+32768))
  5295  0468  072E               	addwf	??_sprintf^(0+128),w
  5296  0469  0084               	movwf	4
  5297  046A  3098               	movlw	high (_dpowers| (0+32768))
  5298  046B  3D2F               	addwfc	(??_sprintf+1)^(0+128),w
  5299  046C  0085               	movwf	5
  5300  046D  3F00               	moviw [0]fsr0
  5301  046E  00F0               	movwf	___lldiv@divisor
  5302  046F  3F01               	moviw [1]fsr0
  5303  0470  00F1               	movwf	___lldiv@divisor+1
  5304  0471  3F02               	moviw [2]fsr0
  5305  0472  00F2               	movwf	___lldiv@divisor+2
  5306  0473  3F03               	moviw [3]fsr0
  5307  0474  00F3               	movwf	___lldiv@divisor+3
  5308  0475  083E               	movf	(sprintf@val+3)^(0+128),w
  5309  0476  00F7               	movwf	___lldiv@dividend+3
  5310  0477  083D               	movf	(sprintf@val+2)^(0+128),w
  5311  0478  00F6               	movwf	___lldiv@dividend+2
  5312  0479  083C               	movf	(sprintf@val+1)^(0+128),w
  5313  047A  00F5               	movwf	___lldiv@dividend+1
  5314  047B  083B               	movf	sprintf@val^(0+128),w
  5315  047C  00F4               	movwf	___lldiv@dividend
  5316  047D  3193  2386  3180   	fcall	___lldiv
  5317  0480  0873               	movf	?___lldiv+3,w
  5318  0481  0021               	movlb	1	; select bank1
  5319  0482  00C4               	movwf	(sprintf@tmpval+3)^(0+128)
  5320  0483  0872               	movf	?___lldiv+2,w
  5321  0484  00C3               	movwf	(sprintf@tmpval+2)^(0+128)
  5322  0485  0871               	movf	?___lldiv+1,w
  5323  0486  00C2               	movwf	(sprintf@tmpval+1)^(0+128)
  5324  0487  0870               	movf	?___lldiv,w
  5325  0488  00C1               	movwf	sprintf@tmpval^(0+128)
  5326  0489                     l3237:	
  5327                           
  5328                           ;doprnt.c: 1256: tmpval.vd %= 10;
  5329  0489  3000               	movlw	0
  5330  048A  00F3               	movwf	___llmod@divisor+3
  5331  048B  3000               	movlw	0
  5332  048C  00F2               	movwf	___llmod@divisor+2
  5333  048D  3000               	movlw	0
  5334  048E  00F1               	movwf	___llmod@divisor+1
  5335  048F  300A               	movlw	10
  5336  0490  00F0               	movwf	___llmod@divisor
  5337  0491  0844               	movf	(sprintf@tmpval+3)^(0+128),w
  5338  0492  00F7               	movwf	___llmod@dividend+3
  5339  0493  0843               	movf	(sprintf@tmpval+2)^(0+128),w
  5340  0494  00F6               	movwf	___llmod@dividend+2
  5341  0495  0842               	movf	(sprintf@tmpval+1)^(0+128),w
  5342  0496  00F5               	movwf	___llmod@dividend+1
  5343  0497  0841               	movf	sprintf@tmpval^(0+128),w
  5344  0498  00F4               	movwf	___llmod@dividend
  5345  0499  3192  229B  3180   	fcall	___llmod
  5346  049C  0873               	movf	?___llmod+3,w
  5347  049D  0021               	movlb	1	; select bank1
  5348  049E  00C4               	movwf	(sprintf@tmpval+3)^(0+128)
  5349  049F  0872               	movf	?___llmod+2,w
  5350  04A0  00C3               	movwf	(sprintf@tmpval+2)^(0+128)
  5351  04A1  0871               	movf	?___llmod+1,w
  5352  04A2  00C2               	movwf	(sprintf@tmpval+1)^(0+128)
  5353  04A3  0870               	movf	?___llmod,w
  5354  04A4  00C1               	movwf	sprintf@tmpval^(0+128)
  5355  04A5                     l3239:	
  5356                           
  5357                           ;doprnt.c: 1257: ((*sp++ = ('0' + tmpval.vd)));
  5358  04A5  0841               	movf	sprintf@tmpval^(0+128),w
  5359  04A6  3E30               	addlw	48
  5360  04A7  00AE               	movwf	??_sprintf^(0+128)
  5361  04A8  0845               	movf	sprintf@sp^(0+128),w
  5362  04A9  0086               	movwf	6
  5363  04AA  3001               	movlw	1	; select bank2/3
  5364  04AB  0087               	movwf	7
  5365  04AC  082E               	movf	??_sprintf^(0+128),w
  5366  04AD  0081               	movwf	1
  5367  04AE                     l3241:	
  5368  04AE  3001               	movlw	1
  5369  04AF  00AE               	movwf	??_sprintf^(0+128)
  5370  04B0  082E               	movf	??_sprintf^(0+128),w
  5371  04B1  07C5               	addwf	sprintf@sp^(0+128),f
  5372  04B2                     l3243:	
  5373                           
  5374                           ;doprnt.c: 1258: val %= dpowers[c];
  5375  04B2  084C               	movf	sprintf@c^(0+128),w
  5376  04B3  00AE               	movwf	??_sprintf^(0+128)
  5377  04B4  01AF               	clrf	(??_sprintf^(0+128)+1)
  5378  04B5  35AE               	lslf	??_sprintf^(0+128),f
  5379  04B6  0DAF               	rlf	(??_sprintf^(0+128)+1),f
  5380  04B7  35AE               	lslf	??_sprintf^(0+128),f
  5381  04B8  0DAF               	rlf	(??_sprintf^(0+128)+1),f
  5382  04B9  3068               	movlw	low (_dpowers| (0+32768))
  5383  04BA  072E               	addwf	??_sprintf^(0+128),w
  5384  04BB  0084               	movwf	4
  5385  04BC  3098               	movlw	high (_dpowers| (0+32768))
  5386  04BD  3D2F               	addwfc	(??_sprintf+1)^(0+128),w
  5387  04BE  0085               	movwf	5
  5388  04BF  3F00               	moviw [0]fsr0
  5389  04C0  00F0               	movwf	___llmod@divisor
  5390  04C1  3F01               	moviw [1]fsr0
  5391  04C2  00F1               	movwf	___llmod@divisor+1
  5392  04C3  3F02               	moviw [2]fsr0
  5393  04C4  00F2               	movwf	___llmod@divisor+2
  5394  04C5  3F03               	moviw [3]fsr0
  5395  04C6  00F3               	movwf	___llmod@divisor+3
  5396  04C7  083E               	movf	(sprintf@val+3)^(0+128),w
  5397  04C8  00F7               	movwf	___llmod@dividend+3
  5398  04C9  083D               	movf	(sprintf@val+2)^(0+128),w
  5399  04CA  00F6               	movwf	___llmod@dividend+2
  5400  04CB  083C               	movf	(sprintf@val+1)^(0+128),w
  5401  04CC  00F5               	movwf	___llmod@dividend+1
  5402  04CD  083B               	movf	sprintf@val^(0+128),w
  5403  04CE  00F4               	movwf	___llmod@dividend
  5404  04CF  3192  229B  3180   	fcall	___llmod
  5405  04D2  0873               	movf	?___llmod+3,w
  5406  04D3  0021               	movlb	1	; select bank1
  5407  04D4  00BE               	movwf	(sprintf@val+3)^(0+128)
  5408  04D5  0872               	movf	?___llmod+2,w
  5409  04D6  00BD               	movwf	(sprintf@val+2)^(0+128)
  5410  04D7  0871               	movf	?___llmod+1,w
  5411  04D8  00BC               	movwf	(sprintf@val+1)^(0+128)
  5412  04D9  0870               	movf	?___llmod,w
  5413  04DA  00BB               	movwf	sprintf@val^(0+128)
  5414  04DB                     l3245:	
  5415  04DB  3001               	movlw	1
  5416  04DC  02CC               	subwf	sprintf@c^(0+128),f
  5417  04DD  0A4C               	incf	sprintf@c^(0+128),w
  5418  04DE  1D03               	btfss	3,2
  5419  04DF  2CE1               	goto	u4751
  5420  04E0  2CE2               	goto	u4750
  5421  04E1                     u4751:	
  5422  04E1  2C60               	goto	l3235
  5423  04E2                     u4750:	
  5424  04E2  2CF3               	goto	l3253
  5425  04E3                     l3247:	
  5426                           
  5427                           ;doprnt.c: 1262: ((*sp++ = ('0')));
  5428  04E3  3030               	movlw	48
  5429  04E4  00AE               	movwf	??_sprintf^(0+128)
  5430  04E5  0845               	movf	sprintf@sp^(0+128),w
  5431  04E6  0086               	movwf	6
  5432  04E7  3001               	movlw	1	; select bank2/3
  5433  04E8  0087               	movwf	7
  5434  04E9  082E               	movf	??_sprintf^(0+128),w
  5435  04EA  0081               	movwf	1
  5436  04EB                     l3249:	
  5437  04EB  3001               	movlw	1
  5438  04EC  00AE               	movwf	??_sprintf^(0+128)
  5439  04ED  082E               	movf	??_sprintf^(0+128),w
  5440  04EE  07C5               	addwf	sprintf@sp^(0+128),f
  5441  04EF                     l3251:	
  5442                           
  5443                           ;doprnt.c: 1263: prec--;
  5444  04EF  30FF               	movlw	255
  5445  04F0  07C6               	addwf	sprintf@prec^(0+128),f
  5446  04F1  30FF               	movlw	255
  5447  04F2  3DC7               	addwfc	(sprintf@prec+1)^(0+128),f
  5448  04F3                     l3253:	
  5449  04F3  0846               	movf	sprintf@prec^(0+128),w
  5450  04F4  0447               	iorwf	(sprintf@prec+1)^(0+128),w
  5451  04F5  1D03               	btfss	3,2
  5452  04F6  2CF8               	goto	u4761
  5453  04F7  2CF9               	goto	u4760
  5454  04F8                     u4761:	
  5455  04F8  2CE3               	goto	l3247
  5456  04F9                     u4760:	
  5457  04F9  2D3C               	goto	l3273
  5458  04FA                     l3255:	
  5459                           
  5460                           ;doprnt.c: 1272: };doprnt.c: 1316: if(prec == 0 && val == 0)
  5461  04FA  0846               	movf	sprintf@prec^(0+128),w
  5462  04FB  0447               	iorwf	(sprintf@prec+1)^(0+128),w
  5463  04FC  1D03               	btfss	3,2
  5464  04FD  2CFF               	goto	u4771
  5465  04FE  2D00               	goto	u4770
  5466  04FF                     u4771:	
  5467  04FF  2D0C               	goto	l270
  5468  0500                     u4770:	
  5469  0500                     l3257:	
  5470  0500  083E               	movf	(sprintf@val+3)^(0+128),w
  5471  0501  043D               	iorwf	(sprintf@val+2)^(0+128),w
  5472  0502  043C               	iorwf	(sprintf@val+1)^(0+128),w
  5473  0503  043B               	iorwf	sprintf@val^(0+128),w
  5474  0504  1D03               	skipz
  5475  0505  2D07               	goto	u4781
  5476  0506  2D08               	goto	u4780
  5477  0507                     u4781:	
  5478  0507  2D0C               	goto	l270
  5479  0508                     u4780:	
  5480  0508                     l3259:	
  5481                           
  5482                           ;doprnt.c: 1317: prec++;
  5483  0508  3001               	movlw	1
  5484  0509  07C6               	addwf	sprintf@prec^(0+128),f
  5485  050A  3000               	movlw	0
  5486  050B  3DC7               	addwfc	(sprintf@prec+1)^(0+128),f
  5487  050C                     l270:	
  5488                           
  5489                           ;doprnt.c: 1365: if(c < prec)
  5490  050C  0847               	movf	(sprintf@prec+1)^(0+128),w
  5491  050D  3A80               	xorlw	128
  5492  050E  3C80               	sublw	128
  5493  050F  1D03               	skipz
  5494  0510  2D13               	goto	u4795
  5495  0511  0846               	movf	sprintf@prec^(0+128),w
  5496  0512  024C               	subwf	sprintf@c^(0+128),w
  5497  0513                     u4795:	
  5498  0513  1803               	skipnc
  5499  0514  2D16               	goto	u4791
  5500  0515  2D17               	goto	u4790
  5501  0516                     u4791:	
  5502  0516  2D18               	goto	l3263
  5503  0517                     u4790:	
  5504  0517                     l3261:	
  5505  0517  2D26               	goto	l3267
  5506  0518                     l3263:	
  5507                           
  5508                           ;doprnt.c: 1367: else if(prec < c)
  5509  0518  0021               	movlb	1	; select bank1
  5510  0519  0847               	movf	(sprintf@prec+1)^(0+128),w
  5511  051A  3A80               	xorlw	128
  5512  051B  00AE               	movwf	??_sprintf^(0+128)
  5513  051C  3080               	movlw	128
  5514  051D  022E               	subwf	??_sprintf^(0+128),w
  5515  051E  1D03               	skipz
  5516  051F  2D22               	goto	u4805
  5517  0520  084C               	movf	sprintf@c^(0+128),w
  5518  0521  0246               	subwf	sprintf@prec^(0+128),w
  5519  0522                     u4805:	
  5520  0522  1803               	skipnc
  5521  0523  2D25               	goto	u4801
  5522  0524  2D26               	goto	u4800
  5523  0525                     u4801:	
  5524  0525  2D26               	goto	l3267
  5525  0526                     u4800:	
  5526  0526                     l3265:	
  5527  0526                     l3267:	
  5528                           
  5529                           ;doprnt.c: 1448: {;doprnt.c: 1464: if(flag & 0x03)
  5530  0526  3003               	movlw	3
  5531  0527  0021               	movlb	1	; select bank1
  5532  0528  0539               	andwf	sprintf@flag^(0+128),w
  5533  0529  00AE               	movwf	??_sprintf^(0+128)
  5534  052A  3000               	movlw	0
  5535  052B  053A               	andwf	(sprintf@flag+1)^(0+128),w
  5536  052C  00AF               	movwf	(??_sprintf+1)^(0+128)
  5537  052D  082E               	movf	??_sprintf^(0+128),w
  5538  052E  042F               	iorwf	(??_sprintf^(0+128)+1),w
  5539  052F  1903               	btfsc	3,2
  5540  0530  2D32               	goto	u4811
  5541  0531  2D33               	goto	u4810
  5542  0532                     u4811:	
  5543  0532  2D3C               	goto	l3273
  5544  0533                     u4810:	
  5545  0533                     l3269:	
  5546                           
  5547                           ;doprnt.c: 1465: ((*sp++ = ('-')));
  5548  0533  302D               	movlw	45
  5549  0534  00AE               	movwf	??_sprintf^(0+128)
  5550  0535  0845               	movf	sprintf@sp^(0+128),w
  5551  0536  0086               	movwf	6
  5552  0537  3001               	movlw	1	; select bank2/3
  5553  0538  0087               	movwf	7
  5554  0539  082E               	movf	??_sprintf^(0+128),w
  5555  053A  0081               	movwf	1
  5556  053B  2858               	goto	l3083
  5557  053C                     l3273:	
  5558  053C  0829               	movf	(sprintf@f+1)^(0+128),w
  5559  053D  00AF               	movwf	(??_sprintf^(0+128)+1)
  5560  053E  0828               	movf	sprintf@f^(0+128),w
  5561  053F  00AE               	movwf	??_sprintf^(0+128)
  5562  0540  0AA8               	incf	sprintf@f^(0+128),f
  5563  0541  1903               	skipnz
  5564  0542  0AA9               	incf	(sprintf@f+1)^(0+128),f
  5565  0543  082E               	movf	??_sprintf^(0+128),w
  5566  0544  0084               	movwf	4
  5567  0545  082F               	movf	(??_sprintf+1)^(0+128),w
  5568  0546  0085               	movwf	5
  5569  0547  0800               	movf	0,w	;code access
  5570  0548  00B0               	movwf	(??_sprintf+2)^(0+128)
  5571  0549  0830               	movf	(??_sprintf+2)^(0+128),w
  5572  054A  00CC               	movwf	sprintf@c^(0+128)
  5573  054B  084C               	movf	sprintf@c^(0+128),w
  5574  054C  1D03               	btfss	3,2
  5575  054D  2D4F               	goto	u4821
  5576  054E  2D50               	goto	u4820
  5577  054F                     u4821:	
  5578  054F  284A               	goto	l3079
  5579  0550                     u4820:	
  5580  0550                     l3275:	
  5581                           
  5582                           ;doprnt.c: 1564: *sp = 0;
  5583  0550  0845               	movf	sprintf@sp^(0+128),w
  5584  0551  0086               	movwf	6
  5585  0552  3001               	movlw	1	; select bank2/3
  5586  0553  0087               	movwf	7
  5587  0554  0181               	clrf	1
  5588  0555                     l276:	
  5589  0555  0008               	return
  5590  0556                     __end_of_sprintf:	
  5591                           
  5592                           	psect	text2
  5593  0556                     __ptext2:	
  5594 ;; *************** function _scale *****************
  5595 ;; Defined at:
  5596 ;;		line 433 in file "C:\Program Files (x86)\Microchip\xc8\v2.10\pic\sources\c90\common\doprnt.c"
  5597 ;; Parameters:    Size  Location     Type
  5598 ;;  scl             1    wreg     char 
  5599 ;; Auto vars:     Size  Location     Type
  5600 ;;  scl             1   50[BANK0 ] char 
  5601 ;; Return value:  Size  Location     Type
  5602 ;;                  4   30[BANK0 ] char 
  5603 ;; Registers used:
  5604 ;;		wreg, fsr0l, fsr0h, status,2, status,0, pclath, cstack
  5605 ;; Tracked objects:
  5606 ;;		On entry : 0/0
  5607 ;;		On exit  : 0/0
  5608 ;;		Unchanged: 0/0
  5609 ;; Data sizes:     COMMON   BANK0   BANK1   BANK2   BANK3   BANK4   BANK5   BANK6   BANK7   BANK8   BANK9  BANK10  BANK1
      +1  BANK12
  5610 ;;      Params:         0       4       0       0       0       0       0       0       0       0       0       0       
      +0       0
  5611 ;;      Locals:         0       5       0       0       0       0       0       0       0       0       0       0       
      +0       0
  5612 ;;      Temps:          0      12       0       0       0       0       0       0       0       0       0       0       
      +0       0
  5613 ;;      Totals:         0      21       0       0       0       0       0       0       0       0       0       0       
      +0       0
  5614 ;;Total ram usage:       21 bytes
  5615 ;; Hardware stack levels used:    1
  5616 ;; Hardware stack levels required when called:    3
  5617 ;; This function calls:
  5618 ;;		___awdiv
  5619 ;;		___awmod
  5620 ;;		___flmul
  5621 ;; This function is called by:
  5622 ;;		_sprintf
  5623 ;; This function uses a non-reentrant model
  5624 ;;
  5625                           
  5626                           
  5627                           ;psect for function _scale
  5628  0556                     _scale:	
  5629                           
  5630                           ;incstack = 0
  5631                           ; Regs used in _scale: [wreg-fsr0h+status,2+status,0+pclath+cstack]
  5632                           ;scale@scl stored from wreg
  5633  0556  0020               	movlb	0	; select bank0
  5634  0557  00D2               	movwf	scale@scl
  5635  0558                     l2651:	
  5636                           
  5637                           ;doprnt.c: 436: if(scl < 0) {
  5638  0558  1FD2               	btfss	scale@scl,7
  5639  0559  2D5B               	goto	u3651
  5640  055A  2D5C               	goto	u3650
  5641  055B                     u3651:	
  5642  055B  2E98               	goto	l2673
  5643  055C                     u3650:	
  5644  055C                     l2653:	
  5645                           
  5646                           ;doprnt.c: 437: scl = -scl;
  5647  055C  09D2               	comf	scale@scl,f
  5648  055D  0AD2               	incf	scale@scl,f
  5649  055E                     l2655:	
  5650                           
  5651                           ;doprnt.c: 438: if(scl>=110)
  5652  055E  0852               	movf	scale@scl,w
  5653  055F  3A80               	xorlw	128
  5654  0560  3E12               	addlw	-238
  5655  0561  1C03               	skipc
  5656  0562  2D64               	goto	u3661
  5657  0563  2D65               	goto	u3660
  5658  0564                     u3661:	
  5659  0564  2E11               	goto	l2663
  5660  0565                     u3660:	
  5661  0565                     l2657:	
  5662                           
  5663                           ;doprnt.c: 439: return _npowers_[(unsigned char)(scl/100+18)] * _npowers_[(unsigned char
      +                          )((scl%100)/10+9)] * _npowers_[(unsigned char)(scl%10)];
  5664  0565  300A               	movlw	10
  5665  0566  00F7               	movwf	___awdiv@divisor
  5666  0567  3000               	movlw	0
  5667  0568  00F8               	movwf	___awdiv@divisor+1
  5668  0569  0852               	movf	scale@scl,w
  5669  056A  00F2               	movwf	___awmod@dividend
  5670  056B  01F3               	clrf	___awmod@dividend+1
  5671  056C  1BF2               	btfsc	___awmod@dividend,7
  5672  056D  03F3               	decf	___awmod@dividend+1,f
  5673  056E  3064               	movlw	100
  5674  056F  00F0               	movwf	___awmod@divisor
  5675  0570  3000               	movlw	0
  5676  0571  00F1               	movwf	___awmod@divisor+1
  5677  0572  3193  2333  3185   	fcall	___awmod
  5678  0575  0871               	movf	?___awmod+1,w
  5679  0576  00FA               	movwf	___awdiv@dividend+1
  5680  0577  0870               	movf	?___awmod,w
  5681  0578  00F9               	movwf	___awdiv@dividend
  5682  0579  3193  23E0  3185   	fcall	___awdiv
  5683  057C  0877               	movf	?___awdiv,w
  5684  057D  3E09               	addlw	9
  5685  057E  0020               	movlb	0	; select bank0
  5686  057F  00C2               	movwf	??_scale
  5687  0580  01C3               	clrf	??_scale+1
  5688  0581  35C2               	lslf	??_scale,f
  5689  0582  0DC3               	rlf	??_scale+1,f
  5690  0583  35C2               	lslf	??_scale,f
  5691  0584  0DC3               	rlf	??_scale+1,f
  5692  0585  3034               	movlw	low (__npowers_| (0+32768))
  5693  0586  0742               	addwf	??_scale,w
  5694  0587  0084               	movwf	4
  5695  0588  3098               	movlw	high (__npowers_| (0+32768))
  5696  0589  3D43               	addwfc	??_scale+1,w
  5697  058A  0085               	movwf	5
  5698  058B  3F00               	moviw [0]fsr0
  5699  058C  00C4               	movwf	??_scale+2
  5700  058D  3F01               	moviw [1]fsr0
  5701  058E  00C5               	movwf	??_scale+3
  5702  058F  3F02               	moviw [2]fsr0
  5703  0590  00C6               	movwf	??_scale+4
  5704  0591  3F03               	moviw [3]fsr0
  5705  0592  00C7               	movwf	??_scale+5
  5706  0593  0847               	movf	??_scale+5,w
  5707  0594  00A7               	movwf	___flmul@b+3
  5708  0595  0846               	movf	??_scale+4,w
  5709  0596  00A6               	movwf	___flmul@b+2
  5710  0597  0845               	movf	??_scale+3,w
  5711  0598  00A5               	movwf	___flmul@b+1
  5712  0599  0844               	movf	??_scale+2,w
  5713  059A  00A4               	movwf	___flmul@b
  5714  059B  3064               	movlw	100
  5715  059C  00F7               	movwf	___awdiv@divisor
  5716  059D  3000               	movlw	0
  5717  059E  00F8               	movwf	___awdiv@divisor+1
  5718  059F  0852               	movf	scale@scl,w
  5719  05A0  00F9               	movwf	___awdiv@dividend
  5720  05A1  01FA               	clrf	___awdiv@dividend+1
  5721  05A2  1BF9               	btfsc	___awdiv@dividend,7
  5722  05A3  03FA               	decf	___awdiv@dividend+1,f
  5723  05A4  3193  23E0  3185   	fcall	___awdiv
  5724  05A7  0877               	movf	?___awdiv,w
  5725  05A8  3E12               	addlw	18
  5726  05A9  0020               	movlb	0	; select bank0
  5727  05AA  00C8               	movwf	??_scale+6
  5728  05AB  01C9               	clrf	??_scale+7
  5729  05AC  35C8               	lslf	??_scale+6,f
  5730  05AD  0DC9               	rlf	??_scale+7,f
  5731  05AE  35C8               	lslf	??_scale+6,f
  5732  05AF  0DC9               	rlf	??_scale+7,f
  5733  05B0  3034               	movlw	low (__npowers_| (0+32768))
  5734  05B1  0748               	addwf	??_scale+6,w
  5735  05B2  0084               	movwf	4
  5736  05B3  3098               	movlw	high (__npowers_| (0+32768))
  5737  05B4  3D49               	addwfc	??_scale+7,w
  5738  05B5  0085               	movwf	5
  5739  05B6  3F00               	moviw [0]fsr0
  5740  05B7  00CA               	movwf	??_scale+8
  5741  05B8  3F01               	moviw [1]fsr0
  5742  05B9  00CB               	movwf	??_scale+9
  5743  05BA  3F02               	moviw [2]fsr0
  5744  05BB  00CC               	movwf	??_scale+10
  5745  05BC  3F03               	moviw [3]fsr0
  5746  05BD  00CD               	movwf	??_scale+11
  5747  05BE  084D               	movf	??_scale+11,w
  5748  05BF  00AB               	movwf	___flmul@a+3
  5749  05C0  084C               	movf	??_scale+10,w
  5750  05C1  00AA               	movwf	___flmul@a+2
  5751  05C2  084B               	movf	??_scale+9,w
  5752  05C3  00A9               	movwf	___flmul@a+1
  5753  05C4  084A               	movf	??_scale+8,w
  5754  05C5  00A8               	movwf	___flmul@a
  5755  05C6  318D  25A9  3185   	fcall	___flmul
  5756  05C9  0020               	movlb	0	; select bank0
  5757  05CA  0827               	movf	?___flmul+3,w
  5758  05CB  00D1               	movwf	_scale$1150+3
  5759  05CC  0826               	movf	?___flmul+2,w
  5760  05CD  00D0               	movwf	_scale$1150+2
  5761  05CE  0825               	movf	?___flmul+1,w
  5762  05CF  00CF               	movwf	_scale$1150+1
  5763  05D0  0824               	movf	?___flmul,w
  5764  05D1  00CE               	movwf	_scale$1150
  5765                           
  5766                           ;doprnt.c: 439: return _npowers_[(unsigned char)(scl/100+18)] * _npowers_[(unsigned char
      +                          )((scl%100)/10+9)] * _npowers_[(unsigned char)(scl%10)];
  5767  05D2  300A               	movlw	10
  5768  05D3  00F0               	movwf	___awmod@divisor
  5769  05D4  3000               	movlw	0
  5770  05D5  00F1               	movwf	___awmod@divisor+1
  5771  05D6  0852               	movf	scale@scl,w
  5772  05D7  00F2               	movwf	___awmod@dividend
  5773  05D8  01F3               	clrf	___awmod@dividend+1
  5774  05D9  1BF2               	btfsc	___awmod@dividend,7
  5775  05DA  03F3               	decf	___awmod@dividend+1,f
  5776  05DB  3193  2333  3185   	fcall	___awmod
  5777  05DE  0870               	movf	?___awmod,w
  5778  05DF  0020               	movlb	0	; select bank0
  5779  05E0  00C2               	movwf	??_scale
  5780  05E1  01C3               	clrf	??_scale+1
  5781  05E2  35C2               	lslf	??_scale,f
  5782  05E3  0DC3               	rlf	??_scale+1,f
  5783  05E4  35C2               	lslf	??_scale,f
  5784  05E5  0DC3               	rlf	??_scale+1,f
  5785  05E6  3034               	movlw	low (__npowers_| (0+32768))
  5786  05E7  0742               	addwf	??_scale,w
  5787  05E8  0084               	movwf	4
  5788  05E9  3098               	movlw	high (__npowers_| (0+32768))
  5789  05EA  3D43               	addwfc	??_scale+1,w
  5790  05EB  0085               	movwf	5
  5791  05EC  3F00               	moviw [0]fsr0
  5792  05ED  00C4               	movwf	??_scale+2
  5793  05EE  3F01               	moviw [1]fsr0
  5794  05EF  00C5               	movwf	??_scale+3
  5795  05F0  3F02               	moviw [2]fsr0
  5796  05F1  00C6               	movwf	??_scale+4
  5797  05F2  3F03               	moviw [3]fsr0
  5798  05F3  00C7               	movwf	??_scale+5
  5799  05F4  0847               	movf	??_scale+5,w
  5800  05F5  00A7               	movwf	___flmul@b+3
  5801  05F6  0846               	movf	??_scale+4,w
  5802  05F7  00A6               	movwf	___flmul@b+2
  5803  05F8  0845               	movf	??_scale+3,w
  5804  05F9  00A5               	movwf	___flmul@b+1
  5805  05FA  0844               	movf	??_scale+2,w
  5806  05FB  00A4               	movwf	___flmul@b
  5807  05FC  0851               	movf	_scale$1150+3,w
  5808  05FD  00AB               	movwf	___flmul@a+3
  5809  05FE  0850               	movf	_scale$1150+2,w
  5810  05FF  00AA               	movwf	___flmul@a+2
  5811  0600  084F               	movf	_scale$1150+1,w
  5812  0601  00A9               	movwf	___flmul@a+1
  5813  0602  084E               	movf	_scale$1150,w
  5814  0603  00A8               	movwf	___flmul@a
  5815  0604  318D  25A9  3185   	fcall	___flmul
  5816  0607  0020               	movlb	0	; select bank0
  5817  0608  0827               	movf	?___flmul+3,w
  5818  0609  00C1               	movwf	?_scale+3
  5819  060A  0826               	movf	?___flmul+2,w
  5820  060B  00C0               	movwf	?_scale+2
  5821  060C  0825               	movf	?___flmul+1,w
  5822  060D  00BF               	movwf	?_scale+1
  5823  060E  0824               	movf	?___flmul,w
  5824  060F  00BE               	movwf	?_scale
  5825  0610  2FD1               	goto	l210
  5826  0611                     l2663:	
  5827                           
  5828                           ;doprnt.c: 440: else if(scl > 10)
  5829  0611  0852               	movf	scale@scl,w
  5830  0612  3A80               	xorlw	128
  5831  0613  3E75               	addlw	-139
  5832  0614  1C03               	skipc
  5833  0615  2E17               	goto	u3671
  5834  0616  2E18               	goto	u3670
  5835  0617                     u3671:	
  5836  0617  2E7A               	goto	l2669
  5837  0618                     u3670:	
  5838  0618                     l2665:	
  5839                           
  5840                           ;doprnt.c: 441: return _npowers_[(unsigned char)(scl/10+9)] * _npowers_[(unsigned char)(
      +                          scl%10)];
  5841  0618  300A               	movlw	10
  5842  0619  00F0               	movwf	___awmod@divisor
  5843  061A  3000               	movlw	0
  5844  061B  00F1               	movwf	___awmod@divisor+1
  5845  061C  0852               	movf	scale@scl,w
  5846  061D  00F2               	movwf	___awmod@dividend
  5847  061E  01F3               	clrf	___awmod@dividend+1
  5848  061F  1BF2               	btfsc	___awmod@dividend,7
  5849  0620  03F3               	decf	___awmod@dividend+1,f
  5850  0621  3193  2333  3185   	fcall	___awmod
  5851  0624  0870               	movf	?___awmod,w
  5852  0625  0020               	movlb	0	; select bank0
  5853  0626  00C2               	movwf	??_scale
  5854  0627  01C3               	clrf	??_scale+1
  5855  0628  35C2               	lslf	??_scale,f
  5856  0629  0DC3               	rlf	??_scale+1,f
  5857  062A  35C2               	lslf	??_scale,f
  5858  062B  0DC3               	rlf	??_scale+1,f
  5859  062C  3034               	movlw	low (__npowers_| (0+32768))
  5860  062D  0742               	addwf	??_scale,w
  5861  062E  0084               	movwf	4
  5862  062F  3098               	movlw	high (__npowers_| (0+32768))
  5863  0630  3D43               	addwfc	??_scale+1,w
  5864  0631  0085               	movwf	5
  5865  0632  3F00               	moviw [0]fsr0
  5866  0633  00C4               	movwf	??_scale+2
  5867  0634  3F01               	moviw [1]fsr0
  5868  0635  00C5               	movwf	??_scale+3
  5869  0636  3F02               	moviw [2]fsr0
  5870  0637  00C6               	movwf	??_scale+4
  5871  0638  3F03               	moviw [3]fsr0
  5872  0639  00C7               	movwf	??_scale+5
  5873  063A  0847               	movf	??_scale+5,w
  5874  063B  00A7               	movwf	___flmul@b+3
  5875  063C  0846               	movf	??_scale+4,w
  5876  063D  00A6               	movwf	___flmul@b+2
  5877  063E  0845               	movf	??_scale+3,w
  5878  063F  00A5               	movwf	___flmul@b+1
  5879  0640  0844               	movf	??_scale+2,w
  5880  0641  00A4               	movwf	___flmul@b
  5881  0642  300A               	movlw	10
  5882  0643  00F7               	movwf	___awdiv@divisor
  5883  0644  3000               	movlw	0
  5884  0645  00F8               	movwf	___awdiv@divisor+1
  5885  0646  0852               	movf	scale@scl,w
  5886  0647  00F9               	movwf	___awdiv@dividend
  5887  0648  01FA               	clrf	___awdiv@dividend+1
  5888  0649  1BF9               	btfsc	___awdiv@dividend,7
  5889  064A  03FA               	decf	___awdiv@dividend+1,f
  5890  064B  3193  23E0  3185   	fcall	___awdiv
  5891  064E  0877               	movf	?___awdiv,w
  5892  064F  3E09               	addlw	9
  5893  0650  0020               	movlb	0	; select bank0
  5894  0651  00C8               	movwf	??_scale+6
  5895  0652  01C9               	clrf	??_scale+7
  5896  0653  35C8               	lslf	??_scale+6,f
  5897  0654  0DC9               	rlf	??_scale+7,f
  5898  0655  35C8               	lslf	??_scale+6,f
  5899  0656  0DC9               	rlf	??_scale+7,f
  5900  0657  3034               	movlw	low (__npowers_| (0+32768))
  5901  0658  0748               	addwf	??_scale+6,w
  5902  0659  0084               	movwf	4
  5903  065A  3098               	movlw	high (__npowers_| (0+32768))
  5904  065B  3D49               	addwfc	??_scale+7,w
  5905  065C  0085               	movwf	5
  5906  065D  3F00               	moviw [0]fsr0
  5907  065E  00CA               	movwf	??_scale+8
  5908  065F  3F01               	moviw [1]fsr0
  5909  0660  00CB               	movwf	??_scale+9
  5910  0661  3F02               	moviw [2]fsr0
  5911  0662  00CC               	movwf	??_scale+10
  5912  0663  3F03               	moviw [3]fsr0
  5913  0664  00CD               	movwf	??_scale+11
  5914  0665  084D               	movf	??_scale+11,w
  5915  0666  00AB               	movwf	___flmul@a+3
  5916  0667  084C               	movf	??_scale+10,w
  5917  0668  00AA               	movwf	___flmul@a+2
  5918  0669  084B               	movf	??_scale+9,w
  5919  066A  00A9               	movwf	___flmul@a+1
  5920  066B  084A               	movf	??_scale+8,w
  5921  066C  00A8               	movwf	___flmul@a
  5922  066D  318D  25A9  3185   	fcall	___flmul
  5923  0670  0020               	movlb	0	; select bank0
  5924  0671  0827               	movf	?___flmul+3,w
  5925  0672  00C1               	movwf	?_scale+3
  5926  0673  0826               	movf	?___flmul+2,w
  5927  0674  00C0               	movwf	?_scale+2
  5928  0675  0825               	movf	?___flmul+1,w
  5929  0676  00BF               	movwf	?_scale+1
  5930  0677  0824               	movf	?___flmul,w
  5931  0678  00BE               	movwf	?_scale
  5932  0679  2FD1               	goto	l210
  5933  067A                     l2669:	
  5934                           
  5935                           ;doprnt.c: 442: return _npowers_[(unsigned char)scl];
  5936  067A  0852               	movf	scale@scl,w
  5937  067B  00C2               	movwf	??_scale
  5938  067C  01C3               	clrf	??_scale+1
  5939  067D  35C2               	lslf	??_scale,f
  5940  067E  0DC3               	rlf	??_scale+1,f
  5941  067F  35C2               	lslf	??_scale,f
  5942  0680  0DC3               	rlf	??_scale+1,f
  5943  0681  3034               	movlw	low (__npowers_| (0+32768))
  5944  0682  0742               	addwf	??_scale,w
  5945  0683  0084               	movwf	4
  5946  0684  3098               	movlw	high (__npowers_| (0+32768))
  5947  0685  3D43               	addwfc	??_scale+1,w
  5948  0686  0085               	movwf	5
  5949  0687  3F00               	moviw [0]fsr0
  5950  0688  00C4               	movwf	??_scale+2
  5951  0689  3F01               	moviw [1]fsr0
  5952  068A  00C5               	movwf	??_scale+3
  5953  068B  3F02               	moviw [2]fsr0
  5954  068C  00C6               	movwf	??_scale+4
  5955  068D  3F03               	moviw [3]fsr0
  5956  068E  00C7               	movwf	??_scale+5
  5957  068F  0847               	movf	??_scale+5,w
  5958  0690  00C1               	movwf	?_scale+3
  5959  0691  0846               	movf	??_scale+4,w
  5960  0692  00C0               	movwf	?_scale+2
  5961  0693  0845               	movf	??_scale+3,w
  5962  0694  00BF               	movwf	?_scale+1
  5963  0695  0844               	movf	??_scale+2,w
  5964  0696  00BE               	movwf	?_scale
  5965  0697  2FD1               	goto	l210
  5966  0698                     l2673:	
  5967                           
  5968                           ;doprnt.c: 443: };doprnt.c: 444: if(scl>=110)
  5969  0698  0852               	movf	scale@scl,w
  5970  0699  3A80               	xorlw	128
  5971  069A  3E12               	addlw	-238
  5972  069B  1C03               	skipc
  5973  069C  2E9E               	goto	u3681
  5974  069D  2E9F               	goto	u3680
  5975  069E                     u3681:	
  5976  069E  2F4B               	goto	l2681
  5977  069F                     u3680:	
  5978  069F                     l2675:	
  5979                           
  5980                           ;doprnt.c: 445: return _powers_[(unsigned char)(scl/100+18)] * _powers_[(unsigned char)(
      +                          (scl%100)/10+9)] * _powers_[(unsigned char)(scl%10)];
  5981  069F  300A               	movlw	10
  5982  06A0  00F7               	movwf	___awdiv@divisor
  5983  06A1  3000               	movlw	0
  5984  06A2  00F8               	movwf	___awdiv@divisor+1
  5985  06A3  0852               	movf	scale@scl,w
  5986  06A4  00F2               	movwf	___awmod@dividend
  5987  06A5  01F3               	clrf	___awmod@dividend+1
  5988  06A6  1BF2               	btfsc	___awmod@dividend,7
  5989  06A7  03F3               	decf	___awmod@dividend+1,f
  5990  06A8  3064               	movlw	100
  5991  06A9  00F0               	movwf	___awmod@divisor
  5992  06AA  3000               	movlw	0
  5993  06AB  00F1               	movwf	___awmod@divisor+1
  5994  06AC  3193  2333  3185   	fcall	___awmod
  5995  06AF  0871               	movf	?___awmod+1,w
  5996  06B0  00FA               	movwf	___awdiv@dividend+1
  5997  06B1  0870               	movf	?___awmod,w
  5998  06B2  00F9               	movwf	___awdiv@dividend
  5999  06B3  3193  23E0  3185   	fcall	___awdiv
  6000  06B6  0877               	movf	?___awdiv,w
  6001  06B7  3E09               	addlw	9
  6002  06B8  0020               	movlb	0	; select bank0
  6003  06B9  00C2               	movwf	??_scale
  6004  06BA  01C3               	clrf	??_scale+1
  6005  06BB  35C2               	lslf	??_scale,f
  6006  06BC  0DC3               	rlf	??_scale+1,f
  6007  06BD  35C2               	lslf	??_scale,f
  6008  06BE  0DC3               	rlf	??_scale+1,f
  6009  06BF  3000               	movlw	low (__powers_| (0+32768))
  6010  06C0  0742               	addwf	??_scale,w
  6011  06C1  0084               	movwf	4
  6012  06C2  3098               	movlw	high (__powers_| (0+32768))
  6013  06C3  3D43               	addwfc	??_scale+1,w
  6014  06C4  0085               	movwf	5
  6015  06C5  3F00               	moviw [0]fsr0
  6016  06C6  00C4               	movwf	??_scale+2
  6017  06C7  3F01               	moviw [1]fsr0
  6018  06C8  00C5               	movwf	??_scale+3
  6019  06C9  3F02               	moviw [2]fsr0
  6020  06CA  00C6               	movwf	??_scale+4
  6021  06CB  3F03               	moviw [3]fsr0
  6022  06CC  00C7               	movwf	??_scale+5
  6023  06CD  0847               	movf	??_scale+5,w
  6024  06CE  00A7               	movwf	___flmul@b+3
  6025  06CF  0846               	movf	??_scale+4,w
  6026  06D0  00A6               	movwf	___flmul@b+2
  6027  06D1  0845               	movf	??_scale+3,w
  6028  06D2  00A5               	movwf	___flmul@b+1
  6029  06D3  0844               	movf	??_scale+2,w
  6030  06D4  00A4               	movwf	___flmul@b
  6031  06D5  3064               	movlw	100
  6032  06D6  00F7               	movwf	___awdiv@divisor
  6033  06D7  3000               	movlw	0
  6034  06D8  00F8               	movwf	___awdiv@divisor+1
  6035  06D9  0852               	movf	scale@scl,w
  6036  06DA  00F9               	movwf	___awdiv@dividend
  6037  06DB  01FA               	clrf	___awdiv@dividend+1
  6038  06DC  1BF9               	btfsc	___awdiv@dividend,7
  6039  06DD  03FA               	decf	___awdiv@dividend+1,f
  6040  06DE  3193  23E0  3185   	fcall	___awdiv
  6041  06E1  0877               	movf	?___awdiv,w
  6042  06E2  3E12               	addlw	18
  6043  06E3  0020               	movlb	0	; select bank0
  6044  06E4  00C8               	movwf	??_scale+6
  6045  06E5  01C9               	clrf	??_scale+7
  6046  06E6  35C8               	lslf	??_scale+6,f
  6047  06E7  0DC9               	rlf	??_scale+7,f
  6048  06E8  35C8               	lslf	??_scale+6,f
  6049  06E9  0DC9               	rlf	??_scale+7,f
  6050  06EA  3000               	movlw	low (__powers_| (0+32768))
  6051  06EB  0748               	addwf	??_scale+6,w
  6052  06EC  0084               	movwf	4
  6053  06ED  3098               	movlw	high (__powers_| (0+32768))
  6054  06EE  3D49               	addwfc	??_scale+7,w
  6055  06EF  0085               	movwf	5
  6056  06F0  3F00               	moviw [0]fsr0
  6057  06F1  00CA               	movwf	??_scale+8
  6058  06F2  3F01               	moviw [1]fsr0
  6059  06F3  00CB               	movwf	??_scale+9
  6060  06F4  3F02               	moviw [2]fsr0
  6061  06F5  00CC               	movwf	??_scale+10
  6062  06F6  3F03               	moviw [3]fsr0
  6063  06F7  00CD               	movwf	??_scale+11
  6064  06F8  084D               	movf	??_scale+11,w
  6065  06F9  00AB               	movwf	___flmul@a+3
  6066  06FA  084C               	movf	??_scale+10,w
  6067  06FB  00AA               	movwf	___flmul@a+2
  6068  06FC  084B               	movf	??_scale+9,w
  6069  06FD  00A9               	movwf	___flmul@a+1
  6070  06FE  084A               	movf	??_scale+8,w
  6071  06FF  00A8               	movwf	___flmul@a
  6072  0700  318D  25A9  3185   	fcall	___flmul
  6073  0703  0020               	movlb	0	; select bank0
  6074  0704  0827               	movf	?___flmul+3,w
  6075  0705  00D1               	movwf	_scale$1150+3
  6076  0706  0826               	movf	?___flmul+2,w
  6077  0707  00D0               	movwf	_scale$1150+2
  6078  0708  0825               	movf	?___flmul+1,w
  6079  0709  00CF               	movwf	_scale$1150+1
  6080  070A  0824               	movf	?___flmul,w
  6081  070B  00CE               	movwf	_scale$1150
  6082                           
  6083                           ;doprnt.c: 445: return _powers_[(unsigned char)(scl/100+18)] * _powers_[(unsigned char)(
      +                          (scl%100)/10+9)] * _powers_[(unsigned char)(scl%10)];
  6084  070C  300A               	movlw	10
  6085  070D  00F0               	movwf	___awmod@divisor
  6086  070E  3000               	movlw	0
  6087  070F  00F1               	movwf	___awmod@divisor+1
  6088  0710  0852               	movf	scale@scl,w
  6089  0711  00F2               	movwf	___awmod@dividend
  6090  0712  01F3               	clrf	___awmod@dividend+1
  6091  0713  1BF2               	btfsc	___awmod@dividend,7
  6092  0714  03F3               	decf	___awmod@dividend+1,f
  6093  0715  3193  2333  3185   	fcall	___awmod
  6094  0718  0870               	movf	?___awmod,w
  6095  0719  0020               	movlb	0	; select bank0
  6096  071A  00C2               	movwf	??_scale
  6097  071B  01C3               	clrf	??_scale+1
  6098  071C  35C2               	lslf	??_scale,f
  6099  071D  0DC3               	rlf	??_scale+1,f
  6100  071E  35C2               	lslf	??_scale,f
  6101  071F  0DC3               	rlf	??_scale+1,f
  6102  0720  3000               	movlw	low (__powers_| (0+32768))
  6103  0721  0742               	addwf	??_scale,w
  6104  0722  0084               	movwf	4
  6105  0723  3098               	movlw	high (__powers_| (0+32768))
  6106  0724  3D43               	addwfc	??_scale+1,w
  6107  0725  0085               	movwf	5
  6108  0726  3F00               	moviw [0]fsr0
  6109  0727  00C4               	movwf	??_scale+2
  6110  0728  3F01               	moviw [1]fsr0
  6111  0729  00C5               	movwf	??_scale+3
  6112  072A  3F02               	moviw [2]fsr0
  6113  072B  00C6               	movwf	??_scale+4
  6114  072C  3F03               	moviw [3]fsr0
  6115  072D  00C7               	movwf	??_scale+5
  6116  072E  0847               	movf	??_scale+5,w
  6117  072F  00A7               	movwf	___flmul@b+3
  6118  0730  0846               	movf	??_scale+4,w
  6119  0731  00A6               	movwf	___flmul@b+2
  6120  0732  0845               	movf	??_scale+3,w
  6121  0733  00A5               	movwf	___flmul@b+1
  6122  0734  0844               	movf	??_scale+2,w
  6123  0735  00A4               	movwf	___flmul@b
  6124  0736  0851               	movf	_scale$1150+3,w
  6125  0737  00AB               	movwf	___flmul@a+3
  6126  0738  0850               	movf	_scale$1150+2,w
  6127  0739  00AA               	movwf	___flmul@a+2
  6128  073A  084F               	movf	_scale$1150+1,w
  6129  073B  00A9               	movwf	___flmul@a+1
  6130  073C  084E               	movf	_scale$1150,w
  6131  073D  00A8               	movwf	___flmul@a
  6132  073E  318D  25A9  3185   	fcall	___flmul
  6133  0741  0020               	movlb	0	; select bank0
  6134  0742  0827               	movf	?___flmul+3,w
  6135  0743  00C1               	movwf	?_scale+3
  6136  0744  0826               	movf	?___flmul+2,w
  6137  0745  00C0               	movwf	?_scale+2
  6138  0746  0825               	movf	?___flmul+1,w
  6139  0747  00BF               	movwf	?_scale+1
  6140  0748  0824               	movf	?___flmul,w
  6141  0749  00BE               	movwf	?_scale
  6142  074A  2FD1               	goto	l210
  6143  074B                     l2681:	
  6144                           
  6145                           ;doprnt.c: 446: else if(scl > 10)
  6146  074B  0852               	movf	scale@scl,w
  6147  074C  3A80               	xorlw	128
  6148  074D  3E75               	addlw	-139
  6149  074E  1C03               	skipc
  6150  074F  2F51               	goto	u3691
  6151  0750  2F52               	goto	u3690
  6152  0751                     u3691:	
  6153  0751  2FB4               	goto	l2687
  6154  0752                     u3690:	
  6155  0752                     l2683:	
  6156                           
  6157                           ;doprnt.c: 447: return _powers_[(unsigned char)(scl/10+9)] * _powers_[(unsigned char)(sc
      +                          l%10)];
  6158  0752  300A               	movlw	10
  6159  0753  00F0               	movwf	___awmod@divisor
  6160  0754  3000               	movlw	0
  6161  0755  00F1               	movwf	___awmod@divisor+1
  6162  0756  0852               	movf	scale@scl,w
  6163  0757  00F2               	movwf	___awmod@dividend
  6164  0758  01F3               	clrf	___awmod@dividend+1
  6165  0759  1BF2               	btfsc	___awmod@dividend,7
  6166  075A  03F3               	decf	___awmod@dividend+1,f
  6167  075B  3193  2333  3185   	fcall	___awmod
  6168  075E  0870               	movf	?___awmod,w
  6169  075F  0020               	movlb	0	; select bank0
  6170  0760  00C2               	movwf	??_scale
  6171  0761  01C3               	clrf	??_scale+1
  6172  0762  35C2               	lslf	??_scale,f
  6173  0763  0DC3               	rlf	??_scale+1,f
  6174  0764  35C2               	lslf	??_scale,f
  6175  0765  0DC3               	rlf	??_scale+1,f
  6176  0766  3000               	movlw	low (__powers_| (0+32768))
  6177  0767  0742               	addwf	??_scale,w
  6178  0768  0084               	movwf	4
  6179  0769  3098               	movlw	high (__powers_| (0+32768))
  6180  076A  3D43               	addwfc	??_scale+1,w
  6181  076B  0085               	movwf	5
  6182  076C  3F00               	moviw [0]fsr0
  6183  076D  00C4               	movwf	??_scale+2
  6184  076E  3F01               	moviw [1]fsr0
  6185  076F  00C5               	movwf	??_scale+3
  6186  0770  3F02               	moviw [2]fsr0
  6187  0771  00C6               	movwf	??_scale+4
  6188  0772  3F03               	moviw [3]fsr0
  6189  0773  00C7               	movwf	??_scale+5
  6190  0774  0847               	movf	??_scale+5,w
  6191  0775  00A7               	movwf	___flmul@b+3
  6192  0776  0846               	movf	??_scale+4,w
  6193  0777  00A6               	movwf	___flmul@b+2
  6194  0778  0845               	movf	??_scale+3,w
  6195  0779  00A5               	movwf	___flmul@b+1
  6196  077A  0844               	movf	??_scale+2,w
  6197  077B  00A4               	movwf	___flmul@b
  6198  077C  300A               	movlw	10
  6199  077D  00F7               	movwf	___awdiv@divisor
  6200  077E  3000               	movlw	0
  6201  077F  00F8               	movwf	___awdiv@divisor+1
  6202  0780  0852               	movf	scale@scl,w
  6203  0781  00F9               	movwf	___awdiv@dividend
  6204  0782  01FA               	clrf	___awdiv@dividend+1
  6205  0783  1BF9               	btfsc	___awdiv@dividend,7
  6206  0784  03FA               	decf	___awdiv@dividend+1,f
  6207  0785  3193  23E0  3185   	fcall	___awdiv
  6208  0788  0877               	movf	?___awdiv,w
  6209  0789  3E09               	addlw	9
  6210  078A  0020               	movlb	0	; select bank0
  6211  078B  00C8               	movwf	??_scale+6
  6212  078C  01C9               	clrf	??_scale+7
  6213  078D  35C8               	lslf	??_scale+6,f
  6214  078E  0DC9               	rlf	??_scale+7,f
  6215  078F  35C8               	lslf	??_scale+6,f
  6216  0790  0DC9               	rlf	??_scale+7,f
  6217  0791  3000               	movlw	low (__powers_| (0+32768))
  6218  0792  0748               	addwf	??_scale+6,w
  6219  0793  0084               	movwf	4
  6220  0794  3098               	movlw	high (__powers_| (0+32768))
  6221  0795  3D49               	addwfc	??_scale+7,w
  6222  0796  0085               	movwf	5
  6223  0797  3F00               	moviw [0]fsr0
  6224  0798  00CA               	movwf	??_scale+8
  6225  0799  3F01               	moviw [1]fsr0
  6226  079A  00CB               	movwf	??_scale+9
  6227  079B  3F02               	moviw [2]fsr0
  6228  079C  00CC               	movwf	??_scale+10
  6229  079D  3F03               	moviw [3]fsr0
  6230  079E  00CD               	movwf	??_scale+11
  6231  079F  084D               	movf	??_scale+11,w
  6232  07A0  00AB               	movwf	___flmul@a+3
  6233  07A1  084C               	movf	??_scale+10,w
  6234  07A2  00AA               	movwf	___flmul@a+2
  6235  07A3  084B               	movf	??_scale+9,w
  6236  07A4  00A9               	movwf	___flmul@a+1
  6237  07A5  084A               	movf	??_scale+8,w
  6238  07A6  00A8               	movwf	___flmul@a
  6239  07A7  318D  25A9  3185   	fcall	___flmul
  6240  07AA  0020               	movlb	0	; select bank0
  6241  07AB  0827               	movf	?___flmul+3,w
  6242  07AC  00C1               	movwf	?_scale+3
  6243  07AD  0826               	movf	?___flmul+2,w
  6244  07AE  00C0               	movwf	?_scale+2
  6245  07AF  0825               	movf	?___flmul+1,w
  6246  07B0  00BF               	movwf	?_scale+1
  6247  07B1  0824               	movf	?___flmul,w
  6248  07B2  00BE               	movwf	?_scale
  6249  07B3  2FD1               	goto	l210
  6250  07B4                     l2687:	
  6251                           
  6252                           ;doprnt.c: 448: return _powers_[(unsigned char)scl];
  6253  07B4  0852               	movf	scale@scl,w
  6254  07B5  00C2               	movwf	??_scale
  6255  07B6  01C3               	clrf	??_scale+1
  6256  07B7  35C2               	lslf	??_scale,f
  6257  07B8  0DC3               	rlf	??_scale+1,f
  6258  07B9  35C2               	lslf	??_scale,f
  6259  07BA  0DC3               	rlf	??_scale+1,f
  6260  07BB  3000               	movlw	low (__powers_| (0+32768))
  6261  07BC  0742               	addwf	??_scale,w
  6262  07BD  0084               	movwf	4
  6263  07BE  3098               	movlw	high (__powers_| (0+32768))
  6264  07BF  3D43               	addwfc	??_scale+1,w
  6265  07C0  0085               	movwf	5
  6266  07C1  3F00               	moviw [0]fsr0
  6267  07C2  00C4               	movwf	??_scale+2
  6268  07C3  3F01               	moviw [1]fsr0
  6269  07C4  00C5               	movwf	??_scale+3
  6270  07C5  3F02               	moviw [2]fsr0
  6271  07C6  00C6               	movwf	??_scale+4
  6272  07C7  3F03               	moviw [3]fsr0
  6273  07C8  00C7               	movwf	??_scale+5
  6274  07C9  0847               	movf	??_scale+5,w
  6275  07CA  00C1               	movwf	?_scale+3
  6276  07CB  0846               	movf	??_scale+4,w
  6277  07CC  00C0               	movwf	?_scale+2
  6278  07CD  0845               	movf	??_scale+3,w
  6279  07CE  00BF               	movwf	?_scale+1
  6280  07CF  0844               	movf	??_scale+2,w
  6281  07D0  00BE               	movwf	?_scale
  6282  07D1                     l210:	
  6283  07D1  0008               	return
  6284  07D2                     __end_of_scale:	
  6285                           
  6286                           	psect	text3
  6287  1333                     __ptext3:	
  6288 ;; *************** function ___awmod *****************
  6289 ;; Defined at:
  6290 ;;		line 5 in file "C:\Program Files (x86)\Microchip\xc8\v2.10\pic\sources\c90\common\awmod.c"
  6291 ;; Parameters:    Size  Location     Type
  6292 ;;  divisor         2    0[COMMON] int 
  6293 ;;  dividend        2    2[COMMON] int 
  6294 ;; Auto vars:     Size  Location     Type
  6295 ;;  sign            1    6[COMMON] unsigned char 
  6296 ;;  counter         1    5[COMMON] unsigned char 
  6297 ;; Return value:  Size  Location     Type
  6298 ;;                  2    0[COMMON] int 
  6299 ;; Registers used:
  6300 ;;		wreg, status,2, status,0
  6301 ;; Tracked objects:
  6302 ;;		On entry : 0/0
  6303 ;;		On exit  : 0/0
  6304 ;;		Unchanged: 0/0
  6305 ;; Data sizes:     COMMON   BANK0   BANK1   BANK2   BANK3   BANK4   BANK5   BANK6   BANK7   BANK8   BANK9  BANK10  BANK1
      +1  BANK12
  6306 ;;      Params:         4       0       0       0       0       0       0       0       0       0       0       0       
      +0       0
  6307 ;;      Locals:         2       0       0       0       0       0       0       0       0       0       0       0       
      +0       0
  6308 ;;      Temps:          1       0       0       0       0       0       0       0       0       0       0       0       
      +0       0
  6309 ;;      Totals:         7       0       0       0       0       0       0       0       0       0       0       0       
      +0       0
  6310 ;;Total ram usage:        7 bytes
  6311 ;; Hardware stack levels used:    1
  6312 ;; Hardware stack levels required when called:    1
  6313 ;; This function calls:
  6314 ;;		Nothing
  6315 ;; This function is called by:
  6316 ;;		_scale
  6317 ;; This function uses a non-reentrant model
  6318 ;;
  6319                           
  6320                           
  6321                           ;psect for function ___awmod
  6322  1333                     ___awmod:	
  6323  1333                     l2213:	
  6324                           ;incstack = 0
  6325                           ; Regs used in ___awmod: [wreg+status,2+status,0]
  6326                           
  6327  1333  01F6               	clrf	___awmod@sign
  6328  1334                     l2215:	
  6329  1334  1FF3               	btfss	___awmod@dividend+1,7
  6330  1335  2B37               	goto	u2721
  6331  1336  2B38               	goto	u2720
  6332  1337                     u2721:	
  6333  1337  2B3F               	goto	l2221
  6334  1338                     u2720:	
  6335  1338                     l2217:	
  6336  1338  09F2               	comf	___awmod@dividend,f
  6337  1339  09F3               	comf	___awmod@dividend+1,f
  6338  133A  0AF2               	incf	___awmod@dividend,f
  6339  133B  1903               	skipnz
  6340  133C  0AF3               	incf	___awmod@dividend+1,f
  6341  133D                     l2219:	
  6342  133D  01F6               	clrf	___awmod@sign
  6343  133E  0AF6               	incf	___awmod@sign,f
  6344  133F                     l2221:	
  6345  133F  1FF1               	btfss	___awmod@divisor+1,7
  6346  1340  2B42               	goto	u2731
  6347  1341  2B43               	goto	u2730
  6348  1342                     u2731:	
  6349  1342  2B48               	goto	l2225
  6350  1343                     u2730:	
  6351  1343                     l2223:	
  6352  1343  09F0               	comf	___awmod@divisor,f
  6353  1344  09F1               	comf	___awmod@divisor+1,f
  6354  1345  0AF0               	incf	___awmod@divisor,f
  6355  1346  1903               	skipnz
  6356  1347  0AF1               	incf	___awmod@divisor+1,f
  6357  1348                     l2225:	
  6358  1348  0870               	movf	___awmod@divisor,w
  6359  1349  0471               	iorwf	___awmod@divisor+1,w
  6360  134A  1903               	btfsc	3,2
  6361  134B  2B4D               	goto	u2741
  6362  134C  2B4E               	goto	u2740
  6363  134D                     u2741:	
  6364  134D  2B77               	goto	l2243
  6365  134E                     u2740:	
  6366  134E                     l2227:	
  6367  134E  01F5               	clrf	___awmod@counter
  6368  134F  0AF5               	incf	___awmod@counter,f
  6369  1350  2B5A               	goto	l2233
  6370  1351                     l2229:	
  6371  1351  3001               	movlw	1
  6372  1352                     u2755:	
  6373  1352  35F0               	lslf	___awmod@divisor,f
  6374  1353  0DF1               	rlf	___awmod@divisor+1,f
  6375  1354  0B89               	decfsz	9,f
  6376  1355  2B52               	goto	u2755
  6377  1356                     l2231:	
  6378  1356  3001               	movlw	1
  6379  1357  00F4               	movwf	??___awmod
  6380  1358  0874               	movf	??___awmod,w
  6381  1359  07F5               	addwf	___awmod@counter,f
  6382  135A                     l2233:	
  6383  135A  1FF1               	btfss	___awmod@divisor+1,7
  6384  135B  2B5D               	goto	u2761
  6385  135C  2B5E               	goto	u2760
  6386  135D                     u2761:	
  6387  135D  2B51               	goto	l2229
  6388  135E                     u2760:	
  6389  135E                     l2235:	
  6390  135E  0871               	movf	___awmod@divisor+1,w
  6391  135F  0273               	subwf	___awmod@dividend+1,w
  6392  1360  1D03               	skipz
  6393  1361  2B64               	goto	u2775
  6394  1362  0870               	movf	___awmod@divisor,w
  6395  1363  0272               	subwf	___awmod@dividend,w
  6396  1364                     u2775:	
  6397  1364  1C03               	skipc
  6398  1365  2B67               	goto	u2771
  6399  1366  2B68               	goto	u2770
  6400  1367                     u2771:	
  6401  1367  2B6C               	goto	l2239
  6402  1368                     u2770:	
  6403  1368                     l2237:	
  6404  1368  0870               	movf	___awmod@divisor,w
  6405  1369  02F2               	subwf	___awmod@dividend,f
  6406  136A  0871               	movf	___awmod@divisor+1,w
  6407  136B  3BF3               	subwfb	___awmod@dividend+1,f
  6408  136C                     l2239:	
  6409  136C  3001               	movlw	1
  6410  136D                     u2785:	
  6411  136D  36F1               	lsrf	___awmod@divisor+1,f
  6412  136E  0CF0               	rrf	___awmod@divisor,f
  6413  136F  0B89               	decfsz	9,f
  6414  1370  2B6D               	goto	u2785
  6415  1371                     l2241:	
  6416  1371  3001               	movlw	1
  6417  1372  02F5               	subwf	___awmod@counter,f
  6418  1373  1D03               	btfss	3,2
  6419  1374  2B76               	goto	u2791
  6420  1375  2B77               	goto	u2790
  6421  1376                     u2791:	
  6422  1376  2B5E               	goto	l2235
  6423  1377                     u2790:	
  6424  1377                     l2243:	
  6425  1377  0876               	movf	___awmod@sign,w
  6426  1378  1903               	btfsc	3,2
  6427  1379  2B7B               	goto	u2801
  6428  137A  2B7C               	goto	u2800
  6429  137B                     u2801:	
  6430  137B  2B81               	goto	l2247
  6431  137C                     u2800:	
  6432  137C                     l2245:	
  6433  137C  09F2               	comf	___awmod@dividend,f
  6434  137D  09F3               	comf	___awmod@dividend+1,f
  6435  137E  0AF2               	incf	___awmod@dividend,f
  6436  137F  1903               	skipnz
  6437  1380  0AF3               	incf	___awmod@dividend+1,f
  6438  1381                     l2247:	
  6439  1381  0873               	movf	___awmod@dividend+1,w
  6440  1382  00F1               	movwf	?___awmod+1
  6441  1383  0872               	movf	___awmod@dividend,w
  6442  1384  00F0               	movwf	?___awmod
  6443  1385                     l446:	
  6444  1385  0008               	return
  6445  1386                     __end_of___awmod:	
  6446                           
  6447                           	psect	text4
  6448  13E0                     __ptext4:	
  6449 ;; *************** function ___awdiv *****************
  6450 ;; Defined at:
  6451 ;;		line 5 in file "C:\Program Files (x86)\Microchip\xc8\v2.10\pic\sources\c90\common\awdiv.c"
  6452 ;; Parameters:    Size  Location     Type
  6453 ;;  divisor         2    7[COMMON] int 
  6454 ;;  dividend        2    9[COMMON] int 
  6455 ;; Auto vars:     Size  Location     Type
  6456 ;;  quotient        2    2[BANK0 ] int 
  6457 ;;  sign            1    1[BANK0 ] unsigned char 
  6458 ;;  counter         1    0[BANK0 ] unsigned char 
  6459 ;; Return value:  Size  Location     Type
  6460 ;;                  2    7[COMMON] int 
  6461 ;; Registers used:
  6462 ;;		wreg, status,2, status,0
  6463 ;; Tracked objects:
  6464 ;;		On entry : 0/0
  6465 ;;		On exit  : 0/0
  6466 ;;		Unchanged: 0/0
  6467 ;; Data sizes:     COMMON   BANK0   BANK1   BANK2   BANK3   BANK4   BANK5   BANK6   BANK7   BANK8   BANK9  BANK10  BANK1
      +1  BANK12
  6468 ;;      Params:         4       0       0       0       0       0       0       0       0       0       0       0       
      +0       0
  6469 ;;      Locals:         0       4       0       0       0       0       0       0       0       0       0       0       
      +0       0
  6470 ;;      Temps:          1       0       0       0       0       0       0       0       0       0       0       0       
      +0       0
  6471 ;;      Totals:         5       4       0       0       0       0       0       0       0       0       0       0       
      +0       0
  6472 ;;Total ram usage:        9 bytes
  6473 ;; Hardware stack levels used:    1
  6474 ;; Hardware stack levels required when called:    1
  6475 ;; This function calls:
  6476 ;;		Nothing
  6477 ;; This function is called by:
  6478 ;;		_scale
  6479 ;;		_sprintf
  6480 ;; This function uses a non-reentrant model
  6481 ;;
  6482                           
  6483                           
  6484                           ;psect for function ___awdiv
  6485  13E0                     ___awdiv:	
  6486  13E0                     l2169:	
  6487                           ;incstack = 0
  6488                           ; Regs used in ___awdiv: [wreg+status,2+status,0]
  6489                           
  6490  13E0  0020               	movlb	0	; select bank0
  6491  13E1  01A1               	clrf	___awdiv@sign
  6492  13E2                     l2171:	
  6493  13E2  1FF8               	btfss	___awdiv@divisor+1,7
  6494  13E3  2BE5               	goto	u2621
  6495  13E4  2BE6               	goto	u2620
  6496  13E5                     u2621:	
  6497  13E5  2BED               	goto	l2177
  6498  13E6                     u2620:	
  6499  13E6                     l2173:	
  6500  13E6  09F7               	comf	___awdiv@divisor,f
  6501  13E7  09F8               	comf	___awdiv@divisor+1,f
  6502  13E8  0AF7               	incf	___awdiv@divisor,f
  6503  13E9  1903               	skipnz
  6504  13EA  0AF8               	incf	___awdiv@divisor+1,f
  6505  13EB                     l2175:	
  6506  13EB  01A1               	clrf	___awdiv@sign
  6507  13EC  0AA1               	incf	___awdiv@sign,f
  6508  13ED                     l2177:	
  6509  13ED  1FFA               	btfss	___awdiv@dividend+1,7
  6510  13EE  2BF0               	goto	u2631
  6511  13EF  2BF1               	goto	u2630
  6512  13F0                     u2631:	
  6513  13F0  2BFA               	goto	l2183
  6514  13F1                     u2630:	
  6515  13F1                     l2179:	
  6516  13F1  09F9               	comf	___awdiv@dividend,f
  6517  13F2  09FA               	comf	___awdiv@dividend+1,f
  6518  13F3  0AF9               	incf	___awdiv@dividend,f
  6519  13F4  1903               	skipnz
  6520  13F5  0AFA               	incf	___awdiv@dividend+1,f
  6521  13F6                     l2181:	
  6522  13F6  3001               	movlw	1
  6523  13F7  00FB               	movwf	??___awdiv
  6524  13F8  087B               	movf	??___awdiv,w
  6525  13F9  06A1               	xorwf	___awdiv@sign,f
  6526  13FA                     l2183:	
  6527  13FA  01A2               	clrf	___awdiv@quotient
  6528  13FB  01A3               	clrf	___awdiv@quotient+1
  6529  13FC                     l2185:	
  6530  13FC  0877               	movf	___awdiv@divisor,w
  6531  13FD  0478               	iorwf	___awdiv@divisor+1,w
  6532  13FE  1903               	btfsc	3,2
  6533  13FF  2C01               	goto	u2641
  6534  1400  2C02               	goto	u2640
  6535  1401                     u2641:	
  6536  1401  2C31               	goto	l2205
  6537  1402                     u2640:	
  6538  1402                     l2187:	
  6539  1402  01A0               	clrf	___awdiv@counter
  6540  1403  0AA0               	incf	___awdiv@counter,f
  6541  1404  2C0E               	goto	l2193
  6542  1405                     l2189:	
  6543  1405  3001               	movlw	1
  6544  1406                     u2655:	
  6545  1406  35F7               	lslf	___awdiv@divisor,f
  6546  1407  0DF8               	rlf	___awdiv@divisor+1,f
  6547  1408  0B89               	decfsz	9,f
  6548  1409  2C06               	goto	u2655
  6549  140A                     l2191:	
  6550  140A  3001               	movlw	1
  6551  140B  00FB               	movwf	??___awdiv
  6552  140C  087B               	movf	??___awdiv,w
  6553  140D  07A0               	addwf	___awdiv@counter,f
  6554  140E                     l2193:	
  6555  140E  1FF8               	btfss	___awdiv@divisor+1,7
  6556  140F  2C11               	goto	u2661
  6557  1410  2C12               	goto	u2660
  6558  1411                     u2661:	
  6559  1411  2C05               	goto	l2189
  6560  1412                     u2660:	
  6561  1412                     l2195:	
  6562  1412  3001               	movlw	1
  6563  1413                     u2675:	
  6564  1413  35A2               	lslf	___awdiv@quotient,f
  6565  1414  0DA3               	rlf	___awdiv@quotient+1,f
  6566  1415  0B89               	decfsz	9,f
  6567  1416  2C13               	goto	u2675
  6568  1417  0878               	movf	___awdiv@divisor+1,w
  6569  1418  027A               	subwf	___awdiv@dividend+1,w
  6570  1419  1D03               	skipz
  6571  141A  2C1D               	goto	u2685
  6572  141B  0877               	movf	___awdiv@divisor,w
  6573  141C  0279               	subwf	___awdiv@dividend,w
  6574  141D                     u2685:	
  6575  141D  1C03               	skipc
  6576  141E  2C20               	goto	u2681
  6577  141F  2C21               	goto	u2680
  6578  1420                     u2681:	
  6579  1420  2C26               	goto	l2201
  6580  1421                     u2680:	
  6581  1421                     l2197:	
  6582  1421  0877               	movf	___awdiv@divisor,w
  6583  1422  02F9               	subwf	___awdiv@dividend,f
  6584  1423  0878               	movf	___awdiv@divisor+1,w
  6585  1424  3BFA               	subwfb	___awdiv@dividend+1,f
  6586  1425                     l2199:	
  6587  1425  1422               	bsf	___awdiv@quotient,0
  6588  1426                     l2201:	
  6589  1426  3001               	movlw	1
  6590  1427                     u2695:	
  6591  1427  36F8               	lsrf	___awdiv@divisor+1,f
  6592  1428  0CF7               	rrf	___awdiv@divisor,f
  6593  1429  0B89               	decfsz	9,f
  6594  142A  2C27               	goto	u2695
  6595  142B                     l2203:	
  6596  142B  3001               	movlw	1
  6597  142C  02A0               	subwf	___awdiv@counter,f
  6598  142D  1D03               	btfss	3,2
  6599  142E  2C30               	goto	u2701
  6600  142F  2C31               	goto	u2700
  6601  1430                     u2701:	
  6602  1430  2C12               	goto	l2195
  6603  1431                     u2700:	
  6604  1431                     l2205:	
  6605  1431  0821               	movf	___awdiv@sign,w
  6606  1432  1903               	btfsc	3,2
  6607  1433  2C35               	goto	u2711
  6608  1434  2C36               	goto	u2710
  6609  1435                     u2711:	
  6610  1435  2C3B               	goto	l2209
  6611  1436                     u2710:	
  6612  1436                     l2207:	
  6613  1436  09A2               	comf	___awdiv@quotient,f
  6614  1437  09A3               	comf	___awdiv@quotient+1,f
  6615  1438  0AA2               	incf	___awdiv@quotient,f
  6616  1439  1903               	skipnz
  6617  143A  0AA3               	incf	___awdiv@quotient+1,f
  6618  143B                     l2209:	
  6619  143B  0823               	movf	___awdiv@quotient+1,w
  6620  143C  00F8               	movwf	?___awdiv+1
  6621  143D  0822               	movf	___awdiv@quotient,w
  6622  143E  00F7               	movwf	?___awdiv
  6623  143F                     l433:	
  6624  143F  0008               	return
  6625  1440                     __end_of___awdiv:	
  6626                           
  6627                           	psect	text5
  6628  118E                     __ptext5:	
  6629 ;; *************** function _isdigit *****************
  6630 ;; Defined at:
  6631 ;;		line 8 in file "C:\Program Files (x86)\Microchip\xc8\v2.10\pic\sources\c90\common\isdigit.c"
  6632 ;; Parameters:    Size  Location     Type
  6633 ;;  c               1    wreg     unsigned char 
  6634 ;; Auto vars:     Size  Location     Type
  6635 ;;  c               1    1[COMMON] unsigned char 
  6636 ;; Return value:  Size  Location     Type
  6637 ;;		None               void
  6638 ;; Registers used:
  6639 ;;		wreg, status,2, status,0
  6640 ;; Tracked objects:
  6641 ;;		On entry : 0/0
  6642 ;;		On exit  : 0/0
  6643 ;;		Unchanged: 0/0
  6644 ;; Data sizes:     COMMON   BANK0   BANK1   BANK2   BANK3   BANK4   BANK5   BANK6   BANK7   BANK8   BANK9  BANK10  BANK1
      +1  BANK12
  6645 ;;      Params:         0       0       0       0       0       0       0       0       0       0       0       0       
      +0       0
  6646 ;;      Locals:         2       0       0       0       0       0       0       0       0       0       0       0       
      +0       0
  6647 ;;      Temps:          0       0       0       0       0       0       0       0       0       0       0       0       
      +0       0
  6648 ;;      Totals:         2       0       0       0       0       0       0       0       0       0       0       0       
      +0       0
  6649 ;;Total ram usage:        2 bytes
  6650 ;; Hardware stack levels used:    1
  6651 ;; Hardware stack levels required when called:    1
  6652 ;; This function calls:
  6653 ;;		Nothing
  6654 ;; This function is called by:
  6655 ;;		_sprintf
  6656 ;; This function uses a non-reentrant model
  6657 ;;
  6658                           
  6659                           
  6660                           ;psect for function _isdigit
  6661  118E                     _isdigit:	
  6662                           
  6663                           ;incstack = 0
  6664                           ; Regs used in _isdigit: [wreg+status,2+status,0]
  6665                           ;isdigit@c stored from wreg
  6666  118E  00F1               	movwf	isdigit@c
  6667  118F                     l2691:	
  6668  118F  01F0               	clrf	_isdigit$1020
  6669  1190                     l2693:	
  6670  1190  303A               	movlw	58
  6671  1191  0271               	subwf	isdigit@c,w
  6672  1192  1803               	skipnc
  6673  1193  2995               	goto	u3701
  6674  1194  2996               	goto	u3700
  6675  1195                     u3701:	
  6676  1195  299E               	goto	l2699
  6677  1196                     u3700:	
  6678  1196                     l2695:	
  6679  1196  3030               	movlw	48
  6680  1197  0271               	subwf	isdigit@c,w
  6681  1198  1C03               	skipc
  6682  1199  299B               	goto	u3711
  6683  119A  299C               	goto	u3710
  6684  119B                     u3711:	
  6685  119B  299E               	goto	l2699
  6686  119C                     u3710:	
  6687  119C                     l2697:	
  6688  119C  01F0               	clrf	_isdigit$1020
  6689  119D  0AF0               	incf	_isdigit$1020,f
  6690  119E                     l2699:	
  6691  119E  0C70               	rrf	_isdigit$1020,w
  6692  119F                     l761:	
  6693  119F  0008               	return
  6694  11A0                     __end_of_isdigit:	
  6695                           
  6696                           	psect	text6
  6697  0835                     __ptext6:	
  6698 ;; *************** function _fround *****************
  6699 ;; Defined at:
  6700 ;;		line 417 in file "C:\Program Files (x86)\Microchip\xc8\v2.10\pic\sources\c90\common\doprnt.c"
  6701 ;; Parameters:    Size  Location     Type
  6702 ;;  prec            1    wreg     unsigned char 
  6703 ;; Auto vars:     Size  Location     Type
  6704 ;;  prec            1   48[BANK0 ] unsigned char 
  6705 ;; Return value:  Size  Location     Type
  6706 ;;                  4   30[BANK0 ] unsigned char 
  6707 ;; Registers used:
  6708 ;;		wreg, fsr0l, fsr0h, status,2, status,0, pclath, cstack
  6709 ;; Tracked objects:
  6710 ;;		On entry : 0/0
  6711 ;;		On exit  : 0/0
  6712 ;;		Unchanged: 0/0
  6713 ;; Data sizes:     COMMON   BANK0   BANK1   BANK2   BANK3   BANK4   BANK5   BANK6   BANK7   BANK8   BANK9  BANK10  BANK1
      +1  BANK12
  6714 ;;      Params:         0       4       0       0       0       0       0       0       0       0       0       0       
      +0       0
  6715 ;;      Locals:         0       9       0       0       0       0       0       0       0       0       0       0       
      +0       0
  6716 ;;      Temps:          0       6       0       0       0       0       0       0       0       0       0       0       
      +0       0
  6717 ;;      Totals:         0      19       0       0       0       0       0       0       0       0       0       0       
      +0       0
  6718 ;;Total ram usage:       19 bytes
  6719 ;; Hardware stack levels used:    1
  6720 ;; Hardware stack levels required when called:    3
  6721 ;; This function calls:
  6722 ;;		___flmul
  6723 ;;		___lwdiv
  6724 ;;		___lwmod
  6725 ;; This function is called by:
  6726 ;;		_sprintf
  6727 ;; This function uses a non-reentrant model
  6728 ;;
  6729                           
  6730                           
  6731                           ;psect for function _fround
  6732  0835                     _fround:	
  6733                           
  6734                           ;incstack = 0
  6735                           ; Regs used in _fround: [wreg-fsr0h+status,2+status,0+pclath+cstack]
  6736                           ;fround@prec stored from wreg
  6737  0835  0020               	movlb	0	; select bank0
  6738  0836  00D0               	movwf	fround@prec
  6739  0837                     l2633:	
  6740                           
  6741                           ;doprnt.c: 421: if(prec>=110)
  6742  0837  306E               	movlw	110
  6743  0838  0250               	subwf	fround@prec,w
  6744  0839  1C03               	skipc
  6745  083A  283C               	goto	u3631
  6746  083B  283D               	goto	u3630
  6747  083C                     u3631:	
  6748  083C  2906               	goto	l2641
  6749  083D                     u3630:	
  6750  083D                     l2635:	
  6751                           
  6752                           ;doprnt.c: 422: return 0.5 * _npowers_[prec/100U+18U] * _npowers_[(prec%100U)/10U+9U] * 
      +                          _npowers_[prec%10U];
  6753  083D  303F               	movlw	63
  6754  083E  00A7               	movwf	___flmul@b+3
  6755  083F  3000               	movlw	0
  6756  0840  00A6               	movwf	___flmul@b+2
  6757  0841  3000               	movlw	0
  6758  0842  00A5               	movwf	___flmul@b+1
  6759  0843  3000               	movlw	0
  6760  0844  00A4               	movwf	___flmul@b
  6761  0845  3064               	movlw	100
  6762  0846  00F6               	movwf	___lwdiv@divisor
  6763  0847  3000               	movlw	0
  6764  0848  00F7               	movwf	___lwdiv@divisor+1
  6765  0849  0850               	movf	fround@prec,w
  6766  084A  00C2               	movwf	??_fround
  6767  084B  01C3               	clrf	??_fround+1
  6768  084C  0842               	movf	??_fround,w
  6769  084D  00F8               	movwf	___lwdiv@dividend
  6770  084E  0843               	movf	??_fround+1,w
  6771  084F  00F9               	movwf	___lwdiv@dividend+1
  6772  0850  3192  2218  3188   	fcall	___lwdiv
  6773  0853  0877               	movf	?___lwdiv+1,w
  6774  0854  0085               	movwf	5
  6775  0855  0876               	movf	?___lwdiv,w
  6776  0856  0084               	movwf	4
  6777  0857  3584               	lslf	4,f
  6778  0858  0D85               	rlf	5,f
  6779  0859  3584               	lslf	4,f
  6780  085A  0D85               	rlf	5,f
  6781  085B  307C               	movlw	low ((__npowers_+72)| (0+32768))
  6782  085C  0784               	addwf	4,f
  6783  085D  3098               	movlw	high ((__npowers_+72)| (0+32768))
  6784  085E  3D85               	addwfc	5,f
  6785  085F  3F00               	moviw [0]fsr0
  6786  0860  0020               	movlb	0	; select bank0
  6787  0861  00C4               	movwf	??_fround+2
  6788  0862  3F01               	moviw [1]fsr0
  6789  0863  00C5               	movwf	??_fround+3
  6790  0864  3F02               	moviw [2]fsr0
  6791  0865  00C6               	movwf	??_fround+4
  6792  0866  3F03               	moviw [3]fsr0
  6793  0867  00C7               	movwf	??_fround+5
  6794  0868  0847               	movf	??_fround+5,w
  6795  0869  00AB               	movwf	___flmul@a+3
  6796  086A  0846               	movf	??_fround+4,w
  6797  086B  00AA               	movwf	___flmul@a+2
  6798  086C  0845               	movf	??_fround+3,w
  6799  086D  00A9               	movwf	___flmul@a+1
  6800  086E  0844               	movf	??_fround+2,w
  6801  086F  00A8               	movwf	___flmul@a
  6802  0870  318D  25A9  3188   	fcall	___flmul
  6803  0873  0020               	movlb	0	; select bank0
  6804  0874  0827               	movf	?___flmul+3,w
  6805  0875  00CF               	movwf	_fround$1148+3
  6806  0876  0826               	movf	?___flmul+2,w
  6807  0877  00CE               	movwf	_fround$1148+2
  6808  0878  0825               	movf	?___flmul+1,w
  6809  0879  00CD               	movwf	_fround$1148+1
  6810  087A  0824               	movf	?___flmul,w
  6811  087B  00CC               	movwf	_fround$1148
  6812                           
  6813                           ;doprnt.c: 422: return 0.5 * _npowers_[prec/100U+18U] * _npowers_[(prec%100U)/10U+9U] * 
      +                          _npowers_[prec%10U];
  6814  087C  300A               	movlw	10
  6815  087D  00F6               	movwf	___lwdiv@divisor
  6816  087E  3000               	movlw	0
  6817  087F  00F7               	movwf	___lwdiv@divisor+1
  6818  0880  0850               	movf	fround@prec,w
  6819  0881  00C2               	movwf	??_fround
  6820  0882  01C3               	clrf	??_fround+1
  6821  0883  0842               	movf	??_fround,w
  6822  0884  00F2               	movwf	___lwmod@dividend
  6823  0885  0843               	movf	??_fround+1,w
  6824  0886  00F3               	movwf	___lwmod@dividend+1
  6825  0887  3064               	movlw	100
  6826  0888  00F0               	movwf	___lwmod@divisor
  6827  0889  3000               	movlw	0
  6828  088A  00F1               	movwf	___lwmod@divisor+1
  6829  088B  3188  2001  3188   	fcall	___lwmod
  6830  088E  0871               	movf	?___lwmod+1,w
  6831  088F  00F9               	movwf	___lwdiv@dividend+1
  6832  0890  0870               	movf	?___lwmod,w
  6833  0891  00F8               	movwf	___lwdiv@dividend
  6834  0892  3192  2218  3188   	fcall	___lwdiv
  6835  0895  0877               	movf	?___lwdiv+1,w
  6836  0896  0085               	movwf	5
  6837  0897  0876               	movf	?___lwdiv,w
  6838  0898  0084               	movwf	4
  6839  0899  3584               	lslf	4,f
  6840  089A  0D85               	rlf	5,f
  6841  089B  3584               	lslf	4,f
  6842  089C  0D85               	rlf	5,f
  6843  089D  3058               	movlw	low ((__npowers_+36)| (0+32768))
  6844  089E  0784               	addwf	4,f
  6845  089F  3098               	movlw	high ((__npowers_+36)| (0+32768))
  6846  08A0  3D85               	addwfc	5,f
  6847  08A1  3F00               	moviw [0]fsr0
  6848  08A2  0020               	movlb	0	; select bank0
  6849  08A3  00C4               	movwf	??_fround+2
  6850  08A4  3F01               	moviw [1]fsr0
  6851  08A5  00C5               	movwf	??_fround+3
  6852  08A6  3F02               	moviw [2]fsr0
  6853  08A7  00C6               	movwf	??_fround+4
  6854  08A8  3F03               	moviw [3]fsr0
  6855  08A9  00C7               	movwf	??_fround+5
  6856  08AA  0847               	movf	??_fround+5,w
  6857  08AB  00A7               	movwf	___flmul@b+3
  6858  08AC  0846               	movf	??_fround+4,w
  6859  08AD  00A6               	movwf	___flmul@b+2
  6860  08AE  0845               	movf	??_fround+3,w
  6861  08AF  00A5               	movwf	___flmul@b+1
  6862  08B0  0844               	movf	??_fround+2,w
  6863  08B1  00A4               	movwf	___flmul@b
  6864  08B2  084F               	movf	_fround$1148+3,w
  6865  08B3  00AB               	movwf	___flmul@a+3
  6866  08B4  084E               	movf	_fround$1148+2,w
  6867  08B5  00AA               	movwf	___flmul@a+2
  6868  08B6  084D               	movf	_fround$1148+1,w
  6869  08B7  00A9               	movwf	___flmul@a+1
  6870  08B8  084C               	movf	_fround$1148,w
  6871  08B9  00A8               	movwf	___flmul@a
  6872  08BA  318D  25A9  3188   	fcall	___flmul
  6873  08BD  0020               	movlb	0	; select bank0
  6874  08BE  0827               	movf	?___flmul+3,w
  6875  08BF  00CB               	movwf	_fround$1149+3
  6876  08C0  0826               	movf	?___flmul+2,w
  6877  08C1  00CA               	movwf	_fround$1149+2
  6878  08C2  0825               	movf	?___flmul+1,w
  6879  08C3  00C9               	movwf	_fround$1149+1
  6880  08C4  0824               	movf	?___flmul,w
  6881  08C5  00C8               	movwf	_fround$1149
  6882                           
  6883                           ;doprnt.c: 422: return 0.5 * _npowers_[prec/100U+18U] * _npowers_[(prec%100U)/10U+9U] * 
      +                          _npowers_[prec%10U];
  6884  08C6  300A               	movlw	10
  6885  08C7  00F0               	movwf	___lwmod@divisor
  6886  08C8  3000               	movlw	0
  6887  08C9  00F1               	movwf	___lwmod@divisor+1
  6888  08CA  0850               	movf	fround@prec,w
  6889  08CB  00C2               	movwf	??_fround
  6890  08CC  01C3               	clrf	??_fround+1
  6891  08CD  0842               	movf	??_fround,w
  6892  08CE  00F2               	movwf	___lwmod@dividend
  6893  08CF  0843               	movf	??_fround+1,w
  6894  08D0  00F3               	movwf	___lwmod@dividend+1
  6895  08D1  3188  2001  3188   	fcall	___lwmod
  6896  08D4  0871               	movf	?___lwmod+1,w
  6897  08D5  0085               	movwf	5
  6898  08D6  0870               	movf	?___lwmod,w
  6899  08D7  0084               	movwf	4
  6900  08D8  3584               	lslf	4,f
  6901  08D9  0D85               	rlf	5,f
  6902  08DA  3584               	lslf	4,f
  6903  08DB  0D85               	rlf	5,f
  6904  08DC  3034               	movlw	low (__npowers_| (0+32768))
  6905  08DD  0784               	addwf	4,f
  6906  08DE  3098               	movlw	high (__npowers_| (0+32768))
  6907  08DF  3D85               	addwfc	5,f
  6908  08E0  3F00               	moviw [0]fsr0
  6909  08E1  0020               	movlb	0	; select bank0
  6910  08E2  00C4               	movwf	??_fround+2
  6911  08E3  3F01               	moviw [1]fsr0
  6912  08E4  00C5               	movwf	??_fround+3
  6913  08E5  3F02               	moviw [2]fsr0
  6914  08E6  00C6               	movwf	??_fround+4
  6915  08E7  3F03               	moviw [3]fsr0
  6916  08E8  00C7               	movwf	??_fround+5
  6917  08E9  0847               	movf	??_fround+5,w
  6918  08EA  00A7               	movwf	___flmul@b+3
  6919  08EB  0846               	movf	??_fround+4,w
  6920  08EC  00A6               	movwf	___flmul@b+2
  6921  08ED  0845               	movf	??_fround+3,w
  6922  08EE  00A5               	movwf	___flmul@b+1
  6923  08EF  0844               	movf	??_fround+2,w
  6924  08F0  00A4               	movwf	___flmul@b
  6925  08F1  084B               	movf	_fround$1149+3,w
  6926  08F2  00AB               	movwf	___flmul@a+3
  6927  08F3  084A               	movf	_fround$1149+2,w
  6928  08F4  00AA               	movwf	___flmul@a+2
  6929  08F5  0849               	movf	_fround$1149+1,w
  6930  08F6  00A9               	movwf	___flmul@a+1
  6931  08F7  0848               	movf	_fround$1149,w
  6932  08F8  00A8               	movwf	___flmul@a
  6933  08F9  318D  25A9  3188   	fcall	___flmul
  6934  08FC  0020               	movlb	0	; select bank0
  6935  08FD  0827               	movf	?___flmul+3,w
  6936  08FE  00C1               	movwf	?_fround+3
  6937  08FF  0826               	movf	?___flmul+2,w
  6938  0900  00C0               	movwf	?_fround+2
  6939  0901  0825               	movf	?___flmul+1,w
  6940  0902  00BF               	movwf	?_fround+1
  6941  0903  0824               	movf	?___flmul,w
  6942  0904  00BE               	movwf	?_fround
  6943  0905  29BC               	goto	l203
  6944  0906                     l2641:	
  6945                           
  6946                           ;doprnt.c: 423: else if(prec > 10)
  6947  0906  300B               	movlw	11
  6948  0907  0250               	subwf	fround@prec,w
  6949  0908  1C03               	skipc
  6950  0909  290B               	goto	u3641
  6951  090A  290C               	goto	u3640
  6952  090B                     u3641:	
  6953  090B  298B               	goto	l2647
  6954  090C                     u3640:	
  6955  090C                     l2643:	
  6956                           
  6957                           ;doprnt.c: 424: return 0.5 * _npowers_[prec/10U+9U] * _npowers_[prec%10U];
  6958  090C  303F               	movlw	63
  6959  090D  00A7               	movwf	___flmul@b+3
  6960  090E  3000               	movlw	0
  6961  090F  00A6               	movwf	___flmul@b+2
  6962  0910  3000               	movlw	0
  6963  0911  00A5               	movwf	___flmul@b+1
  6964  0912  3000               	movlw	0
  6965  0913  00A4               	movwf	___flmul@b
  6966  0914  300A               	movlw	10
  6967  0915  00F6               	movwf	___lwdiv@divisor
  6968  0916  3000               	movlw	0
  6969  0917  00F7               	movwf	___lwdiv@divisor+1
  6970  0918  0850               	movf	fround@prec,w
  6971  0919  00C2               	movwf	??_fround
  6972  091A  01C3               	clrf	??_fround+1
  6973  091B  0842               	movf	??_fround,w
  6974  091C  00F8               	movwf	___lwdiv@dividend
  6975  091D  0843               	movf	??_fround+1,w
  6976  091E  00F9               	movwf	___lwdiv@dividend+1
  6977  091F  3192  2218  3188   	fcall	___lwdiv
  6978  0922  0877               	movf	?___lwdiv+1,w
  6979  0923  0085               	movwf	5
  6980  0924  0876               	movf	?___lwdiv,w
  6981  0925  0084               	movwf	4
  6982  0926  3584               	lslf	4,f
  6983  0927  0D85               	rlf	5,f
  6984  0928  3584               	lslf	4,f
  6985  0929  0D85               	rlf	5,f
  6986  092A  3058               	movlw	low ((__npowers_+36)| (0+32768))
  6987  092B  0784               	addwf	4,f
  6988  092C  3098               	movlw	high ((__npowers_+36)| (0+32768))
  6989  092D  3D85               	addwfc	5,f
  6990  092E  3F00               	moviw [0]fsr0
  6991  092F  0020               	movlb	0	; select bank0
  6992  0930  00C4               	movwf	??_fround+2
  6993  0931  3F01               	moviw [1]fsr0
  6994  0932  00C5               	movwf	??_fround+3
  6995  0933  3F02               	moviw [2]fsr0
  6996  0934  00C6               	movwf	??_fround+4
  6997  0935  3F03               	moviw [3]fsr0
  6998  0936  00C7               	movwf	??_fround+5
  6999  0937  0847               	movf	??_fround+5,w
  7000  0938  00AB               	movwf	___flmul@a+3
  7001  0939  0846               	movf	??_fround+4,w
  7002  093A  00AA               	movwf	___flmul@a+2
  7003  093B  0845               	movf	??_fround+3,w
  7004  093C  00A9               	movwf	___flmul@a+1
  7005  093D  0844               	movf	??_fround+2,w
  7006  093E  00A8               	movwf	___flmul@a
  7007  093F  318D  25A9  3188   	fcall	___flmul
  7008  0942  0020               	movlb	0	; select bank0
  7009  0943  0827               	movf	?___flmul+3,w
  7010  0944  00CF               	movwf	_fround$1148+3
  7011  0945  0826               	movf	?___flmul+2,w
  7012  0946  00CE               	movwf	_fround$1148+2
  7013  0947  0825               	movf	?___flmul+1,w
  7014  0948  00CD               	movwf	_fround$1148+1
  7015  0949  0824               	movf	?___flmul,w
  7016  094A  00CC               	movwf	_fround$1148
  7017                           
  7018                           ;doprnt.c: 424: return 0.5 * _npowers_[prec/10U+9U] * _npowers_[prec%10U];
  7019  094B  300A               	movlw	10
  7020  094C  00F0               	movwf	___lwmod@divisor
  7021  094D  3000               	movlw	0
  7022  094E  00F1               	movwf	___lwmod@divisor+1
  7023  094F  0850               	movf	fround@prec,w
  7024  0950  00C2               	movwf	??_fround
  7025  0951  01C3               	clrf	??_fround+1
  7026  0952  0842               	movf	??_fround,w
  7027  0953  00F2               	movwf	___lwmod@dividend
  7028  0954  0843               	movf	??_fround+1,w
  7029  0955  00F3               	movwf	___lwmod@dividend+1
  7030  0956  3188  2001  3188   	fcall	___lwmod
  7031  0959  0871               	movf	?___lwmod+1,w
  7032  095A  0085               	movwf	5
  7033  095B  0870               	movf	?___lwmod,w
  7034  095C  0084               	movwf	4
  7035  095D  3584               	lslf	4,f
  7036  095E  0D85               	rlf	5,f
  7037  095F  3584               	lslf	4,f
  7038  0960  0D85               	rlf	5,f
  7039  0961  3034               	movlw	low (__npowers_| (0+32768))
  7040  0962  0784               	addwf	4,f
  7041  0963  3098               	movlw	high (__npowers_| (0+32768))
  7042  0964  3D85               	addwfc	5,f
  7043  0965  3F00               	moviw [0]fsr0
  7044  0966  0020               	movlb	0	; select bank0
  7045  0967  00C4               	movwf	??_fround+2
  7046  0968  3F01               	moviw [1]fsr0
  7047  0969  00C5               	movwf	??_fround+3
  7048  096A  3F02               	moviw [2]fsr0
  7049  096B  00C6               	movwf	??_fround+4
  7050  096C  3F03               	moviw [3]fsr0
  7051  096D  00C7               	movwf	??_fround+5
  7052  096E  0847               	movf	??_fround+5,w
  7053  096F  00A7               	movwf	___flmul@b+3
  7054  0970  0846               	movf	??_fround+4,w
  7055  0971  00A6               	movwf	___flmul@b+2
  7056  0972  0845               	movf	??_fround+3,w
  7057  0973  00A5               	movwf	___flmul@b+1
  7058  0974  0844               	movf	??_fround+2,w
  7059  0975  00A4               	movwf	___flmul@b
  7060  0976  084F               	movf	_fround$1148+3,w
  7061  0977  00AB               	movwf	___flmul@a+3
  7062  0978  084E               	movf	_fround$1148+2,w
  7063  0979  00AA               	movwf	___flmul@a+2
  7064  097A  084D               	movf	_fround$1148+1,w
  7065  097B  00A9               	movwf	___flmul@a+1
  7066  097C  084C               	movf	_fround$1148,w
  7067  097D  00A8               	movwf	___flmul@a
  7068  097E  318D  25A9  3188   	fcall	___flmul
  7069  0981  0020               	movlb	0	; select bank0
  7070  0982  0827               	movf	?___flmul+3,w
  7071  0983  00C1               	movwf	?_fround+3
  7072  0984  0826               	movf	?___flmul+2,w
  7073  0985  00C0               	movwf	?_fround+2
  7074  0986  0825               	movf	?___flmul+1,w
  7075  0987  00BF               	movwf	?_fround+1
  7076  0988  0824               	movf	?___flmul,w
  7077  0989  00BE               	movwf	?_fround
  7078  098A  29BC               	goto	l203
  7079  098B                     l2647:	
  7080                           
  7081                           ;doprnt.c: 425: return 0.5 * _npowers_[prec];
  7082  098B  303F               	movlw	63
  7083  098C  00A7               	movwf	___flmul@b+3
  7084  098D  3000               	movlw	0
  7085  098E  00A6               	movwf	___flmul@b+2
  7086  098F  3000               	movlw	0
  7087  0990  00A5               	movwf	___flmul@b+1
  7088  0991  3000               	movlw	0
  7089  0992  00A4               	movwf	___flmul@b
  7090  0993  0850               	movf	fround@prec,w
  7091  0994  00C2               	movwf	??_fround
  7092  0995  01C3               	clrf	??_fround+1
  7093  0996  35C2               	lslf	??_fround,f
  7094  0997  0DC3               	rlf	??_fround+1,f
  7095  0998  35C2               	lslf	??_fround,f
  7096  0999  0DC3               	rlf	??_fround+1,f
  7097  099A  3034               	movlw	low (__npowers_| (0+32768))
  7098  099B  0742               	addwf	??_fround,w
  7099  099C  0084               	movwf	4
  7100  099D  3098               	movlw	high (__npowers_| (0+32768))
  7101  099E  3D43               	addwfc	??_fround+1,w
  7102  099F  0085               	movwf	5
  7103  09A0  3F00               	moviw [0]fsr0
  7104  09A1  00C4               	movwf	??_fround+2
  7105  09A2  3F01               	moviw [1]fsr0
  7106  09A3  00C5               	movwf	??_fround+3
  7107  09A4  3F02               	moviw [2]fsr0
  7108  09A5  00C6               	movwf	??_fround+4
  7109  09A6  3F03               	moviw [3]fsr0
  7110  09A7  00C7               	movwf	??_fround+5
  7111  09A8  0847               	movf	??_fround+5,w
  7112  09A9  00AB               	movwf	___flmul@a+3
  7113  09AA  0846               	movf	??_fround+4,w
  7114  09AB  00AA               	movwf	___flmul@a+2
  7115  09AC  0845               	movf	??_fround+3,w
  7116  09AD  00A9               	movwf	___flmul@a+1
  7117  09AE  0844               	movf	??_fround+2,w
  7118  09AF  00A8               	movwf	___flmul@a
  7119  09B0  318D  25A9  3188   	fcall	___flmul
  7120  09B3  0020               	movlb	0	; select bank0
  7121  09B4  0827               	movf	?___flmul+3,w
  7122  09B5  00C1               	movwf	?_fround+3
  7123  09B6  0826               	movf	?___flmul+2,w
  7124  09B7  00C0               	movwf	?_fround+2
  7125  09B8  0825               	movf	?___flmul+1,w
  7126  09B9  00BF               	movwf	?_fround+1
  7127  09BA  0824               	movf	?___flmul,w
  7128  09BB  00BE               	movwf	?_fround
  7129  09BC                     l203:	
  7130  09BC  0008               	return
  7131  09BD                     __end_of_fround:	
  7132                           
  7133                           	psect	text7
  7134  0801                     __ptext7:	
  7135 ;; *************** function ___lwmod *****************
  7136 ;; Defined at:
  7137 ;;		line 5 in file "C:\Program Files (x86)\Microchip\xc8\v2.10\pic\sources\c90\common\lwmod.c"
  7138 ;; Parameters:    Size  Location     Type
  7139 ;;  divisor         2    0[COMMON] unsigned int 
  7140 ;;  dividend        2    2[COMMON] unsigned int 
  7141 ;; Auto vars:     Size  Location     Type
  7142 ;;  counter         1    5[COMMON] unsigned char 
  7143 ;; Return value:  Size  Location     Type
  7144 ;;                  2    0[COMMON] unsigned int 
  7145 ;; Registers used:
  7146 ;;		wreg, status,2, status,0
  7147 ;; Tracked objects:
  7148 ;;		On entry : 0/0
  7149 ;;		On exit  : 0/0
  7150 ;;		Unchanged: 0/0
  7151 ;; Data sizes:     COMMON   BANK0   BANK1   BANK2   BANK3   BANK4   BANK5   BANK6   BANK7   BANK8   BANK9  BANK10  BANK1
      +1  BANK12
  7152 ;;      Params:         4       0       0       0       0       0       0       0       0       0       0       0       
      +0       0
  7153 ;;      Locals:         1       0       0       0       0       0       0       0       0       0       0       0       
      +0       0
  7154 ;;      Temps:          1       0       0       0       0       0       0       0       0       0       0       0       
      +0       0
  7155 ;;      Totals:         6       0       0       0       0       0       0       0       0       0       0       0       
      +0       0
  7156 ;;Total ram usage:        6 bytes
  7157 ;; Hardware stack levels used:    1
  7158 ;; Hardware stack levels required when called:    1
  7159 ;; This function calls:
  7160 ;;		Nothing
  7161 ;; This function is called by:
  7162 ;;		_fround
  7163 ;; This function uses a non-reentrant model
  7164 ;;
  7165                           
  7166                           
  7167                           ;psect for function ___lwmod
  7168  0801                     ___lwmod:	
  7169  0801                     l2277:	
  7170                           ;incstack = 0
  7171                           ; Regs used in ___lwmod: [wreg+status,2+status,0]
  7172                           
  7173  0801  0870               	movf	___lwmod@divisor,w
  7174  0802  0471               	iorwf	___lwmod@divisor+1,w
  7175  0803  1903               	btfsc	3,2
  7176  0804  2806               	goto	u2881
  7177  0805  2807               	goto	u2880
  7178  0806                     u2881:	
  7179  0806  2830               	goto	l2295
  7180  0807                     u2880:	
  7181  0807                     l2279:	
  7182  0807  01F5               	clrf	___lwmod@counter
  7183  0808  0AF5               	incf	___lwmod@counter,f
  7184  0809  2813               	goto	l2285
  7185  080A                     l2281:	
  7186  080A  3001               	movlw	1
  7187  080B                     u2895:	
  7188  080B  35F0               	lslf	___lwmod@divisor,f
  7189  080C  0DF1               	rlf	___lwmod@divisor+1,f
  7190  080D  0B89               	decfsz	9,f
  7191  080E  280B               	goto	u2895
  7192  080F                     l2283:	
  7193  080F  3001               	movlw	1
  7194  0810  00F4               	movwf	??___lwmod
  7195  0811  0874               	movf	??___lwmod,w
  7196  0812  07F5               	addwf	___lwmod@counter,f
  7197  0813                     l2285:	
  7198  0813  1FF1               	btfss	___lwmod@divisor+1,7
  7199  0814  2816               	goto	u2901
  7200  0815  2817               	goto	u2900
  7201  0816                     u2901:	
  7202  0816  280A               	goto	l2281
  7203  0817                     u2900:	
  7204  0817                     l2287:	
  7205  0817  0871               	movf	___lwmod@divisor+1,w
  7206  0818  0273               	subwf	___lwmod@dividend+1,w
  7207  0819  1D03               	skipz
  7208  081A  281D               	goto	u2915
  7209  081B  0870               	movf	___lwmod@divisor,w
  7210  081C  0272               	subwf	___lwmod@dividend,w
  7211  081D                     u2915:	
  7212  081D  1C03               	skipc
  7213  081E  2820               	goto	u2911
  7214  081F  2821               	goto	u2910
  7215  0820                     u2911:	
  7216  0820  2825               	goto	l2291
  7217  0821                     u2910:	
  7218  0821                     l2289:	
  7219  0821  0870               	movf	___lwmod@divisor,w
  7220  0822  02F2               	subwf	___lwmod@dividend,f
  7221  0823  0871               	movf	___lwmod@divisor+1,w
  7222  0824  3BF3               	subwfb	___lwmod@dividend+1,f
  7223  0825                     l2291:	
  7224  0825  3001               	movlw	1
  7225  0826                     u2925:	
  7226  0826  36F1               	lsrf	___lwmod@divisor+1,f
  7227  0827  0CF0               	rrf	___lwmod@divisor,f
  7228  0828  0B89               	decfsz	9,f
  7229  0829  2826               	goto	u2925
  7230  082A                     l2293:	
  7231  082A  3001               	movlw	1
  7232  082B  02F5               	subwf	___lwmod@counter,f
  7233  082C  1D03               	btfss	3,2
  7234  082D  282F               	goto	u2931
  7235  082E  2830               	goto	u2930
  7236  082F                     u2931:	
  7237  082F  2817               	goto	l2287
  7238  0830                     u2930:	
  7239  0830                     l2295:	
  7240  0830  0873               	movf	___lwmod@dividend+1,w
  7241  0831  00F1               	movwf	?___lwmod+1
  7242  0832  0872               	movf	___lwmod@dividend,w
  7243  0833  00F0               	movwf	?___lwmod
  7244  0834                     l596:	
  7245  0834  0008               	return
  7246  0835                     __end_of___lwmod:	
  7247                           
  7248                           	psect	text8
  7249  1218                     __ptext8:	
  7250 ;; *************** function ___lwdiv *****************
  7251 ;; Defined at:
  7252 ;;		line 5 in file "C:\Program Files (x86)\Microchip\xc8\v2.10\pic\sources\c90\common\lwdiv.c"
  7253 ;; Parameters:    Size  Location     Type
  7254 ;;  divisor         2    6[COMMON] unsigned int 
  7255 ;;  dividend        2    8[COMMON] unsigned int 
  7256 ;; Auto vars:     Size  Location     Type
  7257 ;;  quotient        2   11[COMMON] unsigned int 
  7258 ;;  counter         1   13[COMMON] unsigned char 
  7259 ;; Return value:  Size  Location     Type
  7260 ;;                  2    6[COMMON] unsigned int 
  7261 ;; Registers used:
  7262 ;;		wreg, status,2, status,0
  7263 ;; Tracked objects:
  7264 ;;		On entry : 0/0
  7265 ;;		On exit  : 0/0
  7266 ;;		Unchanged: 0/0
  7267 ;; Data sizes:     COMMON   BANK0   BANK1   BANK2   BANK3   BANK4   BANK5   BANK6   BANK7   BANK8   BANK9  BANK10  BANK1
      +1  BANK12
  7268 ;;      Params:         4       0       0       0       0       0       0       0       0       0       0       0       
      +0       0
  7269 ;;      Locals:         3       0       0       0       0       0       0       0       0       0       0       0       
      +0       0
  7270 ;;      Temps:          1       0       0       0       0       0       0       0       0       0       0       0       
      +0       0
  7271 ;;      Totals:         8       0       0       0       0       0       0       0       0       0       0       0       
      +0       0
  7272 ;;Total ram usage:        8 bytes
  7273 ;; Hardware stack levels used:    1
  7274 ;; Hardware stack levels required when called:    1
  7275 ;; This function calls:
  7276 ;;		Nothing
  7277 ;; This function is called by:
  7278 ;;		_fround
  7279 ;; This function uses a non-reentrant model
  7280 ;;
  7281                           
  7282                           
  7283                           ;psect for function ___lwdiv
  7284  1218                     ___lwdiv:	
  7285  1218                     l2251:	
  7286                           ;incstack = 0
  7287                           ; Regs used in ___lwdiv: [wreg+status,2+status,0]
  7288                           
  7289  1218  01FB               	clrf	___lwdiv@quotient
  7290  1219  01FC               	clrf	___lwdiv@quotient+1
  7291  121A                     l2253:	
  7292  121A  0876               	movf	___lwdiv@divisor,w
  7293  121B  0477               	iorwf	___lwdiv@divisor+1,w
  7294  121C  1903               	btfsc	3,2
  7295  121D  2A1F               	goto	u2811
  7296  121E  2A20               	goto	u2810
  7297  121F                     u2811:	
  7298  121F  2A4F               	goto	l2273
  7299  1220                     u2810:	
  7300  1220                     l2255:	
  7301  1220  01FD               	clrf	___lwdiv@counter
  7302  1221  0AFD               	incf	___lwdiv@counter,f
  7303  1222  2A2C               	goto	l2261
  7304  1223                     l2257:	
  7305  1223  3001               	movlw	1
  7306  1224                     u2825:	
  7307  1224  35F6               	lslf	___lwdiv@divisor,f
  7308  1225  0DF7               	rlf	___lwdiv@divisor+1,f
  7309  1226  0B89               	decfsz	9,f
  7310  1227  2A24               	goto	u2825
  7311  1228                     l2259:	
  7312  1228  3001               	movlw	1
  7313  1229  00FA               	movwf	??___lwdiv
  7314  122A  087A               	movf	??___lwdiv,w
  7315  122B  07FD               	addwf	___lwdiv@counter,f
  7316  122C                     l2261:	
  7317  122C  1FF7               	btfss	___lwdiv@divisor+1,7
  7318  122D  2A2F               	goto	u2831
  7319  122E  2A30               	goto	u2830
  7320  122F                     u2831:	
  7321  122F  2A23               	goto	l2257
  7322  1230                     u2830:	
  7323  1230                     l2263:	
  7324  1230  3001               	movlw	1
  7325  1231                     u2845:	
  7326  1231  35FB               	lslf	___lwdiv@quotient,f
  7327  1232  0DFC               	rlf	___lwdiv@quotient+1,f
  7328  1233  0B89               	decfsz	9,f
  7329  1234  2A31               	goto	u2845
  7330  1235  0877               	movf	___lwdiv@divisor+1,w
  7331  1236  0279               	subwf	___lwdiv@dividend+1,w
  7332  1237  1D03               	skipz
  7333  1238  2A3B               	goto	u2855
  7334  1239  0876               	movf	___lwdiv@divisor,w
  7335  123A  0278               	subwf	___lwdiv@dividend,w
  7336  123B                     u2855:	
  7337  123B  1C03               	skipc
  7338  123C  2A3E               	goto	u2851
  7339  123D  2A3F               	goto	u2850
  7340  123E                     u2851:	
  7341  123E  2A44               	goto	l2269
  7342  123F                     u2850:	
  7343  123F                     l2265:	
  7344  123F  0876               	movf	___lwdiv@divisor,w
  7345  1240  02F8               	subwf	___lwdiv@dividend,f
  7346  1241  0877               	movf	___lwdiv@divisor+1,w
  7347  1242  3BF9               	subwfb	___lwdiv@dividend+1,f
  7348  1243                     l2267:	
  7349  1243  147B               	bsf	___lwdiv@quotient,0
  7350  1244                     l2269:	
  7351  1244  3001               	movlw	1
  7352  1245                     u2865:	
  7353  1245  36F7               	lsrf	___lwdiv@divisor+1,f
  7354  1246  0CF6               	rrf	___lwdiv@divisor,f
  7355  1247  0B89               	decfsz	9,f
  7356  1248  2A45               	goto	u2865
  7357  1249                     l2271:	
  7358  1249  3001               	movlw	1
  7359  124A  02FD               	subwf	___lwdiv@counter,f
  7360  124B  1D03               	btfss	3,2
  7361  124C  2A4E               	goto	u2871
  7362  124D  2A4F               	goto	u2870
  7363  124E                     u2871:	
  7364  124E  2A30               	goto	l2263
  7365  124F                     u2870:	
  7366  124F                     l2273:	
  7367  124F  087C               	movf	___lwdiv@quotient+1,w
  7368  1250  00F7               	movwf	?___lwdiv+1
  7369  1251  087B               	movf	___lwdiv@quotient,w
  7370  1252  00F6               	movwf	?___lwdiv
  7371  1253                     l586:	
  7372  1253  0008               	return
  7373  1254                     __end_of___lwdiv:	
  7374                           
  7375                           	psect	text9
  7376  0DA9                     __ptext9:	
  7377 ;; *************** function ___flmul *****************
  7378 ;; Defined at:
  7379 ;;		line 8 in file "C:\Program Files (x86)\Microchip\xc8\v2.10\pic\sources\c90\common\sprcmul.c"
  7380 ;; Parameters:    Size  Location     Type
  7381 ;;  b               4    4[BANK0 ] unsigned int 
  7382 ;;  a               4    8[BANK0 ] unsigned int 
  7383 ;; Auto vars:     Size  Location     Type
  7384 ;;  prod            4   24[BANK0 ] struct .
  7385 ;;  grs             4   18[BANK0 ] unsigned long 
  7386 ;;  temp            2   28[BANK0 ] struct .
  7387 ;;  bexp            1   23[BANK0 ] unsigned char 
  7388 ;;  aexp            1   22[BANK0 ] unsigned char 
  7389 ;;  sign            1   17[BANK0 ] unsigned char 
  7390 ;; Return value:  Size  Location     Type
  7391 ;;                  4    4[BANK0 ] unsigned char 
  7392 ;; Registers used:
  7393 ;;		wreg, status,2, status,0, pclath, cstack
  7394 ;; Tracked objects:
  7395 ;;		On entry : 0/0
  7396 ;;		On exit  : 0/0
  7397 ;;		Unchanged: 0/0
  7398 ;; Data sizes:     COMMON   BANK0   BANK1   BANK2   BANK3   BANK4   BANK5   BANK6   BANK7   BANK8   BANK9  BANK10  BANK1
      +1  BANK12
  7399 ;;      Params:         0       8       0       0       0       0       0       0       0       0       0       0       
      +0       0
  7400 ;;      Locals:         0      13       0       0       0       0       0       0       0       0       0       0       
      +0       0
  7401 ;;      Temps:          0       5       0       0       0       0       0       0       0       0       0       0       
      +0       0
  7402 ;;      Totals:         0      26       0       0       0       0       0       0       0       0       0       0       
      +0       0
  7403 ;;Total ram usage:       26 bytes
  7404 ;; Hardware stack levels used:    1
  7405 ;; Hardware stack levels required when called:    2
  7406 ;; This function calls:
  7407 ;;		__Umul8_16
  7408 ;; This function is called by:
  7409 ;;		_main
  7410 ;;		_fround
  7411 ;;		_scale
  7412 ;;		_sprintf
  7413 ;; This function uses a non-reentrant model
  7414 ;;
  7415                           
  7416                           
  7417                           ;psect for function ___flmul
  7418  0DA9                     ___flmul:	
  7419  0DA9                     l2493:	
  7420                           ;incstack = 0
  7421                           ; Regs used in ___flmul: [wreg+status,2+status,0+pclath+cstack]
  7422                           
  7423  0DA9  0020               	movlb	0	; select bank0
  7424  0DAA  0827               	movf	___flmul@b+3,w
  7425  0DAB  3980               	andlw	128
  7426  0DAC  00AC               	movwf	??___flmul
  7427  0DAD  082C               	movf	??___flmul,w
  7428  0DAE  00B1               	movwf	___flmul@sign
  7429  0DAF                     l2495:	
  7430  0DAF  3527               	lslf	___flmul@b+3,w
  7431  0DB0  00AC               	movwf	??___flmul
  7432  0DB1  082C               	movf	??___flmul,w
  7433  0DB2  00B7               	movwf	___flmul@bexp
  7434  0DB3                     l2497:	
  7435  0DB3  1FA6               	btfss	___flmul@b+2,7
  7436  0DB4  2DB6               	goto	u3371
  7437  0DB5  2DB7               	goto	u3370
  7438  0DB6                     u3371:	
  7439  0DB6  2DB8               	goto	l2501
  7440  0DB7                     u3370:	
  7441  0DB7                     l2499:	
  7442  0DB7  1437               	bsf	___flmul@bexp,0
  7443  0DB8                     l2501:	
  7444  0DB8  0837               	movf	___flmul@bexp,w
  7445  0DB9  1903               	btfsc	3,2
  7446  0DBA  2DBC               	goto	u3381
  7447  0DBB  2DBD               	goto	u3380
  7448  0DBC                     u3381:	
  7449  0DBC  2DCC               	goto	l2509
  7450  0DBD                     u3380:	
  7451  0DBD                     l2503:	
  7452  0DBD  0A37               	incf	___flmul@bexp,w
  7453  0DBE  1D03               	btfss	3,2
  7454  0DBF  2DC1               	goto	u3391
  7455  0DC0  2DC2               	goto	u3390
  7456  0DC1                     u3391:	
  7457  0DC1  2DCA               	goto	l2507
  7458  0DC2                     u3390:	
  7459  0DC2                     l2505:	
  7460  0DC2  3000               	movlw	0
  7461  0DC3  00A7               	movwf	___flmul@b+3
  7462  0DC4  3000               	movlw	0
  7463  0DC5  00A6               	movwf	___flmul@b+2
  7464  0DC6  3000               	movlw	0
  7465  0DC7  00A5               	movwf	___flmul@b+1
  7466  0DC8  3000               	movlw	0
  7467  0DC9  00A4               	movwf	___flmul@b
  7468  0DCA                     l2507:	
  7469  0DCA  17A6               	bsf	___flmul@b+2,7
  7470  0DCB  2DD4               	goto	l2511
  7471  0DCC                     l2509:	
  7472  0DCC  3000               	movlw	0
  7473  0DCD  00A7               	movwf	___flmul@b+3
  7474  0DCE  3000               	movlw	0
  7475  0DCF  00A6               	movwf	___flmul@b+2
  7476  0DD0  3000               	movlw	0
  7477  0DD1  00A5               	movwf	___flmul@b+1
  7478  0DD2  3000               	movlw	0
  7479  0DD3  00A4               	movwf	___flmul@b
  7480  0DD4                     l2511:	
  7481  0DD4  082B               	movf	___flmul@a+3,w
  7482  0DD5  3980               	andlw	128
  7483  0DD6  00AC               	movwf	??___flmul
  7484  0DD7  082C               	movf	??___flmul,w
  7485  0DD8  06B1               	xorwf	___flmul@sign,f
  7486  0DD9                     l2513:	
  7487  0DD9  352B               	lslf	___flmul@a+3,w
  7488  0DDA  00AC               	movwf	??___flmul
  7489  0DDB  082C               	movf	??___flmul,w
  7490  0DDC  00B6               	movwf	___flmul@aexp
  7491  0DDD                     l2515:	
  7492  0DDD  1FAA               	btfss	___flmul@a+2,7
  7493  0DDE  2DE0               	goto	u3401
  7494  0DDF  2DE1               	goto	u3400
  7495  0DE0                     u3401:	
  7496  0DE0  2DE2               	goto	l2519
  7497  0DE1                     u3400:	
  7498  0DE1                     l2517:	
  7499  0DE1  1436               	bsf	___flmul@aexp,0
  7500  0DE2                     l2519:	
  7501  0DE2  0836               	movf	___flmul@aexp,w
  7502  0DE3  1903               	btfsc	3,2
  7503  0DE4  2DE6               	goto	u3411
  7504  0DE5  2DE7               	goto	u3410
  7505  0DE6                     u3411:	
  7506  0DE6  2DF6               	goto	l2527
  7507  0DE7                     u3410:	
  7508  0DE7                     l2521:	
  7509  0DE7  0A36               	incf	___flmul@aexp,w
  7510  0DE8  1D03               	btfss	3,2
  7511  0DE9  2DEB               	goto	u3421
  7512  0DEA  2DEC               	goto	u3420
  7513  0DEB                     u3421:	
  7514  0DEB  2DF4               	goto	l2525
  7515  0DEC                     u3420:	
  7516  0DEC                     l2523:	
  7517  0DEC  3000               	movlw	0
  7518  0DED  00AB               	movwf	___flmul@a+3
  7519  0DEE  3000               	movlw	0
  7520  0DEF  00AA               	movwf	___flmul@a+2
  7521  0DF0  3000               	movlw	0
  7522  0DF1  00A9               	movwf	___flmul@a+1
  7523  0DF2  3000               	movlw	0
  7524  0DF3  00A8               	movwf	___flmul@a
  7525  0DF4                     l2525:	
  7526  0DF4  17AA               	bsf	___flmul@a+2,7
  7527  0DF5  2DFE               	goto	l2529
  7528  0DF6                     l2527:	
  7529  0DF6  3000               	movlw	0
  7530  0DF7  00AB               	movwf	___flmul@a+3
  7531  0DF8  3000               	movlw	0
  7532  0DF9  00AA               	movwf	___flmul@a+2
  7533  0DFA  3000               	movlw	0
  7534  0DFB  00A9               	movwf	___flmul@a+1
  7535  0DFC  3000               	movlw	0
  7536  0DFD  00A8               	movwf	___flmul@a
  7537  0DFE                     l2529:	
  7538  0DFE  0836               	movf	___flmul@aexp,w
  7539  0DFF  1903               	btfsc	3,2
  7540  0E00  2E02               	goto	u3431
  7541  0E01  2E03               	goto	u3430
  7542  0E02                     u3431:	
  7543  0E02  2E08               	goto	l2533
  7544  0E03                     u3430:	
  7545  0E03                     l2531:	
  7546  0E03  0837               	movf	___flmul@bexp,w
  7547  0E04  1D03               	btfss	3,2
  7548  0E05  2E07               	goto	u3441
  7549  0E06  2E08               	goto	u3440
  7550  0E07                     u3441:	
  7551  0E07  2E11               	goto	l2537
  7552  0E08                     u3440:	
  7553  0E08                     l2533:	
  7554  0E08  3000               	movlw	0
  7555  0E09  00A7               	movwf	?___flmul+3
  7556  0E0A  3000               	movlw	0
  7557  0E0B  00A6               	movwf	?___flmul+2
  7558  0E0C  3000               	movlw	0
  7559  0E0D  00A5               	movwf	?___flmul+1
  7560  0E0E  3000               	movlw	0
  7561  0E0F  00A4               	movwf	?___flmul
  7562  0E10  2FFF               	goto	l703
  7563  0E11                     l2537:	
  7564  0E11  0824               	movf	___flmul@b,w
  7565  0E12  00AC               	movwf	??___flmul
  7566  0E13  082C               	movf	??___flmul,w
  7567  0E14  00F0               	movwf	__Umul8_16@multiplicand
  7568  0E15  082A               	movf	___flmul@a+2,w
  7569  0E16  3191  21BF  318D   	fcall	__Umul8_16
  7570  0E19  0871               	movf	?__Umul8_16+1,w
  7571  0E1A  0020               	movlb	0	; select bank0
  7572  0E1B  00BD               	movwf	___flmul@temp+1
  7573  0E1C  0870               	movf	?__Umul8_16,w
  7574  0E1D  00BC               	movwf	___flmul@temp
  7575  0E1E                     l2539:	
  7576  0E1E  083C               	movf	___flmul@temp,w
  7577  0E1F  00AC               	movwf	??___flmul
  7578  0E20  01AD               	clrf	??___flmul+1
  7579  0E21  01AE               	clrf	??___flmul+2
  7580  0E22  01AF               	clrf	??___flmul+3
  7581  0E23  082F               	movf	??___flmul+3,w
  7582  0E24  00B5               	movwf	___flmul@grs+3
  7583  0E25  082E               	movf	??___flmul+2,w
  7584  0E26  00B4               	movwf	___flmul@grs+2
  7585  0E27  082D               	movf	??___flmul+1,w
  7586  0E28  00B3               	movwf	___flmul@grs+1
  7587  0E29  082C               	movf	??___flmul,w
  7588  0E2A  00B2               	movwf	___flmul@grs
  7589  0E2B                     l2541:	
  7590  0E2B  083D               	movf	___flmul@temp+1,w
  7591  0E2C  00AC               	movwf	??___flmul
  7592  0E2D  01AD               	clrf	??___flmul+1
  7593  0E2E  01AE               	clrf	??___flmul+2
  7594  0E2F  01AF               	clrf	??___flmul+3
  7595  0E30  082F               	movf	??___flmul+3,w
  7596  0E31  00BB               	movwf	___flmul@prod+3
  7597  0E32  082E               	movf	??___flmul+2,w
  7598  0E33  00BA               	movwf	___flmul@prod+2
  7599  0E34  082D               	movf	??___flmul+1,w
  7600  0E35  00B9               	movwf	___flmul@prod+1
  7601  0E36  082C               	movf	??___flmul,w
  7602  0E37  00B8               	movwf	___flmul@prod
  7603  0E38  0825               	movf	___flmul@b+1,w
  7604  0E39  00AC               	movwf	??___flmul
  7605  0E3A  082C               	movf	??___flmul,w
  7606  0E3B  00F0               	movwf	__Umul8_16@multiplicand
  7607  0E3C  0829               	movf	___flmul@a+1,w
  7608  0E3D  3191  21BF  318D   	fcall	__Umul8_16
  7609  0E40  0871               	movf	?__Umul8_16+1,w
  7610  0E41  0020               	movlb	0	; select bank0
  7611  0E42  00BD               	movwf	___flmul@temp+1
  7612  0E43  0870               	movf	?__Umul8_16,w
  7613  0E44  00BC               	movwf	___flmul@temp
  7614  0E45                     l2543:	
  7615  0E45  083C               	movf	___flmul@temp,w
  7616  0E46  00AC               	movwf	??___flmul
  7617  0E47  01AD               	clrf	??___flmul+1
  7618  0E48  01AE               	clrf	??___flmul+2
  7619  0E49  01AF               	clrf	??___flmul+3
  7620  0E4A  082C               	movf	??___flmul,w
  7621  0E4B  07B2               	addwf	___flmul@grs,f
  7622  0E4C  082D               	movf	??___flmul+1,w
  7623  0E4D  3DB3               	addwfc	___flmul@grs+1,f
  7624  0E4E  082E               	movf	??___flmul+2,w
  7625  0E4F  3DB4               	addwfc	___flmul@grs+2,f
  7626  0E50  082F               	movf	??___flmul+3,w
  7627  0E51  3DB5               	addwfc	___flmul@grs+3,f
  7628  0E52                     l2545:	
  7629  0E52  083D               	movf	___flmul@temp+1,w
  7630  0E53  00AC               	movwf	??___flmul
  7631  0E54  01AD               	clrf	??___flmul+1
  7632  0E55  01AE               	clrf	??___flmul+2
  7633  0E56  01AF               	clrf	??___flmul+3
  7634  0E57  082C               	movf	??___flmul,w
  7635  0E58  07B8               	addwf	___flmul@prod,f
  7636  0E59  082D               	movf	??___flmul+1,w
  7637  0E5A  3DB9               	addwfc	___flmul@prod+1,f
  7638  0E5B  082E               	movf	??___flmul+2,w
  7639  0E5C  3DBA               	addwfc	___flmul@prod+2,f
  7640  0E5D  082F               	movf	??___flmul+3,w
  7641  0E5E  3DBB               	addwfc	___flmul@prod+3,f
  7642  0E5F  0826               	movf	___flmul@b+2,w
  7643  0E60  00AC               	movwf	??___flmul
  7644  0E61  082C               	movf	??___flmul,w
  7645  0E62  00F0               	movwf	__Umul8_16@multiplicand
  7646  0E63  0828               	movf	___flmul@a,w
  7647  0E64  3191  21BF  318D   	fcall	__Umul8_16
  7648  0E67  0871               	movf	?__Umul8_16+1,w
  7649  0E68  0020               	movlb	0	; select bank0
  7650  0E69  00BD               	movwf	___flmul@temp+1
  7651  0E6A  0870               	movf	?__Umul8_16,w
  7652  0E6B  00BC               	movwf	___flmul@temp
  7653  0E6C                     l2547:	
  7654  0E6C  083C               	movf	___flmul@temp,w
  7655  0E6D  00AC               	movwf	??___flmul
  7656  0E6E  01AD               	clrf	??___flmul+1
  7657  0E6F  01AE               	clrf	??___flmul+2
  7658  0E70  01AF               	clrf	??___flmul+3
  7659  0E71  082C               	movf	??___flmul,w
  7660  0E72  07B2               	addwf	___flmul@grs,f
  7661  0E73  082D               	movf	??___flmul+1,w
  7662  0E74  3DB3               	addwfc	___flmul@grs+1,f
  7663  0E75  082E               	movf	??___flmul+2,w
  7664  0E76  3DB4               	addwfc	___flmul@grs+2,f
  7665  0E77  082F               	movf	??___flmul+3,w
  7666  0E78  3DB5               	addwfc	___flmul@grs+3,f
  7667  0E79                     l2549:	
  7668  0E79  083D               	movf	___flmul@temp+1,w
  7669  0E7A  00AC               	movwf	??___flmul
  7670  0E7B  01AD               	clrf	??___flmul+1
  7671  0E7C  01AE               	clrf	??___flmul+2
  7672  0E7D  01AF               	clrf	??___flmul+3
  7673  0E7E  082C               	movf	??___flmul,w
  7674  0E7F  07B8               	addwf	___flmul@prod,f
  7675  0E80  082D               	movf	??___flmul+1,w
  7676  0E81  3DB9               	addwfc	___flmul@prod+1,f
  7677  0E82  082E               	movf	??___flmul+2,w
  7678  0E83  3DBA               	addwfc	___flmul@prod+2,f
  7679  0E84  082F               	movf	??___flmul+3,w
  7680  0E85  3DBB               	addwfc	___flmul@prod+3,f
  7681  0E86                     l2551:	
  7682  0E86  3008               	movlw	8
  7683  0E87                     u3455:	
  7684  0E87  35B2               	lslf	___flmul@grs,f
  7685  0E88  0DB3               	rlf	___flmul@grs+1,f
  7686  0E89  0DB4               	rlf	___flmul@grs+2,f
  7687  0E8A  0DB5               	rlf	___flmul@grs+3,f
  7688  0E8B  0B89               	decfsz	9,f
  7689  0E8C  2E87               	goto	u3455
  7690  0E8D                     l2553:	
  7691  0E8D  0825               	movf	___flmul@b+1,w
  7692  0E8E  00AC               	movwf	??___flmul
  7693  0E8F  082C               	movf	??___flmul,w
  7694  0E90  00F0               	movwf	__Umul8_16@multiplicand
  7695  0E91  0828               	movf	___flmul@a,w
  7696  0E92  3191  21BF  318D   	fcall	__Umul8_16
  7697  0E95  0871               	movf	?__Umul8_16+1,w
  7698  0E96  0020               	movlb	0	; select bank0
  7699  0E97  00BD               	movwf	___flmul@temp+1
  7700  0E98  0870               	movf	?__Umul8_16,w
  7701  0E99  00BC               	movwf	___flmul@temp
  7702  0E9A                     l2555:	
  7703  0E9A  083C               	movf	___flmul@temp,w
  7704  0E9B  07B2               	addwf	___flmul@grs,f
  7705  0E9C  083D               	movf	___flmul@temp+1,w
  7706  0E9D  3DB3               	addwfc	___flmul@grs+1,f
  7707  0E9E  3000               	movlw	0
  7708  0E9F  3DB4               	addwfc	___flmul@grs+2,f
  7709  0EA0  3DB5               	addwfc	___flmul@grs+3,f
  7710  0EA1                     l2557:	
  7711  0EA1  0824               	movf	___flmul@b,w
  7712  0EA2  00AC               	movwf	??___flmul
  7713  0EA3  082C               	movf	??___flmul,w
  7714  0EA4  00F0               	movwf	__Umul8_16@multiplicand
  7715  0EA5  0829               	movf	___flmul@a+1,w
  7716  0EA6  3191  21BF  318D   	fcall	__Umul8_16
  7717  0EA9  0871               	movf	?__Umul8_16+1,w
  7718  0EAA  0020               	movlb	0	; select bank0
  7719  0EAB  00BD               	movwf	___flmul@temp+1
  7720  0EAC  0870               	movf	?__Umul8_16,w
  7721  0EAD  00BC               	movwf	___flmul@temp
  7722  0EAE                     l2559:	
  7723  0EAE  083C               	movf	___flmul@temp,w
  7724  0EAF  07B2               	addwf	___flmul@grs,f
  7725  0EB0  083D               	movf	___flmul@temp+1,w
  7726  0EB1  3DB3               	addwfc	___flmul@grs+1,f
  7727  0EB2  3000               	movlw	0
  7728  0EB3  3DB4               	addwfc	___flmul@grs+2,f
  7729  0EB4  3DB5               	addwfc	___flmul@grs+3,f
  7730  0EB5                     l2561:	
  7731  0EB5  3008               	movlw	8
  7732  0EB6                     u3465:	
  7733  0EB6  35B2               	lslf	___flmul@grs,f
  7734  0EB7  0DB3               	rlf	___flmul@grs+1,f
  7735  0EB8  0DB4               	rlf	___flmul@grs+2,f
  7736  0EB9  0DB5               	rlf	___flmul@grs+3,f
  7737  0EBA  0B89               	decfsz	9,f
  7738  0EBB  2EB6               	goto	u3465
  7739  0EBC  0824               	movf	___flmul@b,w
  7740  0EBD  00AC               	movwf	??___flmul
  7741  0EBE  082C               	movf	??___flmul,w
  7742  0EBF  00F0               	movwf	__Umul8_16@multiplicand
  7743  0EC0  0828               	movf	___flmul@a,w
  7744  0EC1  3191  21BF  318D   	fcall	__Umul8_16
  7745  0EC4  0871               	movf	?__Umul8_16+1,w
  7746  0EC5  0020               	movlb	0	; select bank0
  7747  0EC6  00BD               	movwf	___flmul@temp+1
  7748  0EC7  0870               	movf	?__Umul8_16,w
  7749  0EC8  00BC               	movwf	___flmul@temp
  7750  0EC9                     l2563:	
  7751  0EC9  083C               	movf	___flmul@temp,w
  7752  0ECA  07B2               	addwf	___flmul@grs,f
  7753  0ECB  083D               	movf	___flmul@temp+1,w
  7754  0ECC  3DB3               	addwfc	___flmul@grs+1,f
  7755  0ECD  3000               	movlw	0
  7756  0ECE  3DB4               	addwfc	___flmul@grs+2,f
  7757  0ECF  3DB5               	addwfc	___flmul@grs+3,f
  7758  0ED0                     l2565:	
  7759  0ED0  0825               	movf	___flmul@b+1,w
  7760  0ED1  00AC               	movwf	??___flmul
  7761  0ED2  082C               	movf	??___flmul,w
  7762  0ED3  00F0               	movwf	__Umul8_16@multiplicand
  7763  0ED4  082A               	movf	___flmul@a+2,w
  7764  0ED5  3191  21BF  318D   	fcall	__Umul8_16
  7765  0ED8  0871               	movf	?__Umul8_16+1,w
  7766  0ED9  0020               	movlb	0	; select bank0
  7767  0EDA  00BD               	movwf	___flmul@temp+1
  7768  0EDB  0870               	movf	?__Umul8_16,w
  7769  0EDC  00BC               	movwf	___flmul@temp
  7770  0EDD  083C               	movf	___flmul@temp,w
  7771  0EDE  07B8               	addwf	___flmul@prod,f
  7772  0EDF  083D               	movf	___flmul@temp+1,w
  7773  0EE0  3DB9               	addwfc	___flmul@prod+1,f
  7774  0EE1  3000               	movlw	0
  7775  0EE2  3DBA               	addwfc	___flmul@prod+2,f
  7776  0EE3  3DBB               	addwfc	___flmul@prod+3,f
  7777  0EE4                     l2567:	
  7778  0EE4  0826               	movf	___flmul@b+2,w
  7779  0EE5  00AC               	movwf	??___flmul
  7780  0EE6  082C               	movf	??___flmul,w
  7781  0EE7  00F0               	movwf	__Umul8_16@multiplicand
  7782  0EE8  0829               	movf	___flmul@a+1,w
  7783  0EE9  3191  21BF  318D   	fcall	__Umul8_16
  7784  0EEC  0871               	movf	?__Umul8_16+1,w
  7785  0EED  0020               	movlb	0	; select bank0
  7786  0EEE  00BD               	movwf	___flmul@temp+1
  7787  0EEF  0870               	movf	?__Umul8_16,w
  7788  0EF0  00BC               	movwf	___flmul@temp
  7789  0EF1                     l2569:	
  7790  0EF1  083C               	movf	___flmul@temp,w
  7791  0EF2  07B8               	addwf	___flmul@prod,f
  7792  0EF3  083D               	movf	___flmul@temp+1,w
  7793  0EF4  3DB9               	addwfc	___flmul@prod+1,f
  7794  0EF5  3000               	movlw	0
  7795  0EF6  3DBA               	addwfc	___flmul@prod+2,f
  7796  0EF7  3DBB               	addwfc	___flmul@prod+3,f
  7797  0EF8  0826               	movf	___flmul@b+2,w
  7798  0EF9  00AC               	movwf	??___flmul
  7799  0EFA  082C               	movf	??___flmul,w
  7800  0EFB  00F0               	movwf	__Umul8_16@multiplicand
  7801  0EFC  082A               	movf	___flmul@a+2,w
  7802  0EFD  3191  21BF  318D   	fcall	__Umul8_16
  7803  0F00  0871               	movf	?__Umul8_16+1,w
  7804  0F01  0020               	movlb	0	; select bank0
  7805  0F02  00BD               	movwf	___flmul@temp+1
  7806  0F03  0870               	movf	?__Umul8_16,w
  7807  0F04  00BC               	movwf	___flmul@temp
  7808  0F05                     l2571:	
  7809  0F05  083C               	movf	___flmul@temp,w
  7810  0F06  00AC               	movwf	??___flmul
  7811  0F07  083D               	movf	___flmul@temp+1,w
  7812  0F08  00AD               	movwf	??___flmul+1
  7813  0F09  01AE               	clrf	??___flmul+2
  7814  0F0A  01AF               	clrf	??___flmul+3
  7815  0F0B  3008               	movlw	8
  7816  0F0C                     u3475:	
  7817  0F0C  35AC               	lslf	??___flmul,f
  7818  0F0D  0DAD               	rlf	??___flmul+1,f
  7819  0F0E  0DAE               	rlf	??___flmul+2,f
  7820  0F0F  0DAF               	rlf	??___flmul+3,f
  7821  0F10                     u3470:	
  7822  0F10  0B89               	decfsz	9,f
  7823  0F11  2F0C               	goto	u3475
  7824  0F12  082C               	movf	??___flmul,w
  7825  0F13  07B8               	addwf	___flmul@prod,f
  7826  0F14  082D               	movf	??___flmul+1,w
  7827  0F15  3DB9               	addwfc	___flmul@prod+1,f
  7828  0F16  082E               	movf	??___flmul+2,w
  7829  0F17  3DBA               	addwfc	___flmul@prod+2,f
  7830  0F18  082F               	movf	??___flmul+3,w
  7831  0F19  3DBB               	addwfc	___flmul@prod+3,f
  7832  0F1A                     l2573:	
  7833  0F1A  0832               	movf	___flmul@grs,w
  7834  0F1B  00AC               	movwf	??___flmul
  7835  0F1C  0833               	movf	___flmul@grs+1,w
  7836  0F1D  00AD               	movwf	??___flmul+1
  7837  0F1E  0834               	movf	___flmul@grs+2,w
  7838  0F1F  00AE               	movwf	??___flmul+2
  7839  0F20  0835               	movf	___flmul@grs+3,w
  7840  0F21  00AF               	movwf	??___flmul+3
  7841  0F22  3018               	movlw	24
  7842  0F23                     u3485:	
  7843  0F23  36AF               	lsrf	??___flmul+3,f
  7844  0F24  0CAE               	rrf	??___flmul+2,f
  7845  0F25  0CAD               	rrf	??___flmul+1,f
  7846  0F26  0CAC               	rrf	??___flmul,f
  7847  0F27                     u3480:	
  7848  0F27  0B89               	decfsz	9,f
  7849  0F28  2F23               	goto	u3485
  7850  0F29  082C               	movf	??___flmul,w
  7851  0F2A  07B8               	addwf	___flmul@prod,f
  7852  0F2B  082D               	movf	??___flmul+1,w
  7853  0F2C  3DB9               	addwfc	___flmul@prod+1,f
  7854  0F2D  082E               	movf	??___flmul+2,w
  7855  0F2E  3DBA               	addwfc	___flmul@prod+2,f
  7856  0F2F  082F               	movf	??___flmul+3,w
  7857  0F30  3DBB               	addwfc	___flmul@prod+3,f
  7858  0F31                     l2575:	
  7859  0F31  3008               	movlw	8
  7860  0F32                     u3495:	
  7861  0F32  35B2               	lslf	___flmul@grs,f
  7862  0F33  0DB3               	rlf	___flmul@grs+1,f
  7863  0F34  0DB4               	rlf	___flmul@grs+2,f
  7864  0F35  0DB5               	rlf	___flmul@grs+3,f
  7865  0F36  0B89               	decfsz	9,f
  7866  0F37  2F32               	goto	u3495
  7867  0F38                     l2577:	
  7868  0F38  0837               	movf	___flmul@bexp,w
  7869  0F39  0736               	addwf	___flmul@aexp,w
  7870  0F3A  00AC               	movwf	??___flmul
  7871  0F3B  01AD               	clrf	??___flmul+1
  7872  0F3C  0DAD               	rlf	??___flmul+1,f
  7873  0F3D  082C               	movf	??___flmul,w
  7874  0F3E  3E82               	addlw	130
  7875  0F3F  00BC               	movwf	___flmul@temp
  7876  0F40  30FF               	movlw	255
  7877  0F41  3D2D               	addwfc	??___flmul+1,w
  7878  0F42  00BD               	movwf	___flmul@temp+1
  7879  0F43  2F5B               	goto	l2589
  7880  0F44                     l2579:	
  7881  0F44  3001               	movlw	1
  7882  0F45                     u3505:	
  7883  0F45  35B8               	lslf	___flmul@prod,f
  7884  0F46  0DB9               	rlf	___flmul@prod+1,f
  7885  0F47  0DBA               	rlf	___flmul@prod+2,f
  7886  0F48  0DBB               	rlf	___flmul@prod+3,f
  7887  0F49  0B89               	decfsz	9,f
  7888  0F4A  2F45               	goto	u3505
  7889  0F4B                     l2581:	
  7890  0F4B  1FB5               	btfss	___flmul@grs+3,7
  7891  0F4C  2F4E               	goto	u3511
  7892  0F4D  2F4F               	goto	u3510
  7893  0F4E                     u3511:	
  7894  0F4E  2F50               	goto	l2585
  7895  0F4F                     u3510:	
  7896  0F4F                     l2583:	
  7897  0F4F  1438               	bsf	___flmul@prod,0
  7898  0F50                     l2585:	
  7899  0F50  3001               	movlw	1
  7900  0F51                     u3525:	
  7901  0F51  35B2               	lslf	___flmul@grs,f
  7902  0F52  0DB3               	rlf	___flmul@grs+1,f
  7903  0F53  0DB4               	rlf	___flmul@grs+2,f
  7904  0F54  0DB5               	rlf	___flmul@grs+3,f
  7905  0F55  0B89               	decfsz	9,f
  7906  0F56  2F51               	goto	u3525
  7907  0F57                     l2587:	
  7908  0F57  30FF               	movlw	255
  7909  0F58  07BC               	addwf	___flmul@temp,f
  7910  0F59  30FF               	movlw	255
  7911  0F5A  3DBD               	addwfc	___flmul@temp+1,f
  7912  0F5B                     l2589:	
  7913  0F5B  1FBA               	btfss	___flmul@prod+2,7
  7914  0F5C  2F5E               	goto	u3531
  7915  0F5D  2F5F               	goto	u3530
  7916  0F5E                     u3531:	
  7917  0F5E  2F44               	goto	l2579
  7918  0F5F                     u3530:	
  7919  0F5F                     l2591:	
  7920  0F5F  01B6               	clrf	___flmul@aexp
  7921  0F60                     l2593:	
  7922  0F60  1FB5               	btfss	___flmul@grs+3,7
  7923  0F61  2F63               	goto	u3541
  7924  0F62  2F64               	goto	u3540
  7925  0F63                     u3541:	
  7926  0F63  2F80               	goto	l2601
  7927  0F64                     u3540:	
  7928  0F64                     l2595:	
  7929  0F64  30FF               	movlw	255
  7930  0F65  0532               	andwf	___flmul@grs,w
  7931  0F66  00AC               	movwf	??___flmul
  7932  0F67  30FF               	movlw	255
  7933  0F68  0533               	andwf	___flmul@grs+1,w
  7934  0F69  00AD               	movwf	??___flmul+1
  7935  0F6A  30FF               	movlw	255
  7936  0F6B  0534               	andwf	___flmul@grs+2,w
  7937  0F6C  00AE               	movwf	??___flmul+2
  7938  0F6D  307F               	movlw	127
  7939  0F6E  0535               	andwf	___flmul@grs+3,w
  7940  0F6F  00AF               	movwf	??___flmul+3
  7941  0F70  082F               	movf	??___flmul+3,w
  7942  0F71  042E               	iorwf	??___flmul+2,w
  7943  0F72  042D               	iorwf	??___flmul+1,w
  7944  0F73  042C               	iorwf	??___flmul,w
  7945  0F74  1903               	skipnz
  7946  0F75  2F77               	goto	u3551
  7947  0F76  2F78               	goto	u3550
  7948  0F77                     u3551:	
  7949  0F77  2F7B               	goto	l709
  7950  0F78                     u3550:	
  7951  0F78                     l2597:	
  7952  0F78  01B6               	clrf	___flmul@aexp
  7953  0F79  0AB6               	incf	___flmul@aexp,f
  7954  0F7A  2F80               	goto	l2601
  7955  0F7B                     l709:	
  7956  0F7B  1C38               	btfss	___flmul@prod,0
  7957  0F7C  2F7E               	goto	u3561
  7958  0F7D  2F7F               	goto	u3560
  7959  0F7E                     u3561:	
  7960  0F7E  2F80               	goto	l2601
  7961  0F7F                     u3560:	
  7962  0F7F  2F78               	goto	l2597
  7963  0F80                     l2601:	
  7964  0F80  0836               	movf	___flmul@aexp,w
  7965  0F81  1903               	btfsc	3,2
  7966  0F82  2F84               	goto	u3571
  7967  0F83  2F85               	goto	u3570
  7968  0F84                     u3571:	
  7969  0F84  2FAD               	goto	l2611
  7970  0F85                     u3570:	
  7971  0F85                     l2603:	
  7972  0F85  3001               	movlw	1
  7973  0F86  07B8               	addwf	___flmul@prod,f
  7974  0F87  3000               	movlw	0
  7975  0F88  3DB9               	addwfc	___flmul@prod+1,f
  7976  0F89  3000               	movlw	0
  7977  0F8A  3DBA               	addwfc	___flmul@prod+2,f
  7978  0F8B  3000               	movlw	0
  7979  0F8C  3DBB               	addwfc	___flmul@prod+3,f
  7980  0F8D                     l2605:	
  7981  0F8D  1C3B               	btfss	___flmul@prod+3,0
  7982  0F8E  2F90               	goto	u3581
  7983  0F8F  2F91               	goto	u3580
  7984  0F90                     u3581:	
  7985  0F90  2FAD               	goto	l2611
  7986  0F91                     u3580:	
  7987  0F91                     l2607:	
  7988  0F91  0838               	movf	___flmul@prod,w
  7989  0F92  00AC               	movwf	??___flmul
  7990  0F93  0839               	movf	___flmul@prod+1,w
  7991  0F94  00AD               	movwf	??___flmul+1
  7992  0F95  083A               	movf	___flmul@prod+2,w
  7993  0F96  00AE               	movwf	??___flmul+2
  7994  0F97  083B               	movf	___flmul@prod+3,w
  7995  0F98  00AF               	movwf	??___flmul+3
  7996  0F99  3001               	movlw	1
  7997  0F9A  00B0               	movwf	??___flmul+4
  7998  0F9B                     u3595:	
  7999  0F9B  37AF               	asrf	??___flmul+3,f
  8000  0F9C  0CAE               	rrf	??___flmul+2,f
  8001  0F9D  0CAD               	rrf	??___flmul+1,f
  8002  0F9E  0CAC               	rrf	??___flmul,f
  8003  0F9F                     u3590:	
  8004  0F9F  0BB0               	decfsz	??___flmul+4,f
  8005  0FA0  2F9B               	goto	u3595
  8006  0FA1  082F               	movf	??___flmul+3,w
  8007  0FA2  00BB               	movwf	___flmul@prod+3
  8008  0FA3  082E               	movf	??___flmul+2,w
  8009  0FA4  00BA               	movwf	___flmul@prod+2
  8010  0FA5  082D               	movf	??___flmul+1,w
  8011  0FA6  00B9               	movwf	___flmul@prod+1
  8012  0FA7  082C               	movf	??___flmul,w
  8013  0FA8  00B8               	movwf	___flmul@prod
  8014  0FA9                     l2609:	
  8015  0FA9  3001               	movlw	1
  8016  0FAA  07BC               	addwf	___flmul@temp,f
  8017  0FAB  3000               	movlw	0
  8018  0FAC  3DBD               	addwfc	___flmul@temp+1,f
  8019  0FAD                     l2611:	
  8020  0FAD  083D               	movf	___flmul@temp+1,w
  8021  0FAE  3A80               	xorlw	128
  8022  0FAF  00AC               	movwf	??___flmul
  8023  0FB0  3080               	movlw	128
  8024  0FB1  022C               	subwf	??___flmul,w
  8025  0FB2  1D03               	skipz
  8026  0FB3  2FB6               	goto	u3605
  8027  0FB4  30FF               	movlw	255
  8028  0FB5  023C               	subwf	___flmul@temp,w
  8029  0FB6                     u3605:	
  8030  0FB6  1C03               	skipc
  8031  0FB7  2FB9               	goto	u3601
  8032  0FB8  2FBA               	goto	u3600
  8033  0FB9                     u3601:	
  8034  0FB9  2FC4               	goto	l2615
  8035  0FBA                     u3600:	
  8036  0FBA                     l2613:	
  8037  0FBA  307F               	movlw	127
  8038  0FBB  0020               	movlb	0	; select bank0
  8039  0FBC  00BB               	movwf	___flmul@prod+3
  8040  0FBD  3080               	movlw	128
  8041  0FBE  00BA               	movwf	___flmul@prod+2
  8042  0FBF  3000               	movlw	0
  8043  0FC0  00B9               	movwf	___flmul@prod+1
  8044  0FC1  3000               	movlw	0
  8045  0FC2  00B8               	movwf	___flmul@prod
  8046  0FC3  2FF3               	goto	l715
  8047  0FC4                     l2615:	
  8048  0FC4  0020               	movlb	0	; select bank0
  8049  0FC5  083D               	movf	___flmul@temp+1,w
  8050  0FC6  3A80               	xorlw	128
  8051  0FC7  00AC               	movwf	??___flmul
  8052  0FC8  3080               	movlw	128
  8053  0FC9  022C               	subwf	??___flmul,w
  8054  0FCA  1D03               	skipz
  8055  0FCB  2FCE               	goto	u3615
  8056  0FCC  3001               	movlw	1
  8057  0FCD  023C               	subwf	___flmul@temp,w
  8058  0FCE                     u3615:	
  8059  0FCE  1803               	skipnc
  8060  0FCF  2FD1               	goto	u3611
  8061  0FD0  2FD2               	goto	u3610
  8062  0FD1                     u3611:	
  8063  0FD1  2FDD               	goto	l2621
  8064  0FD2                     u3610:	
  8065  0FD2                     l2617:	
  8066  0FD2  3000               	movlw	0
  8067  0FD3  0020               	movlb	0	; select bank0
  8068  0FD4  00BB               	movwf	___flmul@prod+3
  8069  0FD5  3000               	movlw	0
  8070  0FD6  00BA               	movwf	___flmul@prod+2
  8071  0FD7  3000               	movlw	0
  8072  0FD8  00B9               	movwf	___flmul@prod+1
  8073  0FD9  3000               	movlw	0
  8074  0FDA  00B8               	movwf	___flmul@prod
  8075  0FDB                     l2619:	
  8076  0FDB  01B1               	clrf	___flmul@sign
  8077  0FDC  2FF3               	goto	l715
  8078  0FDD                     l2621:	
  8079  0FDD  0020               	movlb	0	; select bank0
  8080  0FDE  083C               	movf	___flmul@temp,w
  8081  0FDF  00AC               	movwf	??___flmul
  8082  0FE0  082C               	movf	??___flmul,w
  8083  0FE1  00B7               	movwf	___flmul@bexp
  8084  0FE2  30FF               	movlw	255
  8085  0FE3  05B8               	andwf	___flmul@prod,f
  8086  0FE4  30FF               	movlw	255
  8087  0FE5  05B9               	andwf	___flmul@prod+1,f
  8088  0FE6  307F               	movlw	127
  8089  0FE7  05BA               	andwf	___flmul@prod+2,f
  8090  0FE8  3000               	movlw	0
  8091  0FE9  05BB               	andwf	___flmul@prod+3,f
  8092  0FEA                     l2623:	
  8093  0FEA  1C37               	btfss	___flmul@bexp,0
  8094  0FEB  2FED               	goto	u3621
  8095  0FEC  2FEE               	goto	u3620
  8096  0FED                     u3621:	
  8097  0FED  2FEF               	goto	l2627
  8098  0FEE                     u3620:	
  8099  0FEE                     l2625:	
  8100  0FEE  17BA               	bsf	___flmul@prod+2,7
  8101  0FEF                     l2627:	
  8102  0FEF  3637               	lsrf	___flmul@bexp,w
  8103  0FF0  00AC               	movwf	??___flmul
  8104  0FF1  082C               	movf	??___flmul,w
  8105  0FF2  00BB               	movwf	___flmul@prod+3
  8106  0FF3                     l715:	
  8107  0FF3  0831               	movf	___flmul@sign,w
  8108  0FF4  00AC               	movwf	??___flmul
  8109  0FF5  082C               	movf	??___flmul,w
  8110  0FF6  04BB               	iorwf	___flmul@prod+3,f
  8111  0FF7                     l2629:	
  8112  0FF7  083B               	movf	___flmul@prod+3,w
  8113  0FF8  00A7               	movwf	?___flmul+3
  8114  0FF9  083A               	movf	___flmul@prod+2,w
  8115  0FFA  00A6               	movwf	?___flmul+2
  8116  0FFB  0839               	movf	___flmul@prod+1,w
  8117  0FFC  00A5               	movwf	?___flmul+1
  8118  0FFD  0838               	movf	___flmul@prod,w
  8119  0FFE  00A4               	movwf	?___flmul
  8120  0FFF                     l703:	
  8121  0FFF  0008               	return
  8122  1000                     __end_of___flmul:	
  8123                           
  8124                           	psect	text10
  8125  11BF                     __ptext10:	
  8126 ;; *************** function __Umul8_16 *****************
  8127 ;; Defined at:
  8128 ;;		line 4 in file "C:\Program Files (x86)\Microchip\xc8\v2.10\pic\sources\c90\common\Umul8_16.c"
  8129 ;; Parameters:    Size  Location     Type
  8130 ;;  multiplier      1    wreg     unsigned char 
  8131 ;;  multiplicand    1    0[COMMON] unsigned char 
  8132 ;; Auto vars:     Size  Location     Type
  8133 ;;  multiplier      1    8[COMMON] unsigned char 
  8134 ;;  word_mpld       2    6[COMMON] unsigned int 
  8135 ;;  product         2    4[COMMON] unsigned int 
  8136 ;; Return value:  Size  Location     Type
  8137 ;;                  2    0[COMMON] unsigned int 
  8138 ;; Registers used:
  8139 ;;		wreg, status,2, status,0
  8140 ;; Tracked objects:
  8141 ;;		On entry : 0/0
  8142 ;;		On exit  : 0/0
  8143 ;;		Unchanged: 0/0
  8144 ;; Data sizes:     COMMON   BANK0   BANK1   BANK2   BANK3   BANK4   BANK5   BANK6   BANK7   BANK8   BANK9  BANK10  BANK1
      +1  BANK12
  8145 ;;      Params:         2       0       0       0       0       0       0       0       0       0       0       0       
      +0       0
  8146 ;;      Locals:         5       0       0       0       0       0       0       0       0       0       0       0       
      +0       0
  8147 ;;      Temps:          2       0       0       0       0       0       0       0       0       0       0       0       
      +0       0
  8148 ;;      Totals:         9       0       0       0       0       0       0       0       0       0       0       0       
      +0       0
  8149 ;;Total ram usage:        9 bytes
  8150 ;; Hardware stack levels used:    1
  8151 ;; Hardware stack levels required when called:    1
  8152 ;; This function calls:
  8153 ;;		Nothing
  8154 ;; This function is called by:
  8155 ;;		___flmul
  8156 ;; This function uses a non-reentrant model
  8157 ;;
  8158                           
  8159                           
  8160                           ;psect for function __Umul8_16
  8161  11BF                     __Umul8_16:	
  8162                           
  8163                           ;incstack = 0
  8164                           ; Regs used in __Umul8_16: [wreg+status,2+status,0]
  8165                           ;__Umul8_16@multiplier stored from wreg
  8166  11BF  00F8               	movwf	__Umul8_16@multiplier
  8167  11C0                     l2155:	
  8168  11C0  01F4               	clrf	__Umul8_16@product
  8169  11C1  01F5               	clrf	__Umul8_16@product+1
  8170  11C2                     l2157:	
  8171  11C2  0870               	movf	__Umul8_16@multiplicand,w
  8172  11C3  00F2               	movwf	??__Umul8_16
  8173  11C4  01F3               	clrf	??__Umul8_16+1
  8174  11C5  0872               	movf	??__Umul8_16,w
  8175  11C6  00F6               	movwf	__Umul8_16@word_mpld
  8176  11C7  0873               	movf	??__Umul8_16+1,w
  8177  11C8  00F7               	movwf	__Umul8_16@word_mpld+1
  8178  11C9                     l2159:	
  8179  11C9  1C78               	btfss	__Umul8_16@multiplier,0
  8180  11CA  29CC               	goto	u2591
  8181  11CB  29CD               	goto	u2590
  8182  11CC                     u2591:	
  8183  11CC  29D1               	goto	l769
  8184  11CD                     u2590:	
  8185  11CD                     l2161:	
  8186  11CD  0876               	movf	__Umul8_16@word_mpld,w
  8187  11CE  07F4               	addwf	__Umul8_16@product,f
  8188  11CF  0877               	movf	__Umul8_16@word_mpld+1,w
  8189  11D0  3DF5               	addwfc	__Umul8_16@product+1,f
  8190  11D1                     l769:	
  8191  11D1  3001               	movlw	1
  8192  11D2                     u2605:	
  8193  11D2  35F6               	lslf	__Umul8_16@word_mpld,f
  8194  11D3  0DF7               	rlf	__Umul8_16@word_mpld+1,f
  8195  11D4  0B89               	decfsz	9,f
  8196  11D5  29D2               	goto	u2605
  8197  11D6  1003               	clrc
  8198  11D7  0CF8               	rrf	__Umul8_16@multiplier,f
  8199  11D8                     l2163:	
  8200  11D8  0878               	movf	__Umul8_16@multiplier,w
  8201  11D9  1D03               	btfss	3,2
  8202  11DA  29DC               	goto	u2611
  8203  11DB  29DD               	goto	u2610
  8204  11DC                     u2611:	
  8205  11DC  29C9               	goto	l2159
  8206  11DD                     u2610:	
  8207  11DD                     l2165:	
  8208  11DD  0875               	movf	__Umul8_16@product+1,w
  8209  11DE  00F1               	movwf	?__Umul8_16+1
  8210  11DF  0874               	movf	__Umul8_16@product,w
  8211  11E0  00F0               	movwf	?__Umul8_16
  8212  11E1                     l771:	
  8213  11E1  0008               	return
  8214  11E2                     __end_of__Umul8_16:	
  8215                           
  8216                           	psect	text11
  8217  169A                     __ptext11:	
  8218 ;; *************** function __tdiv_to_l_ *****************
  8219 ;; Defined at:
  8220 ;;		line 60 in file "C:\Program Files (x86)\Microchip\xc8\v2.10\pic\sources\c90\common\ftdivl.c"
  8221 ;; Parameters:    Size  Location     Type
  8222 ;;  f1              4    0[COMMON] float 
  8223 ;;  f2              4    4[COMMON] float 
  8224 ;; Auto vars:     Size  Location     Type
  8225 ;;  quot            4    0[BANK0 ] unsigned long 
  8226 ;;  exp1            1    5[BANK0 ] unsigned char 
  8227 ;;  cntr            1    4[BANK0 ] unsigned char 
  8228 ;; Return value:  Size  Location     Type
  8229 ;;                  4    0[COMMON] unsigned long 
  8230 ;; Registers used:
  8231 ;;		wreg, status,2, status,0
  8232 ;; Tracked objects:
  8233 ;;		On entry : 0/0
  8234 ;;		On exit  : 0/0
  8235 ;;		Unchanged: 0/0
  8236 ;; Data sizes:     COMMON   BANK0   BANK1   BANK2   BANK3   BANK4   BANK5   BANK6   BANK7   BANK8   BANK9  BANK10  BANK1
      +1  BANK12
  8237 ;;      Params:         8       0       0       0       0       0       0       0       0       0       0       0       
      +0       0
  8238 ;;      Locals:         0       6       0       0       0       0       0       0       0       0       0       0       
      +0       0
  8239 ;;      Temps:          4       0       0       0       0       0       0       0       0       0       0       0       
      +0       0
  8240 ;;      Totals:        12       6       0       0       0       0       0       0       0       0       0       0       
      +0       0
  8241 ;;Total ram usage:       18 bytes
  8242 ;; Hardware stack levels used:    1
  8243 ;; Hardware stack levels required when called:    1
  8244 ;; This function calls:
  8245 ;;		Nothing
  8246 ;; This function is called by:
  8247 ;;		_sprintf
  8248 ;; This function uses a non-reentrant model
  8249 ;;
  8250                           
  8251                           
  8252                           ;psect for function __tdiv_to_l_
  8253  169A                     __tdiv_to_l_:	
  8254  169A                     l2703:	
  8255                           ;incstack = 0
  8256                           ; Regs used in __tdiv_to_l_: [wreg+status,2+status,0]
  8257                           
  8258  169A  0870               	movf	__tdiv_to_l_@f1,w
  8259  169B  00F8               	movwf	??__tdiv_to_l_
  8260  169C  0871               	movf	__tdiv_to_l_@f1+1,w
  8261  169D  00F9               	movwf	??__tdiv_to_l_+1
  8262  169E  0872               	movf	__tdiv_to_l_@f1+2,w
  8263  169F  00FA               	movwf	??__tdiv_to_l_+2
  8264  16A0  1003               	clrc
  8265  16A1  0D79               	rlf	??__tdiv_to_l_+1,w
  8266  16A2  0D7A               	rlf	??__tdiv_to_l_+2,w
  8267  16A3  00FB               	movwf	??__tdiv_to_l_+3
  8268  16A4  087B               	movf	??__tdiv_to_l_+3,w
  8269  16A5  0020               	movlb	0	; select bank0
  8270  16A6  00A5               	movwf	__tdiv_to_l_@exp1
  8271  16A7  0825               	movf	__tdiv_to_l_@exp1,w
  8272  16A8  1D03               	btfss	3,2
  8273  16A9  2EAB               	goto	u3721
  8274  16AA  2EAC               	goto	u3720
  8275  16AB                     u3721:	
  8276  16AB  2EB5               	goto	l2709
  8277  16AC                     u3720:	
  8278  16AC                     l2705:	
  8279  16AC  3000               	movlw	0
  8280  16AD  00F3               	movwf	?__tdiv_to_l_+3
  8281  16AE  3000               	movlw	0
  8282  16AF  00F2               	movwf	?__tdiv_to_l_+2
  8283  16B0  3000               	movlw	0
  8284  16B1  00F1               	movwf	?__tdiv_to_l_+1
  8285  16B2  3000               	movlw	0
  8286  16B3  00F0               	movwf	?__tdiv_to_l_
  8287  16B4  2F49               	goto	l497
  8288  16B5                     l2709:	
  8289  16B5  0874               	movf	__tdiv_to_l_@f2,w
  8290  16B6  00F8               	movwf	??__tdiv_to_l_
  8291  16B7  0875               	movf	__tdiv_to_l_@f2+1,w
  8292  16B8  00F9               	movwf	??__tdiv_to_l_+1
  8293  16B9  0876               	movf	__tdiv_to_l_@f2+2,w
  8294  16BA  00FA               	movwf	??__tdiv_to_l_+2
  8295  16BB  1003               	clrc
  8296  16BC  0D79               	rlf	??__tdiv_to_l_+1,w
  8297  16BD  0D7A               	rlf	??__tdiv_to_l_+2,w
  8298  16BE  00FB               	movwf	??__tdiv_to_l_+3
  8299  16BF  087B               	movf	??__tdiv_to_l_+3,w
  8300  16C0  00A4               	movwf	__tdiv_to_l_@cntr
  8301  16C1  0824               	movf	__tdiv_to_l_@cntr,w
  8302  16C2  1D03               	btfss	3,2
  8303  16C3  2EC5               	goto	u3731
  8304  16C4  2EC6               	goto	u3730
  8305  16C5                     u3731:	
  8306  16C5  2EC7               	goto	l498
  8307  16C6                     u3730:	
  8308  16C6  2EAC               	goto	l2705
  8309  16C7                     l498:	
  8310  16C7  17F1               	bsf	__tdiv_to_l_@f1+1,7
  8311  16C8                     l2715:	
  8312  16C8  30FF               	movlw	255
  8313  16C9  05F0               	andwf	__tdiv_to_l_@f1,f
  8314  16CA  30FF               	movlw	255
  8315  16CB  05F1               	andwf	__tdiv_to_l_@f1+1,f
  8316  16CC  3000               	movlw	0
  8317  16CD  05F2               	andwf	__tdiv_to_l_@f1+2,f
  8318  16CE                     l2717:	
  8319  16CE  17F5               	bsf	__tdiv_to_l_@f2+1,7
  8320  16CF  30FF               	movlw	255
  8321  16D0  05F4               	andwf	__tdiv_to_l_@f2,f
  8322  16D1  30FF               	movlw	255
  8323  16D2  05F5               	andwf	__tdiv_to_l_@f2+1,f
  8324  16D3  3000               	movlw	0
  8325  16D4  05F6               	andwf	__tdiv_to_l_@f2+2,f
  8326  16D5  3000               	movlw	0
  8327  16D6  00A3               	movwf	__tdiv_to_l_@quot+3
  8328  16D7  3000               	movlw	0
  8329  16D8  00A2               	movwf	__tdiv_to_l_@quot+2
  8330  16D9  3000               	movlw	0
  8331  16DA  00A1               	movwf	__tdiv_to_l_@quot+1
  8332  16DB  3000               	movlw	0
  8333  16DC  00A0               	movwf	__tdiv_to_l_@quot
  8334  16DD                     l2719:	
  8335  16DD  307F               	movlw	127
  8336  16DE  02A5               	subwf	__tdiv_to_l_@exp1,f
  8337  16DF                     l2721:	
  8338  16DF  3098               	movlw	152
  8339  16E0  0724               	addwf	__tdiv_to_l_@cntr,w
  8340  16E1  00F8               	movwf	??__tdiv_to_l_
  8341  16E2  0878               	movf	??__tdiv_to_l_,w
  8342  16E3  02A5               	subwf	__tdiv_to_l_@exp1,f
  8343  16E4  3018               	movlw	24
  8344  16E5  00F8               	movwf	??__tdiv_to_l_
  8345  16E6  0878               	movf	??__tdiv_to_l_,w
  8346  16E7  00A4               	movwf	__tdiv_to_l_@cntr
  8347  16E8                     l2723:	
  8348  16E8  3001               	movlw	1
  8349  16E9                     u3745:	
  8350  16E9  35A0               	lslf	__tdiv_to_l_@quot,f
  8351  16EA  0DA1               	rlf	__tdiv_to_l_@quot+1,f
  8352  16EB  0DA2               	rlf	__tdiv_to_l_@quot+2,f
  8353  16EC  0DA3               	rlf	__tdiv_to_l_@quot+3,f
  8354  16ED  0B89               	decfsz	9,f
  8355  16EE  2EE9               	goto	u3745
  8356  16EF                     l2725:	
  8357  16EF  0876               	movf	__tdiv_to_l_@f2+2,w
  8358  16F0  0272               	subwf	__tdiv_to_l_@f1+2,w
  8359  16F1  1D03               	skipz
  8360  16F2  2EF9               	goto	u3755
  8361  16F3  0875               	movf	__tdiv_to_l_@f2+1,w
  8362  16F4  0271               	subwf	__tdiv_to_l_@f1+1,w
  8363  16F5  1D03               	skipz
  8364  16F6  2EF9               	goto	u3755
  8365  16F7  0874               	movf	__tdiv_to_l_@f2,w
  8366  16F8  0270               	subwf	__tdiv_to_l_@f1,w
  8367  16F9                     u3755:	
  8368  16F9  1C03               	skipc
  8369  16FA  2EFC               	goto	u3751
  8370  16FB  2EFD               	goto	u3750
  8371  16FC                     u3751:	
  8372  16FC  2F04               	goto	l2731
  8373  16FD                     u3750:	
  8374  16FD                     l2727:	
  8375  16FD  0874               	movf	__tdiv_to_l_@f2,w
  8376  16FE  02F0               	subwf	__tdiv_to_l_@f1,f
  8377  16FF  0875               	movf	__tdiv_to_l_@f2+1,w
  8378  1700  3BF1               	subwfb	__tdiv_to_l_@f1+1,f
  8379  1701  0876               	movf	__tdiv_to_l_@f2+2,w
  8380  1702  3BF2               	subwfb	__tdiv_to_l_@f1+2,f
  8381  1703                     l2729:	
  8382  1703  1420               	bsf	__tdiv_to_l_@quot,0
  8383  1704                     l2731:	
  8384  1704  3001               	movlw	1
  8385  1705                     u3765:	
  8386  1705  35F0               	lslf	__tdiv_to_l_@f1,f
  8387  1706  0DF1               	rlf	__tdiv_to_l_@f1+1,f
  8388  1707  0DF2               	rlf	__tdiv_to_l_@f1+2,f
  8389  1708  0B89               	decfsz	9,f
  8390  1709  2F05               	goto	u3765
  8391  170A                     l2733:	
  8392  170A  3001               	movlw	1
  8393  170B  02A4               	subwf	__tdiv_to_l_@cntr,f
  8394  170C  1D03               	btfss	3,2
  8395  170D  2F0F               	goto	u3771
  8396  170E  2F10               	goto	u3770
  8397  170F                     u3771:	
  8398  170F  2EE8               	goto	l2723
  8399  1710                     u3770:	
  8400  1710                     l501:	
  8401  1710  1FA5               	btfss	__tdiv_to_l_@exp1,7
  8402  1711  2F13               	goto	u3781
  8403  1712  2F14               	goto	u3780
  8404  1713                     u3781:	
  8405  1713  2F2C               	goto	l2743
  8406  1714                     u3780:	
  8407  1714                     l2735:	
  8408  1714  0825               	movf	__tdiv_to_l_@exp1,w
  8409  1715  3A80               	xorlw	128
  8410  1716  3E97               	addlw	151
  8411  1717  1803               	skipnc
  8412  1718  2F1A               	goto	u3791
  8413  1719  2F1B               	goto	u3790
  8414  171A                     u3791:	
  8415  171A  2F1C               	goto	l2741
  8416  171B                     u3790:	
  8417  171B  2EAC               	goto	l2705
  8418  171C                     l2741:	
  8419  171C  3001               	movlw	1
  8420  171D                     u3805:	
  8421  171D  36A3               	lsrf	__tdiv_to_l_@quot+3,f
  8422  171E  0CA2               	rrf	__tdiv_to_l_@quot+2,f
  8423  171F  0CA1               	rrf	__tdiv_to_l_@quot+1,f
  8424  1720  0CA0               	rrf	__tdiv_to_l_@quot,f
  8425  1721  0B89               	decfsz	9,f
  8426  1722  2F1D               	goto	u3805
  8427  1723  3001               	movlw	1
  8428  1724  00F8               	movwf	??__tdiv_to_l_
  8429  1725  0878               	movf	??__tdiv_to_l_,w
  8430  1726  07A5               	addwf	__tdiv_to_l_@exp1,f
  8431  1727  1D03               	btfss	3,2
  8432  1728  2F2A               	goto	u3811
  8433  1729  2F2B               	goto	u3810
  8434  172A                     u3811:	
  8435  172A  2F1C               	goto	l2741
  8436  172B                     u3810:	
  8437  172B  2F41               	goto	l2751
  8438  172C                     l2743:	
  8439  172C  3018               	movlw	24
  8440  172D  0225               	subwf	__tdiv_to_l_@exp1,w
  8441  172E  1C03               	skipc
  8442  172F  2F31               	goto	u3821
  8443  1730  2F32               	goto	u3820
  8444  1731                     u3821:	
  8445  1731  2F3C               	goto	l508
  8446  1732                     u3820:	
  8447  1732  2EAC               	goto	l2705
  8448  1733                     l2749:	
  8449  1733  3001               	movlw	1
  8450  1734                     u3835:	
  8451  1734  35A0               	lslf	__tdiv_to_l_@quot,f
  8452  1735  0DA1               	rlf	__tdiv_to_l_@quot+1,f
  8453  1736  0DA2               	rlf	__tdiv_to_l_@quot+2,f
  8454  1737  0DA3               	rlf	__tdiv_to_l_@quot+3,f
  8455  1738  0B89               	decfsz	9,f
  8456  1739  2F34               	goto	u3835
  8457  173A  3001               	movlw	1
  8458  173B  02A5               	subwf	__tdiv_to_l_@exp1,f
  8459  173C                     l508:	
  8460  173C  0825               	movf	__tdiv_to_l_@exp1,w
  8461  173D  1D03               	btfss	3,2
  8462  173E  2F40               	goto	u3841
  8463  173F  2F41               	goto	u3840
  8464  1740                     u3841:	
  8465  1740  2F33               	goto	l2749
  8466  1741                     u3840:	
  8467  1741                     l2751:	
  8468  1741  0823               	movf	__tdiv_to_l_@quot+3,w
  8469  1742  00F3               	movwf	?__tdiv_to_l_+3
  8470  1743  0822               	movf	__tdiv_to_l_@quot+2,w
  8471  1744  00F2               	movwf	?__tdiv_to_l_+2
  8472  1745  0821               	movf	__tdiv_to_l_@quot+1,w
  8473  1746  00F1               	movwf	?__tdiv_to_l_+1
  8474  1747  0820               	movf	__tdiv_to_l_@quot,w
  8475  1748  00F0               	movwf	?__tdiv_to_l_
  8476  1749                     l497:	
  8477  1749  0008               	return
  8478  174A                     __end_of__tdiv_to_l_:	
  8479                           
  8480                           	psect	text12
  8481  15EB                     __ptext12:	
  8482 ;; *************** function __div_to_l_ *****************
  8483 ;; Defined at:
  8484 ;;		line 60 in file "C:\Program Files (x86)\Microchip\xc8\v2.10\pic\sources\c90\common\fldivl.c"
  8485 ;; Parameters:    Size  Location     Type
  8486 ;;  f1              4    0[COMMON] unsigned long 
  8487 ;;  f2              4    4[COMMON] unsigned long 
  8488 ;; Auto vars:     Size  Location     Type
  8489 ;;  quot            4    0[BANK0 ] unsigned long 
  8490 ;;  exp1            1    5[BANK0 ] unsigned char 
  8491 ;;  cntr            1    4[BANK0 ] unsigned char 
  8492 ;; Return value:  Size  Location     Type
  8493 ;;                  4    0[COMMON] unsigned long 
  8494 ;; Registers used:
  8495 ;;		wreg, status,2, status,0
  8496 ;; Tracked objects:
  8497 ;;		On entry : 0/0
  8498 ;;		On exit  : 0/0
  8499 ;;		Unchanged: 0/0
  8500 ;; Data sizes:     COMMON   BANK0   BANK1   BANK2   BANK3   BANK4   BANK5   BANK6   BANK7   BANK8   BANK9  BANK10  BANK1
      +1  BANK12
  8501 ;;      Params:         8       0       0       0       0       0       0       0       0       0       0       0       
      +0       0
  8502 ;;      Locals:         0       6       0       0       0       0       0       0       0       0       0       0       
      +0       0
  8503 ;;      Temps:          1       0       0       0       0       0       0       0       0       0       0       0       
      +0       0
  8504 ;;      Totals:         9       6       0       0       0       0       0       0       0       0       0       0       
      +0       0
  8505 ;;Total ram usage:       15 bytes
  8506 ;; Hardware stack levels used:    1
  8507 ;; Hardware stack levels required when called:    1
  8508 ;; This function calls:
  8509 ;;		Nothing
  8510 ;; This function is called by:
  8511 ;;		_sprintf
  8512 ;; This function uses a non-reentrant model
  8513 ;;
  8514                           
  8515                           
  8516                           ;psect for function __div_to_l_
  8517  15EB                     __div_to_l_:	
  8518  15EB                     l2755:	
  8519                           ;incstack = 0
  8520                           ; Regs used in __div_to_l_: [wreg+status,2+status,0]
  8521                           
  8522  15EB  1003               	clrc
  8523  15EC  0D72               	rlf	__div_to_l_@f1+2,w
  8524  15ED  0D73               	rlf	__div_to_l_@f1+3,w
  8525  15EE  00F8               	movwf	??__div_to_l_
  8526  15EF  0878               	movf	??__div_to_l_,w
  8527  15F0  0020               	movlb	0	; select bank0
  8528  15F1  00A5               	movwf	__div_to_l_@exp1
  8529  15F2  0825               	movf	__div_to_l_@exp1,w
  8530  15F3  1D03               	btfss	3,2
  8531  15F4  2DF6               	goto	u3851
  8532  15F5  2DF7               	goto	u3850
  8533  15F6                     u3851:	
  8534  15F6  2E00               	goto	l2761
  8535  15F7                     u3850:	
  8536  15F7                     l2757:	
  8537  15F7  3000               	movlw	0
  8538  15F8  00F3               	movwf	?__div_to_l_+3
  8539  15F9  3000               	movlw	0
  8540  15FA  00F2               	movwf	?__div_to_l_+2
  8541  15FB  3000               	movlw	0
  8542  15FC  00F1               	movwf	?__div_to_l_+1
  8543  15FD  3000               	movlw	0
  8544  15FE  00F0               	movwf	?__div_to_l_
  8545  15FF  2E99               	goto	l450
  8546  1600                     l2761:	
  8547  1600  1003               	clrc
  8548  1601  0D76               	rlf	__div_to_l_@f2+2,w
  8549  1602  0D77               	rlf	__div_to_l_@f2+3,w
  8550  1603  00F8               	movwf	??__div_to_l_
  8551  1604  0878               	movf	??__div_to_l_,w
  8552  1605  00A4               	movwf	__div_to_l_@cntr
  8553  1606  0824               	movf	__div_to_l_@cntr,w
  8554  1607  1D03               	btfss	3,2
  8555  1608  2E0A               	goto	u3861
  8556  1609  2E0B               	goto	u3860
  8557  160A                     u3861:	
  8558  160A  2E0C               	goto	l451
  8559  160B                     u3860:	
  8560  160B  2DF7               	goto	l2757
  8561  160C                     l451:	
  8562  160C  17F2               	bsf	__div_to_l_@f1+2,7
  8563  160D                     l2767:	
  8564  160D  30FF               	movlw	255
  8565  160E  05F0               	andwf	__div_to_l_@f1,f
  8566  160F  30FF               	movlw	255
  8567  1610  05F1               	andwf	__div_to_l_@f1+1,f
  8568  1611  30FF               	movlw	255
  8569  1612  05F2               	andwf	__div_to_l_@f1+2,f
  8570  1613  3000               	movlw	0
  8571  1614  05F3               	andwf	__div_to_l_@f1+3,f
  8572  1615                     l2769:	
  8573  1615  17F6               	bsf	__div_to_l_@f2+2,7
  8574  1616  30FF               	movlw	255
  8575  1617  05F4               	andwf	__div_to_l_@f2,f
  8576  1618  30FF               	movlw	255
  8577  1619  05F5               	andwf	__div_to_l_@f2+1,f
  8578  161A  30FF               	movlw	255
  8579  161B  05F6               	andwf	__div_to_l_@f2+2,f
  8580  161C  3000               	movlw	0
  8581  161D  05F7               	andwf	__div_to_l_@f2+3,f
  8582  161E  3000               	movlw	0
  8583  161F  00A3               	movwf	__div_to_l_@quot+3
  8584  1620  3000               	movlw	0
  8585  1621  00A2               	movwf	__div_to_l_@quot+2
  8586  1622  3000               	movlw	0
  8587  1623  00A1               	movwf	__div_to_l_@quot+1
  8588  1624  3000               	movlw	0
  8589  1625  00A0               	movwf	__div_to_l_@quot
  8590  1626                     l2771:	
  8591  1626  307F               	movlw	127
  8592  1627  02A5               	subwf	__div_to_l_@exp1,f
  8593  1628                     l2773:	
  8594  1628  30A0               	movlw	160
  8595  1629  0724               	addwf	__div_to_l_@cntr,w
  8596  162A  00F8               	movwf	??__div_to_l_
  8597  162B  0878               	movf	??__div_to_l_,w
  8598  162C  02A5               	subwf	__div_to_l_@exp1,f
  8599  162D  3020               	movlw	32
  8600  162E  00F8               	movwf	??__div_to_l_
  8601  162F  0878               	movf	??__div_to_l_,w
  8602  1630  00A4               	movwf	__div_to_l_@cntr
  8603  1631                     l2775:	
  8604  1631  3001               	movlw	1
  8605  1632                     u3875:	
  8606  1632  35A0               	lslf	__div_to_l_@quot,f
  8607  1633  0DA1               	rlf	__div_to_l_@quot+1,f
  8608  1634  0DA2               	rlf	__div_to_l_@quot+2,f
  8609  1635  0DA3               	rlf	__div_to_l_@quot+3,f
  8610  1636  0B89               	decfsz	9,f
  8611  1637  2E32               	goto	u3875
  8612  1638                     l2777:	
  8613  1638  0877               	movf	__div_to_l_@f2+3,w
  8614  1639  0273               	subwf	__div_to_l_@f1+3,w
  8615  163A  1D03               	skipz
  8616  163B  2E46               	goto	u3885
  8617  163C  0876               	movf	__div_to_l_@f2+2,w
  8618  163D  0272               	subwf	__div_to_l_@f1+2,w
  8619  163E  1D03               	skipz
  8620  163F  2E46               	goto	u3885
  8621  1640  0875               	movf	__div_to_l_@f2+1,w
  8622  1641  0271               	subwf	__div_to_l_@f1+1,w
  8623  1642  1D03               	skipz
  8624  1643  2E46               	goto	u3885
  8625  1644  0874               	movf	__div_to_l_@f2,w
  8626  1645  0270               	subwf	__div_to_l_@f1,w
  8627  1646                     u3885:	
  8628  1646  1C03               	skipc
  8629  1647  2E49               	goto	u3881
  8630  1648  2E4A               	goto	u3880
  8631  1649                     u3881:	
  8632  1649  2E53               	goto	l2783
  8633  164A                     u3880:	
  8634  164A                     l2779:	
  8635  164A  0874               	movf	__div_to_l_@f2,w
  8636  164B  02F0               	subwf	__div_to_l_@f1,f
  8637  164C  0875               	movf	__div_to_l_@f2+1,w
  8638  164D  3BF1               	subwfb	__div_to_l_@f1+1,f
  8639  164E  0876               	movf	__div_to_l_@f2+2,w
  8640  164F  3BF2               	subwfb	__div_to_l_@f1+2,f
  8641  1650  0877               	movf	__div_to_l_@f2+3,w
  8642  1651  3BF3               	subwfb	__div_to_l_@f1+3,f
  8643  1652                     l2781:	
  8644  1652  1420               	bsf	__div_to_l_@quot,0
  8645  1653                     l2783:	
  8646  1653  3001               	movlw	1
  8647  1654                     u3895:	
  8648  1654  35F0               	lslf	__div_to_l_@f1,f
  8649  1655  0DF1               	rlf	__div_to_l_@f1+1,f
  8650  1656  0DF2               	rlf	__div_to_l_@f1+2,f
  8651  1657  0DF3               	rlf	__div_to_l_@f1+3,f
  8652  1658  0B89               	decfsz	9,f
  8653  1659  2E54               	goto	u3895
  8654  165A                     l2785:	
  8655  165A  3001               	movlw	1
  8656  165B  02A4               	subwf	__div_to_l_@cntr,f
  8657  165C  1D03               	btfss	3,2
  8658  165D  2E5F               	goto	u3901
  8659  165E  2E60               	goto	u3900
  8660  165F                     u3901:	
  8661  165F  2E31               	goto	l2775
  8662  1660                     u3900:	
  8663  1660                     l454:	
  8664  1660  1FA5               	btfss	__div_to_l_@exp1,7
  8665  1661  2E63               	goto	u3911
  8666  1662  2E64               	goto	u3910
  8667  1663                     u3911:	
  8668  1663  2E7C               	goto	l2795
  8669  1664                     u3910:	
  8670  1664                     l2787:	
  8671  1664  0825               	movf	__div_to_l_@exp1,w
  8672  1665  3A80               	xorlw	128
  8673  1666  3E9F               	addlw	159
  8674  1667  1803               	skipnc
  8675  1668  2E6A               	goto	u3921
  8676  1669  2E6B               	goto	u3920
  8677  166A                     u3921:	
  8678  166A  2E6C               	goto	l2793
  8679  166B                     u3920:	
  8680  166B  2DF7               	goto	l2757
  8681  166C                     l2793:	
  8682  166C  3001               	movlw	1
  8683  166D                     u3935:	
  8684  166D  36A3               	lsrf	__div_to_l_@quot+3,f
  8685  166E  0CA2               	rrf	__div_to_l_@quot+2,f
  8686  166F  0CA1               	rrf	__div_to_l_@quot+1,f
  8687  1670  0CA0               	rrf	__div_to_l_@quot,f
  8688  1671  0B89               	decfsz	9,f
  8689  1672  2E6D               	goto	u3935
  8690  1673  3001               	movlw	1
  8691  1674  00F8               	movwf	??__div_to_l_
  8692  1675  0878               	movf	??__div_to_l_,w
  8693  1676  07A5               	addwf	__div_to_l_@exp1,f
  8694  1677  1D03               	btfss	3,2
  8695  1678  2E7A               	goto	u3941
  8696  1679  2E7B               	goto	u3940
  8697  167A                     u3941:	
  8698  167A  2E6C               	goto	l2793
  8699  167B                     u3940:	
  8700  167B  2E91               	goto	l2803
  8701  167C                     l2795:	
  8702  167C  3020               	movlw	32
  8703  167D  0225               	subwf	__div_to_l_@exp1,w
  8704  167E  1C03               	skipc
  8705  167F  2E81               	goto	u3951
  8706  1680  2E82               	goto	u3950
  8707  1681                     u3951:	
  8708  1681  2E8C               	goto	l461
  8709  1682                     u3950:	
  8710  1682  2DF7               	goto	l2757
  8711  1683                     l2801:	
  8712  1683  3001               	movlw	1
  8713  1684                     u3965:	
  8714  1684  35A0               	lslf	__div_to_l_@quot,f
  8715  1685  0DA1               	rlf	__div_to_l_@quot+1,f
  8716  1686  0DA2               	rlf	__div_to_l_@quot+2,f
  8717  1687  0DA3               	rlf	__div_to_l_@quot+3,f
  8718  1688  0B89               	decfsz	9,f
  8719  1689  2E84               	goto	u3965
  8720  168A  3001               	movlw	1
  8721  168B  02A5               	subwf	__div_to_l_@exp1,f
  8722  168C                     l461:	
  8723  168C  0825               	movf	__div_to_l_@exp1,w
  8724  168D  1D03               	btfss	3,2
  8725  168E  2E90               	goto	u3971
  8726  168F  2E91               	goto	u3970
  8727  1690                     u3971:	
  8728  1690  2E83               	goto	l2801
  8729  1691                     u3970:	
  8730  1691                     l2803:	
  8731  1691  0823               	movf	__div_to_l_@quot+3,w
  8732  1692  00F3               	movwf	?__div_to_l_+3
  8733  1693  0822               	movf	__div_to_l_@quot+2,w
  8734  1694  00F2               	movwf	?__div_to_l_+2
  8735  1695  0821               	movf	__div_to_l_@quot+1,w
  8736  1696  00F1               	movwf	?__div_to_l_+1
  8737  1697  0820               	movf	__div_to_l_@quot,w
  8738  1698  00F0               	movwf	?__div_to_l_
  8739  1699                     l450:	
  8740  1699  0008               	return
  8741  169A                     __end_of__div_to_l_:	
  8742                           
  8743                           	psect	text13
  8744  153F                     __ptext13:	
  8745 ;; *************** function ___xxtofl *****************
  8746 ;; Defined at:
  8747 ;;		line 10 in file "C:\Program Files (x86)\Microchip\xc8\v2.10\pic\sources\c90\common\xxtofl.c"
  8748 ;; Parameters:    Size  Location     Type
  8749 ;;  sign            1    wreg     unsigned char 
  8750 ;;  val             4    0[COMMON] long 
  8751 ;; Auto vars:     Size  Location     Type
  8752 ;;  sign            1    8[COMMON] unsigned char 
  8753 ;;  arg             4   10[COMMON] unsigned long 
  8754 ;;  exp             1    9[COMMON] unsigned char 
  8755 ;; Return value:  Size  Location     Type
  8756 ;;                  4    0[COMMON] unsigned char 
  8757 ;; Registers used:
  8758 ;;		wreg, status,2, status,0
  8759 ;; Tracked objects:
  8760 ;;		On entry : 0/0
  8761 ;;		On exit  : 0/0
  8762 ;;		Unchanged: 0/0
  8763 ;; Data sizes:     COMMON   BANK0   BANK1   BANK2   BANK3   BANK4   BANK5   BANK6   BANK7   BANK8   BANK9  BANK10  BANK1
      +1  BANK12
  8764 ;;      Params:         4       0       0       0       0       0       0       0       0       0       0       0       
      +0       0
  8765 ;;      Locals:         6       0       0       0       0       0       0       0       0       0       0       0       
      +0       0
  8766 ;;      Temps:          4       0       0       0       0       0       0       0       0       0       0       0       
      +0       0
  8767 ;;      Totals:        14       0       0       0       0       0       0       0       0       0       0       0       
      +0       0
  8768 ;;Total ram usage:       14 bytes
  8769 ;; Hardware stack levels used:    1
  8770 ;; Hardware stack levels required when called:    1
  8771 ;; This function calls:
  8772 ;;		Nothing
  8773 ;; This function is called by:
  8774 ;;		_main
  8775 ;;		_sprintf
  8776 ;; This function uses a non-reentrant model
  8777 ;;
  8778                           
  8779                           
  8780                           ;psect for function ___xxtofl
  8781  153F                     ___xxtofl:	
  8782                           
  8783                           ;incstack = 0
  8784                           ; Regs used in ___xxtofl: [wreg+status,2+status,0]
  8785                           ;___xxtofl@sign stored from wreg
  8786  153F  00F8               	movwf	___xxtofl@sign
  8787  1540                     l2947:	
  8788  1540  0878               	movf	___xxtofl@sign,w
  8789  1541  1903               	btfsc	3,2
  8790  1542  2D44               	goto	u4341
  8791  1543  2D45               	goto	u4340
  8792  1544                     u4341:	
  8793  1544  2D59               	goto	l2953
  8794  1545                     u4340:	
  8795  1545                     l2949:	
  8796  1545  1FF3               	btfss	___xxtofl@val+3,7
  8797  1546  2D48               	goto	u4351
  8798  1547  2D49               	goto	u4350
  8799  1548                     u4351:	
  8800  1548  2D59               	goto	l2953
  8801  1549                     u4350:	
  8802  1549                     l2951:	
  8803  1549  0970               	comf	___xxtofl@val,w
  8804  154A  00FA               	movwf	___xxtofl@arg
  8805  154B  0971               	comf	___xxtofl@val+1,w
  8806  154C  00FB               	movwf	___xxtofl@arg+1
  8807  154D  0972               	comf	___xxtofl@val+2,w
  8808  154E  00FC               	movwf	___xxtofl@arg+2
  8809  154F  0973               	comf	___xxtofl@val+3,w
  8810  1550  00FD               	movwf	___xxtofl@arg+3
  8811  1551  0AFA               	incf	___xxtofl@arg,f
  8812  1552  1903               	skipnz
  8813  1553  0AFB               	incf	___xxtofl@arg+1,f
  8814  1554  1903               	skipnz
  8815  1555  0AFC               	incf	___xxtofl@arg+2,f
  8816  1556  1903               	skipnz
  8817  1557  0AFD               	incf	___xxtofl@arg+3,f
  8818  1558  2D61               	goto	l741
  8819  1559                     l2953:	
  8820  1559  0873               	movf	___xxtofl@val+3,w
  8821  155A  00FD               	movwf	___xxtofl@arg+3
  8822  155B  0872               	movf	___xxtofl@val+2,w
  8823  155C  00FC               	movwf	___xxtofl@arg+2
  8824  155D  0871               	movf	___xxtofl@val+1,w
  8825  155E  00FB               	movwf	___xxtofl@arg+1
  8826  155F  0870               	movf	___xxtofl@val,w
  8827  1560  00FA               	movwf	___xxtofl@arg
  8828  1561                     l741:	
  8829  1561  0873               	movf	___xxtofl@val+3,w
  8830  1562  0472               	iorwf	___xxtofl@val+2,w
  8831  1563  0471               	iorwf	___xxtofl@val+1,w
  8832  1564  0470               	iorwf	___xxtofl@val,w
  8833  1565  1D03               	skipz
  8834  1566  2D68               	goto	u4361
  8835  1567  2D69               	goto	u4360
  8836  1568                     u4361:	
  8837  1568  2D72               	goto	l2959
  8838  1569                     u4360:	
  8839  1569                     l2955:	
  8840  1569  3000               	movlw	0
  8841  156A  00F3               	movwf	?___xxtofl+3
  8842  156B  3000               	movlw	0
  8843  156C  00F2               	movwf	?___xxtofl+2
  8844  156D  3000               	movlw	0
  8845  156E  00F1               	movwf	?___xxtofl+1
  8846  156F  3000               	movlw	0
  8847  1570  00F0               	movwf	?___xxtofl
  8848  1571  2DEA               	goto	l743
  8849  1572                     l2959:	
  8850  1572  3096               	movlw	150
  8851  1573  00F4               	movwf	??___xxtofl
  8852  1574  0874               	movf	??___xxtofl,w
  8853  1575  00F9               	movwf	___xxtofl@exp
  8854  1576  2D82               	goto	l2963
  8855  1577                     l2961:	
  8856  1577  3001               	movlw	1
  8857  1578  00F4               	movwf	??___xxtofl
  8858  1579  0874               	movf	??___xxtofl,w
  8859  157A  07F9               	addwf	___xxtofl@exp,f
  8860  157B  3001               	movlw	1
  8861  157C                     u4375:	
  8862  157C  36FD               	lsrf	___xxtofl@arg+3,f
  8863  157D  0CFC               	rrf	___xxtofl@arg+2,f
  8864  157E  0CFB               	rrf	___xxtofl@arg+1,f
  8865  157F  0CFA               	rrf	___xxtofl@arg,f
  8866  1580  0B89               	decfsz	9,f
  8867  1581  2D7C               	goto	u4375
  8868  1582                     l2963:	
  8869  1582  30FE               	movlw	254
  8870  1583  057D               	andwf	___xxtofl@arg+3,w
  8871  1584  1D03               	btfss	3,2
  8872  1585  2D87               	goto	u4381
  8873  1586  2D88               	goto	u4380
  8874  1587                     u4381:	
  8875  1587  2D77               	goto	l2961
  8876  1588                     u4380:	
  8877  1588  2D9C               	goto	l747
  8878  1589                     l2965:	
  8879  1589  3001               	movlw	1
  8880  158A  00F4               	movwf	??___xxtofl
  8881  158B  0874               	movf	??___xxtofl,w
  8882  158C  07F9               	addwf	___xxtofl@exp,f
  8883  158D                     l2967:	
  8884  158D  3001               	movlw	1
  8885  158E  07FA               	addwf	___xxtofl@arg,f
  8886  158F  3000               	movlw	0
  8887  1590  3DFB               	addwfc	___xxtofl@arg+1,f
  8888  1591  3000               	movlw	0
  8889  1592  3DFC               	addwfc	___xxtofl@arg+2,f
  8890  1593  3000               	movlw	0
  8891  1594  3DFD               	addwfc	___xxtofl@arg+3,f
  8892  1595                     l2969:	
  8893  1595  3001               	movlw	1
  8894  1596                     u4395:	
  8895  1596  36FD               	lsrf	___xxtofl@arg+3,f
  8896  1597  0CFC               	rrf	___xxtofl@arg+2,f
  8897  1598  0CFB               	rrf	___xxtofl@arg+1,f
  8898  1599  0CFA               	rrf	___xxtofl@arg,f
  8899  159A  0B89               	decfsz	9,f
  8900  159B  2D96               	goto	u4395
  8901  159C                     l747:	
  8902  159C  30FF               	movlw	255
  8903  159D  057D               	andwf	___xxtofl@arg+3,w
  8904  159E  1D03               	btfss	3,2
  8905  159F  2DA1               	goto	u4401
  8906  15A0  2DA2               	goto	u4400
  8907  15A1                     u4401:	
  8908  15A1  2D89               	goto	l2965
  8909  15A2                     u4400:	
  8910  15A2  2DAC               	goto	l2973
  8911  15A3                     l2971:	
  8912  15A3  3001               	movlw	1
  8913  15A4  02F9               	subwf	___xxtofl@exp,f
  8914  15A5  3001               	movlw	1
  8915  15A6                     u4415:	
  8916  15A6  35FA               	lslf	___xxtofl@arg,f
  8917  15A7  0DFB               	rlf	___xxtofl@arg+1,f
  8918  15A8  0DFC               	rlf	___xxtofl@arg+2,f
  8919  15A9  0DFD               	rlf	___xxtofl@arg+3,f
  8920  15AA  0B89               	decfsz	9,f
  8921  15AB  2DA6               	goto	u4415
  8922  15AC                     l2973:	
  8923  15AC  1BFC               	btfsc	___xxtofl@arg+2,7
  8924  15AD  2DAF               	goto	u4421
  8925  15AE  2DB0               	goto	u4420
  8926  15AF                     u4421:	
  8927  15AF  2DB6               	goto	l754
  8928  15B0                     u4420:	
  8929  15B0                     l2975:	
  8930  15B0  3002               	movlw	2
  8931  15B1  0279               	subwf	___xxtofl@exp,w
  8932  15B2  1803               	skipnc
  8933  15B3  2DB5               	goto	u4431
  8934  15B4  2DB6               	goto	u4430
  8935  15B5                     u4431:	
  8936  15B5  2DA3               	goto	l2971
  8937  15B6                     u4430:	
  8938  15B6                     l754:	
  8939  15B6  1879               	btfsc	___xxtofl@exp,0
  8940  15B7  2DB9               	goto	u4441
  8941  15B8  2DBA               	goto	u4440
  8942  15B9                     u4441:	
  8943  15B9  2DC2               	goto	l755
  8944  15BA                     u4440:	
  8945  15BA                     l2977:	
  8946  15BA  30FF               	movlw	255
  8947  15BB  05FA               	andwf	___xxtofl@arg,f
  8948  15BC  30FF               	movlw	255
  8949  15BD  05FB               	andwf	___xxtofl@arg+1,f
  8950  15BE  307F               	movlw	127
  8951  15BF  05FC               	andwf	___xxtofl@arg+2,f
  8952  15C0  30FF               	movlw	255
  8953  15C1  05FD               	andwf	___xxtofl@arg+3,f
  8954  15C2                     l755:	
  8955  15C2  1003               	clrc
  8956  15C3  0CF9               	rrf	___xxtofl@exp,f
  8957  15C4                     l2979:	
  8958  15C4  0879               	movf	___xxtofl@exp,w
  8959  15C5  00F4               	movwf	??___xxtofl
  8960  15C6  01F5               	clrf	??___xxtofl+1
  8961  15C7  01F6               	clrf	??___xxtofl+2
  8962  15C8  01F7               	clrf	??___xxtofl+3
  8963  15C9  3018               	movlw	24
  8964  15CA                     u4455:	
  8965  15CA  35F4               	lslf	??___xxtofl,f
  8966  15CB  0DF5               	rlf	??___xxtofl+1,f
  8967  15CC  0DF6               	rlf	??___xxtofl+2,f
  8968  15CD  0DF7               	rlf	??___xxtofl+3,f
  8969  15CE                     u4450:	
  8970  15CE  0B89               	decfsz	9,f
  8971  15CF  2DCA               	goto	u4455
  8972  15D0  0874               	movf	??___xxtofl,w
  8973  15D1  04FA               	iorwf	___xxtofl@arg,f
  8974  15D2  0875               	movf	??___xxtofl+1,w
  8975  15D3  04FB               	iorwf	___xxtofl@arg+1,f
  8976  15D4  0876               	movf	??___xxtofl+2,w
  8977  15D5  04FC               	iorwf	___xxtofl@arg+2,f
  8978  15D6  0877               	movf	??___xxtofl+3,w
  8979  15D7  04FD               	iorwf	___xxtofl@arg+3,f
  8980  15D8                     l2981:	
  8981  15D8  0878               	movf	___xxtofl@sign,w
  8982  15D9  1903               	btfsc	3,2
  8983  15DA  2DDC               	goto	u4461
  8984  15DB  2DDD               	goto	u4460
  8985  15DC                     u4461:	
  8986  15DC  2DE2               	goto	l2987
  8987  15DD                     u4460:	
  8988  15DD                     l2983:	
  8989  15DD  1FF3               	btfss	___xxtofl@val+3,7
  8990  15DE  2DE0               	goto	u4471
  8991  15DF  2DE1               	goto	u4470
  8992  15E0                     u4471:	
  8993  15E0  2DE2               	goto	l2987
  8994  15E1                     u4470:	
  8995  15E1                     l2985:	
  8996  15E1  17FD               	bsf	___xxtofl@arg+3,7
  8997  15E2                     l2987:	
  8998  15E2  087D               	movf	___xxtofl@arg+3,w
  8999  15E3  00F3               	movwf	?___xxtofl+3
  9000  15E4  087C               	movf	___xxtofl@arg+2,w
  9001  15E5  00F2               	movwf	?___xxtofl+2
  9002  15E6  087B               	movf	___xxtofl@arg+1,w
  9003  15E7  00F1               	movwf	?___xxtofl+1
  9004  15E8  087A               	movf	___xxtofl@arg,w
  9005  15E9  00F0               	movwf	?___xxtofl
  9006  15EA                     l743:	
  9007  15EA  0008               	return
  9008  15EB                     __end_of___xxtofl:	
  9009                           
  9010                           	psect	text14
  9011  11A0                     __ptext14:	
  9012 ;; *************** function ___wmul *****************
  9013 ;; Defined at:
  9014 ;;		line 15 in file "C:\Program Files (x86)\Microchip\xc8\v2.10\pic\sources\c90\common\Umul16.c"
  9015 ;; Parameters:    Size  Location     Type
  9016 ;;  multiplier      2    0[COMMON] unsigned int 
  9017 ;;  multiplicand    2    2[COMMON] unsigned int 
  9018 ;; Auto vars:     Size  Location     Type
  9019 ;;  product         2    4[COMMON] unsigned int 
  9020 ;; Return value:  Size  Location     Type
  9021 ;;                  2    0[COMMON] unsigned int 
  9022 ;; Registers used:
  9023 ;;		wreg, status,2, status,0
  9024 ;; Tracked objects:
  9025 ;;		On entry : 0/0
  9026 ;;		On exit  : 0/0
  9027 ;;		Unchanged: 0/0
  9028 ;; Data sizes:     COMMON   BANK0   BANK1   BANK2   BANK3   BANK4   BANK5   BANK6   BANK7   BANK8   BANK9  BANK10  BANK1
      +1  BANK12
  9029 ;;      Params:         4       0       0       0       0       0       0       0       0       0       0       0       
      +0       0
  9030 ;;      Locals:         2       0       0       0       0       0       0       0       0       0       0       0       
      +0       0
  9031 ;;      Temps:          0       0       0       0       0       0       0       0       0       0       0       0       
      +0       0
  9032 ;;      Totals:         6       0       0       0       0       0       0       0       0       0       0       0       
      +0       0
  9033 ;;Total ram usage:        6 bytes
  9034 ;; Hardware stack levels used:    1
  9035 ;; Hardware stack levels required when called:    1
  9036 ;; This function calls:
  9037 ;;		Nothing
  9038 ;; This function is called by:
  9039 ;;		_sprintf
  9040 ;; This function uses a non-reentrant model
  9041 ;;
  9042                           
  9043                           
  9044                           ;psect for function ___wmul
  9045  11A0                     ___wmul:	
  9046  11A0                     l2807:	
  9047                           ;incstack = 0
  9048                           ; Regs used in ___wmul: [wreg+status,2+status,0]
  9049                           
  9050  11A0  01F4               	clrf	___wmul@product
  9051  11A1  01F5               	clrf	___wmul@product+1
  9052  11A2                     l2809:	
  9053  11A2  1C70               	btfss	___wmul@multiplier,0
  9054  11A3  29A5               	goto	u3981
  9055  11A4  29A6               	goto	u3980
  9056  11A5                     u3981:	
  9057  11A5  29AA               	goto	l280
  9058  11A6                     u3980:	
  9059  11A6                     l2811:	
  9060  11A6  0872               	movf	___wmul@multiplicand,w
  9061  11A7  07F4               	addwf	___wmul@product,f
  9062  11A8  0873               	movf	___wmul@multiplicand+1,w
  9063  11A9  3DF5               	addwfc	___wmul@product+1,f
  9064  11AA                     l280:	
  9065  11AA  3001               	movlw	1
  9066  11AB                     u3995:	
  9067  11AB  35F2               	lslf	___wmul@multiplicand,f
  9068  11AC  0DF3               	rlf	___wmul@multiplicand+1,f
  9069  11AD  0B89               	decfsz	9,f
  9070  11AE  29AB               	goto	u3995
  9071  11AF                     l2813:	
  9072  11AF  3001               	movlw	1
  9073  11B0                     u4005:	
  9074  11B0  36F1               	lsrf	___wmul@multiplier+1,f
  9075  11B1  0CF0               	rrf	___wmul@multiplier,f
  9076  11B2  0B89               	decfsz	9,f
  9077  11B3  29B0               	goto	u4005
  9078  11B4                     l2815:	
  9079  11B4  0870               	movf	___wmul@multiplier,w
  9080  11B5  0471               	iorwf	___wmul@multiplier+1,w
  9081  11B6  1D03               	btfss	3,2
  9082  11B7  29B9               	goto	u4011
  9083  11B8  29BA               	goto	u4010
  9084  11B9                     u4011:	
  9085  11B9  29A2               	goto	l2809
  9086  11BA                     u4010:	
  9087  11BA                     l2817:	
  9088  11BA  0875               	movf	___wmul@product+1,w
  9089  11BB  00F1               	movwf	?___wmul+1
  9090  11BC  0874               	movf	___wmul@product,w
  9091  11BD  00F0               	movwf	?___wmul
  9092  11BE                     l282:	
  9093  11BE  0008               	return
  9094  11BF                     __end_of___wmul:	
  9095                           
  9096                           	psect	text15
  9097  129B                     __ptext15:	
  9098 ;; *************** function ___llmod *****************
  9099 ;; Defined at:
  9100 ;;		line 5 in file "C:\Program Files (x86)\Microchip\xc8\v2.10\pic\sources\c90\common\llmod.c"
  9101 ;; Parameters:    Size  Location     Type
  9102 ;;  divisor         4    0[COMMON] unsigned long 
  9103 ;;  dividend        4    4[COMMON] unsigned long 
  9104 ;; Auto vars:     Size  Location     Type
  9105 ;;  counter         1    9[COMMON] unsigned char 
  9106 ;; Return value:  Size  Location     Type
  9107 ;;                  4    0[COMMON] unsigned long 
  9108 ;; Registers used:
  9109 ;;		wreg, status,2, status,0
  9110 ;; Tracked objects:
  9111 ;;		On entry : 0/0
  9112 ;;		On exit  : 0/0
  9113 ;;		Unchanged: 0/0
  9114 ;; Data sizes:     COMMON   BANK0   BANK1   BANK2   BANK3   BANK4   BANK5   BANK6   BANK7   BANK8   BANK9  BANK10  BANK1
      +1  BANK12
  9115 ;;      Params:         8       0       0       0       0       0       0       0       0       0       0       0       
      +0       0
  9116 ;;      Locals:         1       0       0       0       0       0       0       0       0       0       0       0       
      +0       0
  9117 ;;      Temps:          1       0       0       0       0       0       0       0       0       0       0       0       
      +0       0
  9118 ;;      Totals:        10       0       0       0       0       0       0       0       0       0       0       0       
      +0       0
  9119 ;;Total ram usage:       10 bytes
  9120 ;; Hardware stack levels used:    1
  9121 ;; Hardware stack levels required when called:    1
  9122 ;; This function calls:
  9123 ;;		Nothing
  9124 ;; This function is called by:
  9125 ;;		_sprintf
  9126 ;; This function uses a non-reentrant model
  9127 ;;
  9128                           
  9129                           
  9130                           ;psect for function ___llmod
  9131  129B                     ___llmod:	
  9132  129B                     l2921:	
  9133                           ;incstack = 0
  9134                           ; Regs used in ___llmod: [wreg+status,2+status,0]
  9135                           
  9136  129B  0873               	movf	___llmod@divisor+3,w
  9137  129C  0472               	iorwf	___llmod@divisor+2,w
  9138  129D  0471               	iorwf	___llmod@divisor+1,w
  9139  129E  0470               	iorwf	___llmod@divisor,w
  9140  129F  1903               	skipnz
  9141  12A0  2AA2               	goto	u4281
  9142  12A1  2AA3               	goto	u4280
  9143  12A2                     u4281:	
  9144  12A2  2ADC               	goto	l2937
  9145  12A3                     u4280:	
  9146  12A3                     l2923:	
  9147  12A3  01F9               	clrf	___llmod@counter
  9148  12A4  0AF9               	incf	___llmod@counter,f
  9149  12A5  2AB1               	goto	l2927
  9150  12A6                     l2925:	
  9151  12A6  3001               	movlw	1
  9152  12A7                     u4295:	
  9153  12A7  35F0               	lslf	___llmod@divisor,f
  9154  12A8  0DF1               	rlf	___llmod@divisor+1,f
  9155  12A9  0DF2               	rlf	___llmod@divisor+2,f
  9156  12AA  0DF3               	rlf	___llmod@divisor+3,f
  9157  12AB  0B89               	decfsz	9,f
  9158  12AC  2AA7               	goto	u4295
  9159  12AD  3001               	movlw	1
  9160  12AE  00F8               	movwf	??___llmod
  9161  12AF  0878               	movf	??___llmod,w
  9162  12B0  07F9               	addwf	___llmod@counter,f
  9163  12B1                     l2927:	
  9164  12B1  1FF3               	btfss	___llmod@divisor+3,7
  9165  12B2  2AB4               	goto	u4301
  9166  12B3  2AB5               	goto	u4300
  9167  12B4                     u4301:	
  9168  12B4  2AA6               	goto	l2925
  9169  12B5                     u4300:	
  9170  12B5                     l2929:	
  9171  12B5  0873               	movf	___llmod@divisor+3,w
  9172  12B6  0277               	subwf	___llmod@dividend+3,w
  9173  12B7  1D03               	skipz
  9174  12B8  2AC3               	goto	u4315
  9175  12B9  0872               	movf	___llmod@divisor+2,w
  9176  12BA  0276               	subwf	___llmod@dividend+2,w
  9177  12BB  1D03               	skipz
  9178  12BC  2AC3               	goto	u4315
  9179  12BD  0871               	movf	___llmod@divisor+1,w
  9180  12BE  0275               	subwf	___llmod@dividend+1,w
  9181  12BF  1D03               	skipz
  9182  12C0  2AC3               	goto	u4315
  9183  12C1  0870               	movf	___llmod@divisor,w
  9184  12C2  0274               	subwf	___llmod@dividend,w
  9185  12C3                     u4315:	
  9186  12C3  1C03               	skipc
  9187  12C4  2AC6               	goto	u4311
  9188  12C5  2AC7               	goto	u4310
  9189  12C6                     u4311:	
  9190  12C6  2ACF               	goto	l2933
  9191  12C7                     u4310:	
  9192  12C7                     l2931:	
  9193  12C7  0870               	movf	___llmod@divisor,w
  9194  12C8  02F4               	subwf	___llmod@dividend,f
  9195  12C9  0871               	movf	___llmod@divisor+1,w
  9196  12CA  3BF5               	subwfb	___llmod@dividend+1,f
  9197  12CB  0872               	movf	___llmod@divisor+2,w
  9198  12CC  3BF6               	subwfb	___llmod@dividend+2,f
  9199  12CD  0873               	movf	___llmod@divisor+3,w
  9200  12CE  3BF7               	subwfb	___llmod@dividend+3,f
  9201  12CF                     l2933:	
  9202  12CF  3001               	movlw	1
  9203  12D0                     u4325:	
  9204  12D0  36F3               	lsrf	___llmod@divisor+3,f
  9205  12D1  0CF2               	rrf	___llmod@divisor+2,f
  9206  12D2  0CF1               	rrf	___llmod@divisor+1,f
  9207  12D3  0CF0               	rrf	___llmod@divisor,f
  9208  12D4  0B89               	decfsz	9,f
  9209  12D5  2AD0               	goto	u4325
  9210  12D6                     l2935:	
  9211  12D6  3001               	movlw	1
  9212  12D7  02F9               	subwf	___llmod@counter,f
  9213  12D8  1D03               	btfss	3,2
  9214  12D9  2ADB               	goto	u4331
  9215  12DA  2ADC               	goto	u4330
  9216  12DB                     u4331:	
  9217  12DB  2AB5               	goto	l2929
  9218  12DC                     u4330:	
  9219  12DC                     l2937:	
  9220  12DC  0877               	movf	___llmod@dividend+3,w
  9221  12DD  00F3               	movwf	?___llmod+3
  9222  12DE  0876               	movf	___llmod@dividend+2,w
  9223  12DF  00F2               	movwf	?___llmod+2
  9224  12E0  0875               	movf	___llmod@dividend+1,w
  9225  12E1  00F1               	movwf	?___llmod+1
  9226  12E2  0874               	movf	___llmod@dividend,w
  9227  12E3  00F0               	movwf	?___llmod
  9228  12E4                     l536:	
  9229  12E4  0008               	return
  9230  12E5                     __end_of___llmod:	
  9231                           
  9232                           	psect	text16
  9233  1386                     __ptext16:	
  9234 ;; *************** function ___lldiv *****************
  9235 ;; Defined at:
  9236 ;;		line 5 in file "C:\Program Files (x86)\Microchip\xc8\v2.10\pic\sources\c90\common\__lldiv.c"
  9237 ;; Parameters:    Size  Location     Type
  9238 ;;  divisor         4    0[COMMON] unsigned long 
  9239 ;;  dividend        4    4[COMMON] unsigned long 
  9240 ;; Auto vars:     Size  Location     Type
  9241 ;;  quotient        4    9[COMMON] unsigned long 
  9242 ;;  counter         1   13[COMMON] unsigned char 
  9243 ;; Return value:  Size  Location     Type
  9244 ;;                  4    0[COMMON] unsigned long 
  9245 ;; Registers used:
  9246 ;;		wreg, status,2, status,0
  9247 ;; Tracked objects:
  9248 ;;		On entry : 0/0
  9249 ;;		On exit  : 0/0
  9250 ;;		Unchanged: 0/0
  9251 ;; Data sizes:     COMMON   BANK0   BANK1   BANK2   BANK3   BANK4   BANK5   BANK6   BANK7   BANK8   BANK9  BANK10  BANK1
      +1  BANK12
  9252 ;;      Params:         8       0       0       0       0       0       0       0       0       0       0       0       
      +0       0
  9253 ;;      Locals:         5       0       0       0       0       0       0       0       0       0       0       0       
      +0       0
  9254 ;;      Temps:          1       0       0       0       0       0       0       0       0       0       0       0       
      +0       0
  9255 ;;      Totals:        14       0       0       0       0       0       0       0       0       0       0       0       
      +0       0
  9256 ;;Total ram usage:       14 bytes
  9257 ;; Hardware stack levels used:    1
  9258 ;; Hardware stack levels required when called:    1
  9259 ;; This function calls:
  9260 ;;		Nothing
  9261 ;; This function is called by:
  9262 ;;		_sprintf
  9263 ;; This function uses a non-reentrant model
  9264 ;;
  9265                           
  9266                           
  9267                           ;psect for function ___lldiv
  9268  1386                     ___lldiv:	
  9269  1386                     l2821:	
  9270                           ;incstack = 0
  9271                           ; Regs used in ___lldiv: [wreg+status,2+status,0]
  9272                           
  9273  1386  3000               	movlw	0
  9274  1387  00FC               	movwf	___lldiv@quotient+3
  9275  1388  3000               	movlw	0
  9276  1389  00FB               	movwf	___lldiv@quotient+2
  9277  138A  3000               	movlw	0
  9278  138B  00FA               	movwf	___lldiv@quotient+1
  9279  138C  3000               	movlw	0
  9280  138D  00F9               	movwf	___lldiv@quotient
  9281  138E  0873               	movf	___lldiv@divisor+3,w
  9282  138F  0472               	iorwf	___lldiv@divisor+2,w
  9283  1390  0471               	iorwf	___lldiv@divisor+1,w
  9284  1391  0470               	iorwf	___lldiv@divisor,w
  9285  1392  1903               	skipnz
  9286  1393  2B95               	goto	u4021
  9287  1394  2B96               	goto	u4020
  9288  1395                     u4021:	
  9289  1395  2BD7               	goto	l2841
  9290  1396                     u4020:	
  9291  1396                     l2823:	
  9292  1396  01FD               	clrf	___lldiv@counter
  9293  1397  0AFD               	incf	___lldiv@counter,f
  9294  1398  2BA4               	goto	l2827
  9295  1399                     l2825:	
  9296  1399  3001               	movlw	1
  9297  139A                     u4035:	
  9298  139A  35F0               	lslf	___lldiv@divisor,f
  9299  139B  0DF1               	rlf	___lldiv@divisor+1,f
  9300  139C  0DF2               	rlf	___lldiv@divisor+2,f
  9301  139D  0DF3               	rlf	___lldiv@divisor+3,f
  9302  139E  0B89               	decfsz	9,f
  9303  139F  2B9A               	goto	u4035
  9304  13A0  3001               	movlw	1
  9305  13A1  00F8               	movwf	??___lldiv
  9306  13A2  0878               	movf	??___lldiv,w
  9307  13A3  07FD               	addwf	___lldiv@counter,f
  9308  13A4                     l2827:	
  9309  13A4  1FF3               	btfss	___lldiv@divisor+3,7
  9310  13A5  2BA7               	goto	u4041
  9311  13A6  2BA8               	goto	u4040
  9312  13A7                     u4041:	
  9313  13A7  2B99               	goto	l2825
  9314  13A8                     u4040:	
  9315  13A8                     l2829:	
  9316  13A8  3001               	movlw	1
  9317  13A9                     u4055:	
  9318  13A9  35F9               	lslf	___lldiv@quotient,f
  9319  13AA  0DFA               	rlf	___lldiv@quotient+1,f
  9320  13AB  0DFB               	rlf	___lldiv@quotient+2,f
  9321  13AC  0DFC               	rlf	___lldiv@quotient+3,f
  9322  13AD  0B89               	decfsz	9,f
  9323  13AE  2BA9               	goto	u4055
  9324  13AF                     l2831:	
  9325  13AF  0873               	movf	___lldiv@divisor+3,w
  9326  13B0  0277               	subwf	___lldiv@dividend+3,w
  9327  13B1  1D03               	skipz
  9328  13B2  2BBD               	goto	u4065
  9329  13B3  0872               	movf	___lldiv@divisor+2,w
  9330  13B4  0276               	subwf	___lldiv@dividend+2,w
  9331  13B5  1D03               	skipz
  9332  13B6  2BBD               	goto	u4065
  9333  13B7  0871               	movf	___lldiv@divisor+1,w
  9334  13B8  0275               	subwf	___lldiv@dividend+1,w
  9335  13B9  1D03               	skipz
  9336  13BA  2BBD               	goto	u4065
  9337  13BB  0870               	movf	___lldiv@divisor,w
  9338  13BC  0274               	subwf	___lldiv@dividend,w
  9339  13BD                     u4065:	
  9340  13BD  1C03               	skipc
  9341  13BE  2BC0               	goto	u4061
  9342  13BF  2BC1               	goto	u4060
  9343  13C0                     u4061:	
  9344  13C0  2BCA               	goto	l2837
  9345  13C1                     u4060:	
  9346  13C1                     l2833:	
  9347  13C1  0870               	movf	___lldiv@divisor,w
  9348  13C2  02F4               	subwf	___lldiv@dividend,f
  9349  13C3  0871               	movf	___lldiv@divisor+1,w
  9350  13C4  3BF5               	subwfb	___lldiv@dividend+1,f
  9351  13C5  0872               	movf	___lldiv@divisor+2,w
  9352  13C6  3BF6               	subwfb	___lldiv@dividend+2,f
  9353  13C7  0873               	movf	___lldiv@divisor+3,w
  9354  13C8  3BF7               	subwfb	___lldiv@dividend+3,f
  9355  13C9                     l2835:	
  9356  13C9  1479               	bsf	___lldiv@quotient,0
  9357  13CA                     l2837:	
  9358  13CA  3001               	movlw	1
  9359  13CB                     u4075:	
  9360  13CB  36F3               	lsrf	___lldiv@divisor+3,f
  9361  13CC  0CF2               	rrf	___lldiv@divisor+2,f
  9362  13CD  0CF1               	rrf	___lldiv@divisor+1,f
  9363  13CE  0CF0               	rrf	___lldiv@divisor,f
  9364  13CF  0B89               	decfsz	9,f
  9365  13D0  2BCB               	goto	u4075
  9366  13D1                     l2839:	
  9367  13D1  3001               	movlw	1
  9368  13D2  02FD               	subwf	___lldiv@counter,f
  9369  13D3  1D03               	btfss	3,2
  9370  13D4  2BD6               	goto	u4081
  9371  13D5  2BD7               	goto	u4080
  9372  13D6                     u4081:	
  9373  13D6  2BA8               	goto	l2829
  9374  13D7                     u4080:	
  9375  13D7                     l2841:	
  9376  13D7  087C               	movf	___lldiv@quotient+3,w
  9377  13D8  00F3               	movwf	?___lldiv+3
  9378  13D9  087B               	movf	___lldiv@quotient+2,w
  9379  13DA  00F2               	movwf	?___lldiv+2
  9380  13DB  087A               	movf	___lldiv@quotient+1,w
  9381  13DC  00F1               	movwf	?___lldiv+1
  9382  13DD  0879               	movf	___lldiv@quotient,w
  9383  13DE  00F0               	movwf	?___lldiv
  9384  13DF                     l316:	
  9385  13DF  0008               	return
  9386  13E0                     __end_of___lldiv:	
  9387                           
  9388                           	psect	text17
  9389  1440                     __ptext17:	
  9390 ;; *************** function ___fltol *****************
  9391 ;; Defined at:
  9392 ;;		line 43 in file "C:\Program Files (x86)\Microchip\xc8\v2.10\pic\sources\c90\common\fltol.c"
  9393 ;; Parameters:    Size  Location     Type
  9394 ;;  f1              4   51[BANK0 ] unsigned long 
  9395 ;; Auto vars:     Size  Location     Type
  9396 ;;  exp1            1   61[BANK0 ] unsigned char 
  9397 ;;  sign1           1   60[BANK0 ] unsigned char 
  9398 ;; Return value:  Size  Location     Type
  9399 ;;                  4   51[BANK0 ] long 
  9400 ;; Registers used:
  9401 ;;		wreg, status,2, status,0
  9402 ;; Tracked objects:
  9403 ;;		On entry : 0/0
  9404 ;;		On exit  : 0/0
  9405 ;;		Unchanged: 0/0
  9406 ;; Data sizes:     COMMON   BANK0   BANK1   BANK2   BANK3   BANK4   BANK5   BANK6   BANK7   BANK8   BANK9  BANK10  BANK1
      +1  BANK12
  9407 ;;      Params:         0       4       0       0       0       0       0       0       0       0       0       0       
      +0       0
  9408 ;;      Locals:         0       2       0       0       0       0       0       0       0       0       0       0       
      +0       0
  9409 ;;      Temps:          0       5       0       0       0       0       0       0       0       0       0       0       
      +0       0
  9410 ;;      Totals:         0      11       0       0       0       0       0       0       0       0       0       0       
      +0       0
  9411 ;;Total ram usage:       11 bytes
  9412 ;; Hardware stack levels used:    1
  9413 ;; Hardware stack levels required when called:    1
  9414 ;; This function calls:
  9415 ;;		Nothing
  9416 ;; This function is called by:
  9417 ;;		_sprintf
  9418 ;; This function uses a non-reentrant model
  9419 ;;
  9420                           
  9421                           
  9422                           ;psect for function ___fltol
  9423  1440                     ___fltol:	
  9424  1440                     l2885:	
  9425                           ;incstack = 0
  9426                           ; Regs used in ___fltol: [wreg+status,2+status,0]
  9427                           
  9428  1440  1003               	clrc
  9429  1441  0020               	movlb	0	; select bank0
  9430  1442  0D55               	rlf	___fltol@f1+2,w
  9431  1443  0D56               	rlf	___fltol@f1+3,w
  9432  1444  00D7               	movwf	??___fltol
  9433  1445  0857               	movf	??___fltol,w
  9434  1446  00DD               	movwf	___fltol@exp1
  9435  1447  085D               	movf	___fltol@exp1,w
  9436  1448  1D03               	btfss	3,2
  9437  1449  2C4B               	goto	u4181
  9438  144A  2C4C               	goto	u4180
  9439  144B                     u4181:	
  9440  144B  2C55               	goto	l2891
  9441  144C                     u4180:	
  9442  144C                     l2887:	
  9443  144C  3000               	movlw	0
  9444  144D  00D6               	movwf	?___fltol+3
  9445  144E  3000               	movlw	0
  9446  144F  00D5               	movwf	?___fltol+2
  9447  1450  3000               	movlw	0
  9448  1451  00D4               	movwf	?___fltol+1
  9449  1452  3000               	movlw	0
  9450  1453  00D3               	movwf	?___fltol
  9451  1454  2CB4               	goto	l483
  9452  1455                     l2891:	
  9453  1455  0853               	movf	___fltol@f1,w
  9454  1456  00D7               	movwf	??___fltol
  9455  1457  0854               	movf	___fltol@f1+1,w
  9456  1458  00D8               	movwf	??___fltol+1
  9457  1459  0855               	movf	___fltol@f1+2,w
  9458  145A  00D9               	movwf	??___fltol+2
  9459  145B  0856               	movf	___fltol@f1+3,w
  9460  145C  00DA               	movwf	??___fltol+3
  9461  145D  301F               	movlw	31
  9462  145E                     u4195:	
  9463  145E  36DA               	lsrf	??___fltol+3,f
  9464  145F  0CD9               	rrf	??___fltol+2,f
  9465  1460  0CD8               	rrf	??___fltol+1,f
  9466  1461  0CD7               	rrf	??___fltol,f
  9467  1462                     u4190:	
  9468  1462  0B89               	decfsz	9,f
  9469  1463  2C5E               	goto	u4195
  9470  1464  0857               	movf	??___fltol,w
  9471  1465  00DB               	movwf	??___fltol+4
  9472  1466  085B               	movf	??___fltol+4,w
  9473  1467  00DC               	movwf	___fltol@sign1
  9474  1468                     l2893:	
  9475  1468  17D5               	bsf	___fltol@f1+2,7
  9476  1469                     l2895:	
  9477  1469  30FF               	movlw	255
  9478  146A  05D3               	andwf	___fltol@f1,f
  9479  146B  30FF               	movlw	255
  9480  146C  05D4               	andwf	___fltol@f1+1,f
  9481  146D  30FF               	movlw	255
  9482  146E  05D5               	andwf	___fltol@f1+2,f
  9483  146F  3000               	movlw	0
  9484  1470  05D6               	andwf	___fltol@f1+3,f
  9485  1471                     l2897:	
  9486  1471  3096               	movlw	150
  9487  1472  02DD               	subwf	___fltol@exp1,f
  9488  1473                     l2899:	
  9489  1473  1FDD               	btfss	___fltol@exp1,7
  9490  1474  2C76               	goto	u4201
  9491  1475  2C77               	goto	u4200
  9492  1476                     u4201:	
  9493  1476  2C8F               	goto	l2909
  9494  1477                     u4200:	
  9495  1477                     l2901:	
  9496  1477  085D               	movf	___fltol@exp1,w
  9497  1478  3A80               	xorlw	128
  9498  1479  3E97               	addlw	151
  9499  147A  1803               	skipnc
  9500  147B  2C7D               	goto	u4211
  9501  147C  2C7E               	goto	u4210
  9502  147D                     u4211:	
  9503  147D  2C7F               	goto	l2907
  9504  147E                     u4210:	
  9505  147E  2C4C               	goto	l2887
  9506  147F                     l2907:	
  9507  147F  3001               	movlw	1
  9508  1480                     u4225:	
  9509  1480  36D6               	lsrf	___fltol@f1+3,f
  9510  1481  0CD5               	rrf	___fltol@f1+2,f
  9511  1482  0CD4               	rrf	___fltol@f1+1,f
  9512  1483  0CD3               	rrf	___fltol@f1,f
  9513  1484  0B89               	decfsz	9,f
  9514  1485  2C80               	goto	u4225
  9515  1486  3001               	movlw	1
  9516  1487  00D7               	movwf	??___fltol
  9517  1488  0857               	movf	??___fltol,w
  9518  1489  07DD               	addwf	___fltol@exp1,f
  9519  148A  1D03               	btfss	3,2
  9520  148B  2C8D               	goto	u4231
  9521  148C  2C8E               	goto	u4230
  9522  148D                     u4231:	
  9523  148D  2C7F               	goto	l2907
  9524  148E                     u4230:	
  9525  148E  2CA4               	goto	l2917
  9526  148F                     l2909:	
  9527  148F  3020               	movlw	32
  9528  1490  025D               	subwf	___fltol@exp1,w
  9529  1491  1C03               	skipc
  9530  1492  2C94               	goto	u4241
  9531  1493  2C95               	goto	u4240
  9532  1494                     u4241:	
  9533  1494  2C9F               	goto	l490
  9534  1495                     u4240:	
  9535  1495  2C4C               	goto	l2887
  9536  1496                     l2915:	
  9537  1496  3001               	movlw	1
  9538  1497                     u4255:	
  9539  1497  35D3               	lslf	___fltol@f1,f
  9540  1498  0DD4               	rlf	___fltol@f1+1,f
  9541  1499  0DD5               	rlf	___fltol@f1+2,f
  9542  149A  0DD6               	rlf	___fltol@f1+3,f
  9543  149B  0B89               	decfsz	9,f
  9544  149C  2C97               	goto	u4255
  9545  149D  3001               	movlw	1
  9546  149E  02DD               	subwf	___fltol@exp1,f
  9547  149F                     l490:	
  9548  149F  085D               	movf	___fltol@exp1,w
  9549  14A0  1D03               	btfss	3,2
  9550  14A1  2CA3               	goto	u4261
  9551  14A2  2CA4               	goto	u4260
  9552  14A3                     u4261:	
  9553  14A3  2C96               	goto	l2915
  9554  14A4                     u4260:	
  9555  14A4                     l2917:	
  9556  14A4  085C               	movf	___fltol@sign1,w
  9557  14A5  1903               	btfsc	3,2
  9558  14A6  2CA8               	goto	u4271
  9559  14A7  2CA9               	goto	u4270
  9560  14A8                     u4271:	
  9561  14A8  2CB4               	goto	l493
  9562  14A9                     u4270:	
  9563  14A9                     l2919:	
  9564  14A9  09D3               	comf	___fltol@f1,f
  9565  14AA  09D4               	comf	___fltol@f1+1,f
  9566  14AB  09D5               	comf	___fltol@f1+2,f
  9567  14AC  09D6               	comf	___fltol@f1+3,f
  9568  14AD  0AD3               	incf	___fltol@f1,f
  9569  14AE  1903               	skipnz
  9570  14AF  0AD4               	incf	___fltol@f1+1,f
  9571  14B0  1903               	skipnz
  9572  14B1  0AD5               	incf	___fltol@f1+2,f
  9573  14B2  1903               	skipnz
  9574  14B3  0AD6               	incf	___fltol@f1+3,f
  9575  14B4                     l493:	
  9576  14B4                     l483:	
  9577  14B4  0008               	return
  9578  14B5                     __end_of___fltol:	
  9579                           
  9580                           	psect	text18
  9581  11E2                     __ptext18:	
  9582 ;; *************** function ___flsub *****************
  9583 ;; Defined at:
  9584 ;;		line 242 in file "C:\Program Files (x86)\Microchip\xc8\v2.10\pic\sources\c90\common\sprcadd.c"
  9585 ;; Parameters:    Size  Location     Type
  9586 ;;  a               4    0[BANK1 ] long 
  9587 ;;  b               4    4[BANK1 ] long 
  9588 ;; Auto vars:     Size  Location     Type
  9589 ;;		None
  9590 ;; Return value:  Size  Location     Type
  9591 ;;                  4    0[BANK1 ] long 
  9592 ;; Registers used:
  9593 ;;		wreg, status,2, status,0, pclath, cstack
  9594 ;; Tracked objects:
  9595 ;;		On entry : 0/0
  9596 ;;		On exit  : 0/0
  9597 ;;		Unchanged: 0/0
  9598 ;; Data sizes:     COMMON   BANK0   BANK1   BANK2   BANK3   BANK4   BANK5   BANK6   BANK7   BANK8   BANK9  BANK10  BANK1
      +1  BANK12
  9599 ;;      Params:         0       0       8       0       0       0       0       0       0       0       0       0       
      +0       0
  9600 ;;      Locals:         0       0       0       0       0       0       0       0       0       0       0       0       
      +0       0
  9601 ;;      Temps:          0       0       0       0       0       0       0       0       0       0       0       0       
      +0       0
  9602 ;;      Totals:         0       0       8       0       0       0       0       0       0       0       0       0       
      +0       0
  9603 ;;Total ram usage:        8 bytes
  9604 ;; Hardware stack levels used:    1
  9605 ;; Hardware stack levels required when called:    2
  9606 ;; This function calls:
  9607 ;;		___fladd
  9608 ;; This function is called by:
  9609 ;;		_sprintf
  9610 ;; This function uses a non-reentrant model
  9611 ;;
  9612                           
  9613                           
  9614                           ;psect for function ___flsub
  9615  11E2                     ___flsub:	
  9616  11E2                     l2941:	
  9617                           ;incstack = 0
  9618                           ; Regs used in ___flsub: [wreg+status,2+status,0+pclath+cstack]
  9619                           
  9620  11E2  3080               	movlw	128
  9621  11E3  0021               	movlb	1	; select bank1
  9622  11E4  06A3               	xorwf	(___flsub@a+3)^(0+128),f
  9623  11E5                     l2943:	
  9624  11E5  0827               	movf	(___flsub@b+3)^(0+128),w
  9625  11E6  0020               	movlb	0	; select bank0
  9626  11E7  00DB               	movwf	___fladd@b+3
  9627  11E8  0021               	movlb	1	; select bank1
  9628  11E9  0826               	movf	(___flsub@b+2)^(0+128),w
  9629  11EA  0020               	movlb	0	; select bank0
  9630  11EB  00DA               	movwf	___fladd@b+2
  9631  11EC  0021               	movlb	1	; select bank1
  9632  11ED  0825               	movf	(___flsub@b+1)^(0+128),w
  9633  11EE  0020               	movlb	0	; select bank0
  9634  11EF  00D9               	movwf	___fladd@b+1
  9635  11F0  0021               	movlb	1	; select bank1
  9636  11F1  0824               	movf	___flsub@b^(0+128),w
  9637  11F2  0020               	movlb	0	; select bank0
  9638  11F3  00D8               	movwf	___fladd@b
  9639  11F4  0021               	movlb	1	; select bank1
  9640  11F5  0823               	movf	(___flsub@a+3)^(0+128),w
  9641  11F6  0020               	movlb	0	; select bank0
  9642  11F7  00DF               	movwf	___fladd@a+3
  9643  11F8  0021               	movlb	1	; select bank1
  9644  11F9  0822               	movf	(___flsub@a+2)^(0+128),w
  9645  11FA  0020               	movlb	0	; select bank0
  9646  11FB  00DE               	movwf	___fladd@a+2
  9647  11FC  0021               	movlb	1	; select bank1
  9648  11FD  0821               	movf	(___flsub@a+1)^(0+128),w
  9649  11FE  0020               	movlb	0	; select bank0
  9650  11FF  00DD               	movwf	___fladd@a+1
  9651  1200  0021               	movlb	1	; select bank1
  9652  1201  0820               	movf	___flsub@a^(0+128),w
  9653  1202  0020               	movlb	0	; select bank0
  9654  1203  00DC               	movwf	___fladd@a
  9655  1204  318B  2371  3191   	fcall	___fladd
  9656  1207  0020               	movlb	0	; select bank0
  9657  1208  085B               	movf	?___fladd+3,w
  9658  1209  0021               	movlb	1	; select bank1
  9659  120A  00A3               	movwf	(?___flsub+3)^(0+128)
  9660  120B  0020               	movlb	0	; select bank0
  9661  120C  085A               	movf	?___fladd+2,w
  9662  120D  0021               	movlb	1	; select bank1
  9663  120E  00A2               	movwf	(?___flsub+2)^(0+128)
  9664  120F  0020               	movlb	0	; select bank0
  9665  1210  0859               	movf	?___fladd+1,w
  9666  1211  0021               	movlb	1	; select bank1
  9667  1212  00A1               	movwf	(?___flsub+1)^(0+128)
  9668  1213  0020               	movlb	0	; select bank0
  9669  1214  0858               	movf	?___fladd,w
  9670  1215  0021               	movlb	1	; select bank1
  9671  1216  00A0               	movwf	?___flsub^(0+128)
  9672  1217                     l653:	
  9673  1217  0008               	return
  9674  1218                     __end_of___flsub:	
  9675                           
  9676                           	psect	text19
  9677  0B71                     __ptext19:	
  9678 ;; *************** function ___fladd *****************
  9679 ;; Defined at:
  9680 ;;		line 10 in file "C:\Program Files (x86)\Microchip\xc8\v2.10\pic\sources\c90\common\sprcadd.c"
  9681 ;; Parameters:    Size  Location     Type
  9682 ;;  b               4   56[BANK0 ] long 
  9683 ;;  a               4   60[BANK0 ] long 
  9684 ;; Auto vars:     Size  Location     Type
  9685 ;;  grs             1   75[BANK0 ] unsigned char 
  9686 ;;  bexp            1   74[BANK0 ] unsigned char 
  9687 ;;  aexp            1   73[BANK0 ] unsigned char 
  9688 ;;  signs           1   72[BANK0 ] unsigned char 
  9689 ;; Return value:  Size  Location     Type
  9690 ;;                  4   56[BANK0 ] unsigned char 
  9691 ;; Registers used:
  9692 ;;		wreg, status,2, status,0
  9693 ;; Tracked objects:
  9694 ;;		On entry : 0/0
  9695 ;;		On exit  : 0/0
  9696 ;;		Unchanged: 0/0
  9697 ;; Data sizes:     COMMON   BANK0   BANK1   BANK2   BANK3   BANK4   BANK5   BANK6   BANK7   BANK8   BANK9  BANK10  BANK1
      +1  BANK12
  9698 ;;      Params:         0       8       0       0       0       0       0       0       0       0       0       0       
      +0       0
  9699 ;;      Locals:         0       4       0       0       0       0       0       0       0       0       0       0       
      +0       0
  9700 ;;      Temps:          0       8       0       0       0       0       0       0       0       0       0       0       
      +0       0
  9701 ;;      Totals:         0      20       0       0       0       0       0       0       0       0       0       0       
      +0       0
  9702 ;;Total ram usage:       20 bytes
  9703 ;; Hardware stack levels used:    1
  9704 ;; Hardware stack levels required when called:    1
  9705 ;; This function calls:
  9706 ;;		Nothing
  9707 ;; This function is called by:
  9708 ;;		_main
  9709 ;;		_sprintf
  9710 ;;		___flsub
  9711 ;; This function uses a non-reentrant model
  9712 ;;
  9713                           
  9714                           
  9715                           ;psect for function ___fladd
  9716  0B71                     ___fladd:	
  9717  0B71                     l2299:	
  9718                           ;incstack = 0
  9719                           ; Regs used in ___fladd: [wreg+status,2+status,0]
  9720                           
  9721  0B71  0020               	movlb	0	; select bank0
  9722  0B72  085B               	movf	___fladd@b+3,w
  9723  0B73  3980               	andlw	128
  9724  0B74  00E0               	movwf	??___fladd
  9725  0B75  0860               	movf	??___fladd,w
  9726  0B76  00E8               	movwf	___fladd@signs
  9727  0B77                     l2301:	
  9728  0B77  355B               	lslf	___fladd@b+3,w
  9729  0B78  00E0               	movwf	??___fladd
  9730  0B79  0860               	movf	??___fladd,w
  9731  0B7A  00EA               	movwf	___fladd@bexp
  9732  0B7B                     l2303:	
  9733  0B7B  1FDA               	btfss	___fladd@b+2,7
  9734  0B7C  2B7E               	goto	u2941
  9735  0B7D  2B7F               	goto	u2940
  9736  0B7E                     u2941:	
  9737  0B7E  2B80               	goto	l2307
  9738  0B7F                     u2940:	
  9739  0B7F                     l2305:	
  9740  0B7F  146A               	bsf	___fladd@bexp,0
  9741  0B80                     l2307:	
  9742  0B80  086A               	movf	___fladd@bexp,w
  9743  0B81  1903               	btfsc	3,2
  9744  0B82  2B84               	goto	u2951
  9745  0B83  2B85               	goto	u2950
  9746  0B84                     u2951:	
  9747  0B84  2B95               	goto	l2317
  9748  0B85                     u2950:	
  9749  0B85                     l2309:	
  9750  0B85  0A6A               	incf	___fladd@bexp,w
  9751  0B86  1D03               	btfss	3,2
  9752  0B87  2B89               	goto	u2961
  9753  0B88  2B8A               	goto	u2960
  9754  0B89                     u2961:	
  9755  0B89  2B92               	goto	l2313
  9756  0B8A                     u2960:	
  9757  0B8A                     l2311:	
  9758  0B8A  3000               	movlw	0
  9759  0B8B  00DB               	movwf	___fladd@b+3
  9760  0B8C  3000               	movlw	0
  9761  0B8D  00DA               	movwf	___fladd@b+2
  9762  0B8E  3000               	movlw	0
  9763  0B8F  00D9               	movwf	___fladd@b+1
  9764  0B90  3000               	movlw	0
  9765  0B91  00D8               	movwf	___fladd@b
  9766  0B92                     l2313:	
  9767  0B92  17DA               	bsf	___fladd@b+2,7
  9768  0B93                     l2315:	
  9769  0B93  01DB               	clrf	___fladd@b+3
  9770  0B94  2B9D               	goto	l2319
  9771  0B95                     l2317:	
  9772  0B95  3000               	movlw	0
  9773  0B96  00DB               	movwf	___fladd@b+3
  9774  0B97  3000               	movlw	0
  9775  0B98  00DA               	movwf	___fladd@b+2
  9776  0B99  3000               	movlw	0
  9777  0B9A  00D9               	movwf	___fladd@b+1
  9778  0B9B  3000               	movlw	0
  9779  0B9C  00D8               	movwf	___fladd@b
  9780  0B9D                     l2319:	
  9781  0B9D  085F               	movf	___fladd@a+3,w
  9782  0B9E  3980               	andlw	128
  9783  0B9F  00E0               	movwf	??___fladd
  9784  0BA0  0860               	movf	??___fladd,w
  9785  0BA1  00E9               	movwf	___fladd@aexp
  9786  0BA2                     l2321:	
  9787  0BA2  0869               	movf	___fladd@aexp,w
  9788  0BA3  0668               	xorwf	___fladd@signs,w
  9789  0BA4  1903               	skipnz
  9790  0BA5  2BA7               	goto	u2971
  9791  0BA6  2BA8               	goto	u2970
  9792  0BA7                     u2971:	
  9793  0BA7  2BA9               	goto	l2325
  9794  0BA8                     u2970:	
  9795  0BA8                     l2323:	
  9796  0BA8  1768               	bsf	___fladd@signs,6
  9797  0BA9                     l2325:	
  9798  0BA9  355F               	lslf	___fladd@a+3,w
  9799  0BAA  00E0               	movwf	??___fladd
  9800  0BAB  0860               	movf	??___fladd,w
  9801  0BAC  00E9               	movwf	___fladd@aexp
  9802  0BAD                     l2327:	
  9803  0BAD  1FDE               	btfss	___fladd@a+2,7
  9804  0BAE  2BB0               	goto	u2981
  9805  0BAF  2BB1               	goto	u2980
  9806  0BB0                     u2981:	
  9807  0BB0  2BB2               	goto	l2331
  9808  0BB1                     u2980:	
  9809  0BB1                     l2329:	
  9810  0BB1  1469               	bsf	___fladd@aexp,0
  9811  0BB2                     l2331:	
  9812  0BB2  0869               	movf	___fladd@aexp,w
  9813  0BB3  1903               	btfsc	3,2
  9814  0BB4  2BB6               	goto	u2991
  9815  0BB5  2BB7               	goto	u2990
  9816  0BB6                     u2991:	
  9817  0BB6  2BC7               	goto	l2341
  9818  0BB7                     u2990:	
  9819  0BB7                     l2333:	
  9820  0BB7  0A69               	incf	___fladd@aexp,w
  9821  0BB8  1D03               	btfss	3,2
  9822  0BB9  2BBB               	goto	u3001
  9823  0BBA  2BBC               	goto	u3000
  9824  0BBB                     u3001:	
  9825  0BBB  2BC4               	goto	l2337
  9826  0BBC                     u3000:	
  9827  0BBC                     l2335:	
  9828  0BBC  3000               	movlw	0
  9829  0BBD  00DF               	movwf	___fladd@a+3
  9830  0BBE  3000               	movlw	0
  9831  0BBF  00DE               	movwf	___fladd@a+2
  9832  0BC0  3000               	movlw	0
  9833  0BC1  00DD               	movwf	___fladd@a+1
  9834  0BC2  3000               	movlw	0
  9835  0BC3  00DC               	movwf	___fladd@a
  9836  0BC4                     l2337:	
  9837  0BC4  17DE               	bsf	___fladd@a+2,7
  9838  0BC5                     l2339:	
  9839  0BC5  01DF               	clrf	___fladd@a+3
  9840  0BC6  2BCF               	goto	l607
  9841  0BC7                     l2341:	
  9842  0BC7  3000               	movlw	0
  9843  0BC8  00DF               	movwf	___fladd@a+3
  9844  0BC9  3000               	movlw	0
  9845  0BCA  00DE               	movwf	___fladd@a+2
  9846  0BCB  3000               	movlw	0
  9847  0BCC  00DD               	movwf	___fladd@a+1
  9848  0BCD  3000               	movlw	0
  9849  0BCE  00DC               	movwf	___fladd@a
  9850  0BCF                     l607:	
  9851  0BCF  086A               	movf	___fladd@bexp,w
  9852  0BD0  0269               	subwf	___fladd@aexp,w
  9853  0BD1  1803               	skipnc
  9854  0BD2  2BD4               	goto	u3011
  9855  0BD3  2BD5               	goto	u3010
  9856  0BD4                     u3011:	
  9857  0BD4  2C19               	goto	l2377
  9858  0BD5                     u3010:	
  9859  0BD5                     l2343:	
  9860  0BD5  1F68               	btfss	___fladd@signs,6
  9861  0BD6  2BD8               	goto	u3021
  9862  0BD7  2BD9               	goto	u3020
  9863  0BD8                     u3021:	
  9864  0BD8  2BDD               	goto	l2347
  9865  0BD9                     u3020:	
  9866  0BD9                     l2345:	
  9867  0BD9  3080               	movlw	128
  9868  0BDA  00E0               	movwf	??___fladd
  9869  0BDB  0860               	movf	??___fladd,w
  9870  0BDC  06E8               	xorwf	___fladd@signs,f
  9871  0BDD                     l2347:	
  9872  0BDD  086A               	movf	___fladd@bexp,w
  9873  0BDE  00E0               	movwf	??___fladd
  9874  0BDF  0860               	movf	??___fladd,w
  9875  0BE0  00EB               	movwf	___fladd@grs
  9876  0BE1                     l2349:	
  9877  0BE1  0869               	movf	___fladd@aexp,w
  9878  0BE2  00E0               	movwf	??___fladd
  9879  0BE3  0860               	movf	??___fladd,w
  9880  0BE4  00EA               	movwf	___fladd@bexp
  9881  0BE5                     l2351:	
  9882  0BE5  086B               	movf	___fladd@grs,w
  9883  0BE6  00E0               	movwf	??___fladd
  9884  0BE7  0860               	movf	??___fladd,w
  9885  0BE8  00E9               	movwf	___fladd@aexp
  9886  0BE9                     l2353:	
  9887  0BE9  0858               	movf	___fladd@b,w
  9888  0BEA  00E0               	movwf	??___fladd
  9889  0BEB  0860               	movf	??___fladd,w
  9890  0BEC  00EB               	movwf	___fladd@grs
  9891  0BED                     l2355:	
  9892  0BED  085C               	movf	___fladd@a,w
  9893  0BEE  00E0               	movwf	??___fladd
  9894  0BEF  0860               	movf	??___fladd,w
  9895  0BF0  00D8               	movwf	___fladd@b
  9896  0BF1                     l2357:	
  9897  0BF1  086B               	movf	___fladd@grs,w
  9898  0BF2  00E0               	movwf	??___fladd
  9899  0BF3  0860               	movf	??___fladd,w
  9900  0BF4  00DC               	movwf	___fladd@a
  9901  0BF5                     l2359:	
  9902  0BF5  0859               	movf	___fladd@b+1,w
  9903  0BF6  00E0               	movwf	??___fladd
  9904  0BF7  0860               	movf	??___fladd,w
  9905  0BF8  00EB               	movwf	___fladd@grs
  9906  0BF9                     l2361:	
  9907  0BF9  085D               	movf	___fladd@a+1,w
  9908  0BFA  00E0               	movwf	??___fladd
  9909  0BFB  0860               	movf	??___fladd,w
  9910  0BFC  00D9               	movwf	___fladd@b+1
  9911  0BFD                     l2363:	
  9912  0BFD  086B               	movf	___fladd@grs,w
  9913  0BFE  00E0               	movwf	??___fladd
  9914  0BFF  0860               	movf	??___fladd,w
  9915  0C00  00DD               	movwf	___fladd@a+1
  9916  0C01                     l2365:	
  9917  0C01  085A               	movf	___fladd@b+2,w
  9918  0C02  00E0               	movwf	??___fladd
  9919  0C03  0860               	movf	??___fladd,w
  9920  0C04  00EB               	movwf	___fladd@grs
  9921  0C05                     l2367:	
  9922  0C05  085E               	movf	___fladd@a+2,w
  9923  0C06  00E0               	movwf	??___fladd
  9924  0C07  0860               	movf	??___fladd,w
  9925  0C08  00DA               	movwf	___fladd@b+2
  9926  0C09                     l2369:	
  9927  0C09  086B               	movf	___fladd@grs,w
  9928  0C0A  00E0               	movwf	??___fladd
  9929  0C0B  0860               	movf	??___fladd,w
  9930  0C0C  00DE               	movwf	___fladd@a+2
  9931  0C0D                     l2371:	
  9932  0C0D  085B               	movf	___fladd@b+3,w
  9933  0C0E  00E0               	movwf	??___fladd
  9934  0C0F  0860               	movf	??___fladd,w
  9935  0C10  00EB               	movwf	___fladd@grs
  9936  0C11                     l2373:	
  9937  0C11  085F               	movf	___fladd@a+3,w
  9938  0C12  00E0               	movwf	??___fladd
  9939  0C13  0860               	movf	??___fladd,w
  9940  0C14  00DB               	movwf	___fladd@b+3
  9941  0C15                     l2375:	
  9942  0C15  086B               	movf	___fladd@grs,w
  9943  0C16  00E0               	movwf	??___fladd
  9944  0C17  0860               	movf	??___fladd,w
  9945  0C18  00DF               	movwf	___fladd@a+3
  9946  0C19                     l2377:	
  9947  0C19  01EB               	clrf	___fladd@grs
  9948  0C1A                     l2379:	
  9949  0C1A  0869               	movf	___fladd@aexp,w
  9950  0C1B  00E0               	movwf	??___fladd
  9951  0C1C  01E1               	clrf	??___fladd+1
  9952  0C1D  0861               	movf	??___fladd+1,w
  9953  0C1E  00E3               	movwf	??___fladd+3
  9954  0C1F  086A               	movf	___fladd@bexp,w
  9955  0C20  0260               	subwf	??___fladd,w
  9956  0C21  00E2               	movwf	??___fladd+2
  9957  0C22  1C03               	skipc
  9958  0C23  03E3               	decf	??___fladd+3,f
  9959  0C24  0863               	movf	??___fladd+3,w
  9960  0C25  3A80               	xorlw	128
  9961  0C26  00E4               	movwf	??___fladd+4
  9962  0C27  3080               	movlw	128
  9963  0C28  0264               	subwf	??___fladd+4,w
  9964  0C29  1D03               	skipz
  9965  0C2A  2C2D               	goto	u3035
  9966  0C2B  301A               	movlw	26
  9967  0C2C  0262               	subwf	??___fladd+2,w
  9968  0C2D                     u3035:	
  9969  0C2D  1C03               	skipc
  9970  0C2E  2C30               	goto	u3031
  9971  0C2F  2C31               	goto	u3030
  9972  0C30                     u3031:	
  9973  0C30  2C69               	goto	l2395
  9974  0C31                     u3030:	
  9975  0C31                     l2381:	
  9976  0C31  0020               	movlb	0	; select bank0
  9977  0C32  085B               	movf	___fladd@b+3,w
  9978  0C33  045A               	iorwf	___fladd@b+2,w
  9979  0C34  0459               	iorwf	___fladd@b+1,w
  9980  0C35  0458               	iorwf	___fladd@b,w
  9981  0C36  1D03               	skipz
  9982  0C37  2C39               	goto	u3041
  9983  0C38  2C3B               	goto	u3040
  9984  0C39                     u3041:	
  9985  0C39  3001               	movlw	1
  9986  0C3A  2C3C               	goto	u3050
  9987  0C3B                     u3040:	
  9988  0C3B  3000               	movlw	0
  9989  0C3C                     u3050:	
  9990  0C3C  00E0               	movwf	??___fladd
  9991  0C3D  0860               	movf	??___fladd,w
  9992  0C3E  00EB               	movwf	___fladd@grs
  9993  0C3F  3000               	movlw	0
  9994  0C40  00DB               	movwf	___fladd@b+3
  9995  0C41  3000               	movlw	0
  9996  0C42  00DA               	movwf	___fladd@b+2
  9997  0C43  3000               	movlw	0
  9998  0C44  00D9               	movwf	___fladd@b+1
  9999  0C45  3000               	movlw	0
 10000  0C46  00D8               	movwf	___fladd@b
 10001  0C47  0869               	movf	___fladd@aexp,w
 10002  0C48  00E0               	movwf	??___fladd
 10003  0C49  0860               	movf	??___fladd,w
 10004  0C4A  00EA               	movwf	___fladd@bexp
 10005  0C4B  2C70               	goto	l611
 10006  0C4C                     l613:	
 10007  0C4C  1C6B               	btfss	___fladd@grs,0
 10008  0C4D  2C4F               	goto	u3061
 10009  0C4E  2C50               	goto	u3060
 10010  0C4F                     u3061:	
 10011  0C4F  2C56               	goto	l2385
 10012  0C50                     u3060:	
 10013  0C50                     l2383:	
 10014  0C50  366B               	lsrf	___fladd@grs,w
 10015  0C51  3801               	iorlw	1
 10016  0C52  00E0               	movwf	??___fladd
 10017  0C53  0860               	movf	??___fladd,w
 10018  0C54  00EB               	movwf	___fladd@grs
 10019  0C55  2C58               	goto	l2387
 10020  0C56                     l2385:	
 10021  0C56  1003               	clrc
 10022  0C57  0CEB               	rrf	___fladd@grs,f
 10023  0C58                     l2387:	
 10024  0C58  1C58               	btfss	___fladd@b,0
 10025  0C59  2C5B               	goto	u3071
 10026  0C5A  2C5C               	goto	u3070
 10027  0C5B                     u3071:	
 10028  0C5B  2C5D               	goto	l2391
 10029  0C5C                     u3070:	
 10030  0C5C                     l2389:	
 10031  0C5C  17EB               	bsf	___fladd@grs,7
 10032  0C5D                     l2391:	
 10033  0C5D  3001               	movlw	1
 10034  0C5E  00E0               	movwf	??___fladd
 10035  0C5F                     u3085:	
 10036  0C5F  37DB               	asrf	___fladd@b+3,f
 10037  0C60  0CDA               	rrf	___fladd@b+2,f
 10038  0C61  0CD9               	rrf	___fladd@b+1,f
 10039  0C62  0CD8               	rrf	___fladd@b,f
 10040  0C63  0BE0               	decfsz	??___fladd& (0+127),f
 10041  0C64  2C5F               	goto	u3085
 10042  0C65                     l2393:	
 10043  0C65  3001               	movlw	1
 10044  0C66  00E0               	movwf	??___fladd
 10045  0C67  0860               	movf	??___fladd,w
 10046  0C68  07EA               	addwf	___fladd@bexp,f
 10047  0C69                     l2395:	
 10048  0C69  0020               	movlb	0	; select bank0
 10049  0C6A  0869               	movf	___fladd@aexp,w
 10050  0C6B  026A               	subwf	___fladd@bexp,w
 10051  0C6C  1C03               	skipc
 10052  0C6D  2C6F               	goto	u3091
 10053  0C6E  2C70               	goto	u3090
 10054  0C6F                     u3091:	
 10055  0C6F  2C4C               	goto	l613
 10056  0C70                     u3090:	
 10057  0C70                     l611:	
 10058  0C70  1B68               	btfsc	___fladd@signs,6
 10059  0C71  2C73               	goto	u3101
 10060  0C72  2C74               	goto	u3100
 10061  0C73                     u3101:	
 10062  0C73  2CAC               	goto	l2421
 10063  0C74                     u3100:	
 10064  0C74                     l2397:	
 10065  0C74  086A               	movf	___fladd@bexp,w
 10066  0C75  1D03               	btfss	3,2
 10067  0C76  2C78               	goto	u3111
 10068  0C77  2C79               	goto	u3110
 10069  0C78                     u3111:	
 10070  0C78  2C82               	goto	l2403
 10071  0C79                     u3110:	
 10072  0C79                     l2399:	
 10073  0C79  3000               	movlw	0
 10074  0C7A  00DB               	movwf	?___fladd+3
 10075  0C7B  3000               	movlw	0
 10076  0C7C  00DA               	movwf	?___fladd+2
 10077  0C7D  3000               	movlw	0
 10078  0C7E  00D9               	movwf	?___fladd+1
 10079  0C7F  3000               	movlw	0
 10080  0C80  00D8               	movwf	?___fladd
 10081  0C81  2DA8               	goto	l620
 10082  0C82                     l2403:	
 10083  0C82  085C               	movf	___fladd@a,w
 10084  0C83  07D8               	addwf	___fladd@b,f
 10085  0C84  085D               	movf	___fladd@a+1,w
 10086  0C85  3DD9               	addwfc	___fladd@b+1,f
 10087  0C86  085E               	movf	___fladd@a+2,w
 10088  0C87  3DDA               	addwfc	___fladd@b+2,f
 10089  0C88  085F               	movf	___fladd@a+3,w
 10090  0C89  3DDB               	addwfc	___fladd@b+3,f
 10091  0C8A                     l2405:	
 10092  0C8A  1C5B               	btfss	___fladd@b+3,0
 10093  0C8B  2C8D               	goto	u3121
 10094  0C8C  2C8E               	goto	u3120
 10095  0C8D                     u3121:	
 10096  0C8D  2D38               	goto	l2455
 10097  0C8E                     u3120:	
 10098  0C8E                     l2407:	
 10099  0C8E  1C6B               	btfss	___fladd@grs,0
 10100  0C8F  2C91               	goto	u3131
 10101  0C90  2C92               	goto	u3130
 10102  0C91                     u3131:	
 10103  0C91  2C98               	goto	l2411
 10104  0C92                     u3130:	
 10105  0C92                     l2409:	
 10106  0C92  366B               	lsrf	___fladd@grs,w
 10107  0C93  3801               	iorlw	1
 10108  0C94  00E0               	movwf	??___fladd
 10109  0C95  0860               	movf	??___fladd,w
 10110  0C96  00EB               	movwf	___fladd@grs
 10111  0C97  2C9A               	goto	l2413
 10112  0C98                     l2411:	
 10113  0C98  1003               	clrc
 10114  0C99  0CEB               	rrf	___fladd@grs,f
 10115  0C9A                     l2413:	
 10116  0C9A  1C58               	btfss	___fladd@b,0
 10117  0C9B  2C9D               	goto	u3141
 10118  0C9C  2C9E               	goto	u3140
 10119  0C9D                     u3141:	
 10120  0C9D  2C9F               	goto	l2417
 10121  0C9E                     u3140:	
 10122  0C9E                     l2415:	
 10123  0C9E  17EB               	bsf	___fladd@grs,7
 10124  0C9F                     l2417:	
 10125  0C9F  3001               	movlw	1
 10126  0CA0  00E0               	movwf	??___fladd
 10127  0CA1                     u3155:	
 10128  0CA1  37DB               	asrf	___fladd@b+3,f
 10129  0CA2  0CDA               	rrf	___fladd@b+2,f
 10130  0CA3  0CD9               	rrf	___fladd@b+1,f
 10131  0CA4  0CD8               	rrf	___fladd@b,f
 10132  0CA5  0BE0               	decfsz	??___fladd& (0+127),f
 10133  0CA6  2CA1               	goto	u3155
 10134  0CA7                     l2419:	
 10135  0CA7  3001               	movlw	1
 10136  0CA8  00E0               	movwf	??___fladd
 10137  0CA9  0860               	movf	??___fladd,w
 10138  0CAA  07EA               	addwf	___fladd@bexp,f
 10139  0CAB  2D38               	goto	l2455
 10140  0CAC                     l2421:	
 10141  0CAC  085B               	movf	___fladd@b+3,w
 10142  0CAD  3A80               	xorlw	128
 10143  0CAE  00E0               	movwf	??___fladd
 10144  0CAF  085F               	movf	___fladd@a+3,w
 10145  0CB0  3A80               	xorlw	128
 10146  0CB1  0260               	subwf	??___fladd,w
 10147  0CB2  1D03               	skipz
 10148  0CB3  2CBE               	goto	u3163
 10149  0CB4  085E               	movf	___fladd@a+2,w
 10150  0CB5  025A               	subwf	___fladd@b+2,w
 10151  0CB6  1D03               	skipz
 10152  0CB7  2CBE               	goto	u3163
 10153  0CB8  085D               	movf	___fladd@a+1,w
 10154  0CB9  0259               	subwf	___fladd@b+1,w
 10155  0CBA  1D03               	skipz
 10156  0CBB  2CBE               	goto	u3163
 10157  0CBC  085C               	movf	___fladd@a,w
 10158  0CBD  0258               	subwf	___fladd@b,w
 10159  0CBE                     u3163:	
 10160  0CBE  1803               	skipnc
 10161  0CBF  2CC1               	goto	u3161
 10162  0CC0  2CC2               	goto	u3160
 10163  0CC1                     u3161:	
 10164  0CC1  2CFA               	goto	l2431
 10165  0CC2                     u3160:	
 10166  0CC2                     l2423:	
 10167  0CC2  30FF               	movlw	255
 10168  0CC3  00E0               	movwf	??___fladd
 10169  0CC4  30FF               	movlw	255
 10170  0CC5  00E1               	movwf	??___fladd+1
 10171  0CC6  30FF               	movlw	255
 10172  0CC7  00E2               	movwf	??___fladd+2
 10173  0CC8  30FF               	movlw	255
 10174  0CC9  00E3               	movwf	??___fladd+3
 10175  0CCA  0858               	movf	___fladd@b,w
 10176  0CCB  025C               	subwf	___fladd@a,w
 10177  0CCC  00E4               	movwf	??___fladd+4
 10178  0CCD  0859               	movf	___fladd@b+1,w
 10179  0CCE  3B5D               	subwfb	___fladd@a+1,w
 10180  0CCF  00E5               	movwf	??___fladd+5
 10181  0CD0  085A               	movf	___fladd@b+2,w
 10182  0CD1  3B5E               	subwfb	___fladd@a+2,w
 10183  0CD2  00E6               	movwf	??___fladd+6
 10184  0CD3  085B               	movf	___fladd@b+3,w
 10185  0CD4  3B5F               	subwfb	___fladd@a+3,w
 10186  0CD5  00E7               	movwf	??___fladd+7
 10187  0CD6  0864               	movf	??___fladd+4,w
 10188  0CD7  07E0               	addwf	??___fladd,f
 10189  0CD8  0865               	movf	??___fladd+5,w
 10190  0CD9  3DE1               	addwfc	??___fladd+1,f
 10191  0CDA  0866               	movf	??___fladd+6,w
 10192  0CDB  3DE2               	addwfc	??___fladd+2,f
 10193  0CDC  0867               	movf	??___fladd+7,w
 10194  0CDD  3DE3               	addwfc	??___fladd+3,f
 10195  0CDE  0863               	movf	??___fladd+3,w
 10196  0CDF  00DB               	movwf	___fladd@b+3
 10197  0CE0  0862               	movf	??___fladd+2,w
 10198  0CE1  00DA               	movwf	___fladd@b+2
 10199  0CE2  0861               	movf	??___fladd+1,w
 10200  0CE3  00D9               	movwf	___fladd@b+1
 10201  0CE4  0860               	movf	??___fladd,w
 10202  0CE5  00D8               	movwf	___fladd@b
 10203  0CE6                     l2425:	
 10204  0CE6  3080               	movlw	128
 10205  0CE7  00E0               	movwf	??___fladd
 10206  0CE8  0860               	movf	??___fladd,w
 10207  0CE9  06E8               	xorwf	___fladd@signs,f
 10208  0CEA  09EB               	comf	___fladd@grs,f
 10209  0CEB  0AEB               	incf	___fladd@grs,f
 10210  0CEC                     l2427:	
 10211  0CEC  086B               	movf	___fladd@grs,w
 10212  0CED  1D03               	btfss	3,2
 10213  0CEE  2CF0               	goto	u3171
 10214  0CEF  2CF1               	goto	u3170
 10215  0CF0                     u3171:	
 10216  0CF0  2D02               	goto	l628
 10217  0CF1                     u3170:	
 10218  0CF1                     l2429:	
 10219  0CF1  3001               	movlw	1
 10220  0CF2  07D8               	addwf	___fladd@b,f
 10221  0CF3  3000               	movlw	0
 10222  0CF4  3DD9               	addwfc	___fladd@b+1,f
 10223  0CF5  3000               	movlw	0
 10224  0CF6  3DDA               	addwfc	___fladd@b+2,f
 10225  0CF7  3000               	movlw	0
 10226  0CF8  3DDB               	addwfc	___fladd@b+3,f
 10227  0CF9  2D02               	goto	l628
 10228  0CFA                     l2431:	
 10229  0CFA  085C               	movf	___fladd@a,w
 10230  0CFB  02D8               	subwf	___fladd@b,f
 10231  0CFC  085D               	movf	___fladd@a+1,w
 10232  0CFD  3BD9               	subwfb	___fladd@b+1,f
 10233  0CFE  085E               	movf	___fladd@a+2,w
 10234  0CFF  3BDA               	subwfb	___fladd@b+2,f
 10235  0D00  085F               	movf	___fladd@a+3,w
 10236  0D01  3BDB               	subwfb	___fladd@b+3,f
 10237  0D02                     l628:	
 10238  0D02  085B               	movf	___fladd@b+3,w
 10239  0D03  045A               	iorwf	___fladd@b+2,w
 10240  0D04  0459               	iorwf	___fladd@b+1,w
 10241  0D05  0458               	iorwf	___fladd@b,w
 10242  0D06  1D03               	skipz
 10243  0D07  2D09               	goto	u3181
 10244  0D08  2D0A               	goto	u3180
 10245  0D09                     u3181:	
 10246  0D09  2D34               	goto	l2453
 10247  0D0A                     u3180:	
 10248  0D0A                     l2433:	
 10249  0D0A  086B               	movf	___fladd@grs,w
 10250  0D0B  1D03               	btfss	3,2
 10251  0D0C  2D0E               	goto	u3191
 10252  0D0D  2D0F               	goto	u3190
 10253  0D0E                     u3191:	
 10254  0D0E  2D34               	goto	l2453
 10255  0D0F                     u3190:	
 10256  0D0F                     l2435:	
 10257  0D0F  3000               	movlw	0
 10258  0D10  00DB               	movwf	?___fladd+3
 10259  0D11  3000               	movlw	0
 10260  0D12  00DA               	movwf	?___fladd+2
 10261  0D13  3000               	movlw	0
 10262  0D14  00D9               	movwf	?___fladd+1
 10263  0D15  3000               	movlw	0
 10264  0D16  00D8               	movwf	?___fladd
 10265  0D17  2DA8               	goto	l620
 10266  0D18                     l2439:	
 10267  0D18  3001               	movlw	1
 10268  0D19                     u3205:	
 10269  0D19  35D8               	lslf	___fladd@b,f
 10270  0D1A  0DD9               	rlf	___fladd@b+1,f
 10271  0D1B  0DDA               	rlf	___fladd@b+2,f
 10272  0D1C  0DDB               	rlf	___fladd@b+3,f
 10273  0D1D  0B89               	decfsz	9,f
 10274  0D1E  2D19               	goto	u3205
 10275  0D1F                     l2441:	
 10276  0D1F  1FEB               	btfss	___fladd@grs,7
 10277  0D20  2D22               	goto	u3211
 10278  0D21  2D23               	goto	u3210
 10279  0D22                     u3211:	
 10280  0D22  2D24               	goto	l632
 10281  0D23                     u3210:	
 10282  0D23                     l2443:	
 10283  0D23  1458               	bsf	___fladd@b,0
 10284  0D24                     l632:	
 10285  0D24  1C6B               	btfss	___fladd@grs,0
 10286  0D25  2D27               	goto	u3221
 10287  0D26  2D28               	goto	u3220
 10288  0D27                     u3221:	
 10289  0D27  2D2B               	goto	l2447
 10290  0D28                     u3220:	
 10291  0D28                     l2445:	
 10292  0D28  1403               	setc
 10293  0D29  0DEB               	rlf	___fladd@grs,f
 10294  0D2A  2D2D               	goto	l2449
 10295  0D2B                     l2447:	
 10296  0D2B  1003               	clrc
 10297  0D2C  0DEB               	rlf	___fladd@grs,f
 10298  0D2D                     l2449:	
 10299  0D2D  086A               	movf	___fladd@bexp,w
 10300  0D2E  1903               	btfsc	3,2
 10301  0D2F  2D31               	goto	u3231
 10302  0D30  2D32               	goto	u3230
 10303  0D31                     u3231:	
 10304  0D31  2D34               	goto	l2453
 10305  0D32                     u3230:	
 10306  0D32                     l2451:	
 10307  0D32  3001               	movlw	1
 10308  0D33  02EA               	subwf	___fladd@bexp,f
 10309  0D34                     l2453:	
 10310  0D34  1FDA               	btfss	___fladd@b+2,7
 10311  0D35  2D37               	goto	u3241
 10312  0D36  2D38               	goto	u3240
 10313  0D37                     u3241:	
 10314  0D37  2D18               	goto	l2439
 10315  0D38                     u3240:	
 10316  0D38                     l2455:	
 10317  0D38  01E9               	clrf	___fladd@aexp
 10318  0D39                     l2457:	
 10319  0D39  1FEB               	btfss	___fladd@grs,7
 10320  0D3A  2D3C               	goto	u3251
 10321  0D3B  2D3D               	goto	u3250
 10322  0D3C                     u3251:	
 10323  0D3C  2D4B               	goto	l2465
 10324  0D3D                     u3250:	
 10325  0D3D                     l2459:	
 10326  0D3D  086B               	movf	___fladd@grs,w
 10327  0D3E  397F               	andlw	127
 10328  0D3F  1903               	btfsc	3,2
 10329  0D40  2D42               	goto	u3261
 10330  0D41  2D43               	goto	u3260
 10331  0D42                     u3261:	
 10332  0D42  2D46               	goto	l638
 10333  0D43                     u3260:	
 10334  0D43                     l2461:	
 10335  0D43  01E9               	clrf	___fladd@aexp
 10336  0D44  0AE9               	incf	___fladd@aexp,f
 10337  0D45  2D4B               	goto	l2465
 10338  0D46                     l638:	
 10339  0D46  1C58               	btfss	___fladd@b,0
 10340  0D47  2D49               	goto	u3271
 10341  0D48  2D4A               	goto	u3270
 10342  0D49                     u3271:	
 10343  0D49  2D4B               	goto	l2465
 10344  0D4A                     u3270:	
 10345  0D4A  2D43               	goto	l2461
 10346  0D4B                     l2465:	
 10347  0D4B  0869               	movf	___fladd@aexp,w
 10348  0D4C  1903               	btfsc	3,2
 10349  0D4D  2D4F               	goto	u3281
 10350  0D4E  2D50               	goto	u3280
 10351  0D4F                     u3281:	
 10352  0D4F  2D7D               	goto	l641
 10353  0D50                     u3280:	
 10354  0D50                     l2467:	
 10355  0D50  3001               	movlw	1
 10356  0D51  07D8               	addwf	___fladd@b,f
 10357  0D52  3000               	movlw	0
 10358  0D53  3DD9               	addwfc	___fladd@b+1,f
 10359  0D54  3000               	movlw	0
 10360  0D55  3DDA               	addwfc	___fladd@b+2,f
 10361  0D56  3000               	movlw	0
 10362  0D57  3DDB               	addwfc	___fladd@b+3,f
 10363  0D58                     l2469:	
 10364  0D58  1C5B               	btfss	___fladd@b+3,0
 10365  0D59  2D5B               	goto	u3291
 10366  0D5A  2D5C               	goto	u3290
 10367  0D5B                     u3291:	
 10368  0D5B  2D7D               	goto	l641
 10369  0D5C                     u3290:	
 10370  0D5C                     l2471:	
 10371  0D5C  0858               	movf	___fladd@b,w
 10372  0D5D  00E0               	movwf	??___fladd
 10373  0D5E  0859               	movf	___fladd@b+1,w
 10374  0D5F  00E1               	movwf	??___fladd+1
 10375  0D60  085A               	movf	___fladd@b+2,w
 10376  0D61  00E2               	movwf	??___fladd+2
 10377  0D62  085B               	movf	___fladd@b+3,w
 10378  0D63  00E3               	movwf	??___fladd+3
 10379  0D64  3001               	movlw	1
 10380  0D65  00E4               	movwf	??___fladd+4
 10381  0D66                     u3305:	
 10382  0D66  37E3               	asrf	??___fladd+3,f
 10383  0D67  0CE2               	rrf	??___fladd+2,f
 10384  0D68  0CE1               	rrf	??___fladd+1,f
 10385  0D69  0CE0               	rrf	??___fladd,f
 10386  0D6A                     u3300:	
 10387  0D6A  0BE4               	decfsz	??___fladd+4,f
 10388  0D6B  2D66               	goto	u3305
 10389  0D6C  0863               	movf	??___fladd+3,w
 10390  0D6D  00DB               	movwf	___fladd@b+3
 10391  0D6E  0862               	movf	??___fladd+2,w
 10392  0D6F  00DA               	movwf	___fladd@b+2
 10393  0D70  0861               	movf	??___fladd+1,w
 10394  0D71  00D9               	movwf	___fladd@b+1
 10395  0D72  0860               	movf	??___fladd,w
 10396  0D73  00D8               	movwf	___fladd@b
 10397  0D74  0A6A               	incf	___fladd@bexp,w
 10398  0D75  1903               	btfsc	3,2
 10399  0D76  2D78               	goto	u3311
 10400  0D77  2D79               	goto	u3310
 10401  0D78                     u3311:	
 10402  0D78  2D7D               	goto	l641
 10403  0D79                     u3310:	
 10404  0D79                     l2473:	
 10405  0D79  3001               	movlw	1
 10406  0D7A  00E0               	movwf	??___fladd
 10407  0D7B  0860               	movf	??___fladd,w
 10408  0D7C  07EA               	addwf	___fladd@bexp,f
 10409  0D7D                     l641:	
 10410  0D7D  0A6A               	incf	___fladd@bexp,w
 10411  0D7E  1903               	btfsc	3,2
 10412  0D7F  2D81               	goto	u3321
 10413  0D80  2D82               	goto	u3320
 10414  0D81                     u3321:	
 10415  0D81  2D87               	goto	l2477
 10416  0D82                     u3320:	
 10417  0D82                     l2475:	
 10418  0D82  086A               	movf	___fladd@bexp,w
 10419  0D83  1D03               	btfss	3,2
 10420  0D84  2D86               	goto	u3331
 10421  0D85  2D87               	goto	u3330
 10422  0D86                     u3331:	
 10423  0D86  2D95               	goto	l2483
 10424  0D87                     u3330:	
 10425  0D87                     l2477:	
 10426  0D87  3000               	movlw	0
 10427  0D88  00DB               	movwf	___fladd@b+3
 10428  0D89  3000               	movlw	0
 10429  0D8A  00DA               	movwf	___fladd@b+2
 10430  0D8B  3000               	movlw	0
 10431  0D8C  00D9               	movwf	___fladd@b+1
 10432  0D8D  3000               	movlw	0
 10433  0D8E  00D8               	movwf	___fladd@b
 10434  0D8F                     l2479:	
 10435  0D8F  086A               	movf	___fladd@bexp,w
 10436  0D90  1D03               	btfss	3,2
 10437  0D91  2D93               	goto	u3341
 10438  0D92  2D94               	goto	u3340
 10439  0D93                     u3341:	
 10440  0D93  2D95               	goto	l2483
 10441  0D94                     u3340:	
 10442  0D94                     l2481:	
 10443  0D94  01E8               	clrf	___fladd@signs
 10444  0D95                     l2483:	
 10445  0D95  1C6A               	btfss	___fladd@bexp,0
 10446  0D96  2D98               	goto	u3351
 10447  0D97  2D99               	goto	u3350
 10448  0D98                     u3351:	
 10449  0D98  2D9B               	goto	l2487
 10450  0D99                     u3350:	
 10451  0D99                     l2485:	
 10452  0D99  17DA               	bsf	___fladd@b+2,7
 10453  0D9A  2D9F               	goto	l649
 10454  0D9B                     l2487:	
 10455  0D9B  307F               	movlw	127
 10456  0D9C  00E0               	movwf	??___fladd
 10457  0D9D  0860               	movf	??___fladd,w
 10458  0D9E  05DA               	andwf	___fladd@b+2,f
 10459  0D9F                     l649:	
 10460  0D9F  366A               	lsrf	___fladd@bexp,w
 10461  0DA0  00E0               	movwf	??___fladd
 10462  0DA1  0860               	movf	??___fladd,w
 10463  0DA2  00DB               	movwf	___fladd@b+3
 10464  0DA3                     l2489:	
 10465  0DA3  1FE8               	btfss	___fladd@signs,7
 10466  0DA4  2DA6               	goto	u3361
 10467  0DA5  2DA7               	goto	u3360
 10468  0DA6                     u3361:	
 10469  0DA6  2DA8               	goto	l650
 10470  0DA7                     u3360:	
 10471  0DA7                     l2491:	
 10472  0DA7  17DB               	bsf	___fladd@b+3,7
 10473  0DA8                     l650:	
 10474  0DA8                     l620:	
 10475  0DA8  0008               	return
 10476  0DA9                     __end_of___fladd:	
 10477                           
 10478                           	psect	text20
 10479  1183                     __ptext20:	
 10480 ;; *************** function ___flneg *****************
 10481 ;; Defined at:
 10482 ;;		line 15 in file "C:\Program Files (x86)\Microchip\xc8\v2.10\pic\sources\c90\common\flneg.c"
 10483 ;; Parameters:    Size  Location     Type
 10484 ;;  f1              4    0[COMMON] unsigned char 
 10485 ;; Auto vars:     Size  Location     Type
 10486 ;;		None
 10487 ;; Return value:  Size  Location     Type
 10488 ;;                  4    0[COMMON] unsigned char 
 10489 ;; Registers used:
 10490 ;;		wreg
 10491 ;; Tracked objects:
 10492 ;;		On entry : 0/0
 10493 ;;		On exit  : 0/0
 10494 ;;		Unchanged: 0/0
 10495 ;; Data sizes:     COMMON   BANK0   BANK1   BANK2   BANK3   BANK4   BANK5   BANK6   BANK7   BANK8   BANK9  BANK10  BANK1
      +1  BANK12
 10496 ;;      Params:         4       0       0       0       0       0       0       0       0       0       0       0       
      +0       0
 10497 ;;      Locals:         0       0       0       0       0       0       0       0       0       0       0       0       
      +0       0
 10498 ;;      Temps:          0       0       0       0       0       0       0       0       0       0       0       0       
      +0       0
 10499 ;;      Totals:         4       0       0       0       0       0       0       0       0       0       0       0       
      +0       0
 10500 ;;Total ram usage:        4 bytes
 10501 ;; Hardware stack levels used:    1
 10502 ;; Hardware stack levels required when called:    1
 10503 ;; This function calls:
 10504 ;;		Nothing
 10505 ;; This function is called by:
 10506 ;;		_sprintf
 10507 ;; This function uses a non-reentrant model
 10508 ;;
 10509                           
 10510                           
 10511                           ;psect for function ___flneg
 10512  1183                     ___flneg:	
 10513  1183                     l2877:	
 10514                           ;incstack = 0
 10515                           ; Regs used in ___flneg: [wreg]
 10516                           
 10517  1183  0873               	movf	___flneg@f1+3,w
 10518  1184  0472               	iorwf	___flneg@f1+2,w
 10519  1185  0471               	iorwf	___flneg@f1+1,w
 10520  1186  0470               	iorwf	___flneg@f1,w
 10521  1187  1903               	skipnz
 10522  1188  298A               	goto	u4171
 10523  1189  298B               	goto	u4170
 10524  118A                     u4171:	
 10525  118A  298D               	goto	l2881
 10526  118B                     u4170:	
 10527  118B                     l2879:	
 10528  118B  3080               	movlw	128
 10529  118C  06F3               	xorwf	___flneg@f1+3,f
 10530  118D                     l2881:	
 10531  118D                     l479:	
 10532  118D  0008               	return
 10533  118E                     __end_of___flneg:	
 10534                           
 10535                           	psect	text21
 10536  14B5                     __ptext21:	
 10537 ;; *************** function ___flge *****************
 10538 ;; Defined at:
 10539 ;;		line 4 in file "C:\Program Files (x86)\Microchip\xc8\v2.10\pic\sources\c90\common\flge.c"
 10540 ;; Parameters:    Size  Location     Type
 10541 ;;  ff1             4    0[COMMON] unsigned char 
 10542 ;;  ff2             4    4[COMMON] unsigned char 
 10543 ;; Auto vars:     Size  Location     Type
 10544 ;;		None
 10545 ;; Return value:  Size  Location     Type
 10546 ;;		None               void
 10547 ;; Registers used:
 10548 ;;		wreg, status,2, status,0
 10549 ;; Tracked objects:
 10550 ;;		On entry : 0/0
 10551 ;;		On exit  : 0/0
 10552 ;;		Unchanged: 0/0
 10553 ;; Data sizes:     COMMON   BANK0   BANK1   BANK2   BANK3   BANK4   BANK5   BANK6   BANK7   BANK8   BANK9  BANK10  BANK1
      +1  BANK12
 10554 ;;      Params:         8       0       0       0       0       0       0       0       0       0       0       0       
      +0       0
 10555 ;;      Locals:         0       0       0       0       0       0       0       0       0       0       0       0       
      +0       0
 10556 ;;      Temps:          4       0       0       0       0       0       0       0       0       0       0       0       
      +0       0
 10557 ;;      Totals:        12       0       0       0       0       0       0       0       0       0       0       0       
      +0       0
 10558 ;;Total ram usage:       12 bytes
 10559 ;; Hardware stack levels used:    1
 10560 ;; Hardware stack levels required when called:    1
 10561 ;; This function calls:
 10562 ;;		Nothing
 10563 ;; This function is called by:
 10564 ;;		_sprintf
 10565 ;; This function uses a non-reentrant model
 10566 ;;
 10567                           
 10568                           
 10569                           ;psect for function ___flge
 10570  14B5                     ___flge:	
 10571  14B5                     l2857:	
 10572                           ;incstack = 0
 10573                           ; Regs used in ___flge: [wreg+status,2+status,0]
 10574                           
 10575  14B5  3000               	movlw	0
 10576  14B6  0570               	andwf	___flge@ff1,w
 10577  14B7  00F8               	movwf	??___flge
 10578  14B8  3000               	movlw	0
 10579  14B9  0571               	andwf	___flge@ff1+1,w
 10580  14BA  00F9               	movwf	??___flge+1
 10581  14BB  3080               	movlw	128
 10582  14BC  0572               	andwf	___flge@ff1+2,w
 10583  14BD  00FA               	movwf	??___flge+2
 10584  14BE  307F               	movlw	127
 10585  14BF  0573               	andwf	___flge@ff1+3,w
 10586  14C0  00FB               	movwf	??___flge+3
 10587  14C1  087B               	movf	??___flge+3,w
 10588  14C2  047A               	iorwf	??___flge+2,w
 10589  14C3  0479               	iorwf	??___flge+1,w
 10590  14C4  0478               	iorwf	??___flge,w
 10591  14C5  1D03               	skipz
 10592  14C6  2CC8               	goto	u4121
 10593  14C7  2CC9               	goto	u4120
 10594  14C8                     u4121:	
 10595  14C8  2CD1               	goto	l471
 10596  14C9                     u4120:	
 10597  14C9                     l2859:	
 10598  14C9  3000               	movlw	0
 10599  14CA  00F3               	movwf	___flge@ff1+3
 10600  14CB  3000               	movlw	0
 10601  14CC  00F2               	movwf	___flge@ff1+2
 10602  14CD  3000               	movlw	0
 10603  14CE  00F1               	movwf	___flge@ff1+1
 10604  14CF  3000               	movlw	0
 10605  14D0  00F0               	movwf	___flge@ff1
 10606  14D1                     l471:	
 10607  14D1  3000               	movlw	0
 10608  14D2  0574               	andwf	___flge@ff2,w
 10609  14D3  00F8               	movwf	??___flge
 10610  14D4  3000               	movlw	0
 10611  14D5  0575               	andwf	___flge@ff2+1,w
 10612  14D6  00F9               	movwf	??___flge+1
 10613  14D7  3080               	movlw	128
 10614  14D8  0576               	andwf	___flge@ff2+2,w
 10615  14D9  00FA               	movwf	??___flge+2
 10616  14DA  307F               	movlw	127
 10617  14DB  0577               	andwf	___flge@ff2+3,w
 10618  14DC  00FB               	movwf	??___flge+3
 10619  14DD  087B               	movf	??___flge+3,w
 10620  14DE  047A               	iorwf	??___flge+2,w
 10621  14DF  0479               	iorwf	??___flge+1,w
 10622  14E0  0478               	iorwf	??___flge,w
 10623  14E1  1D03               	skipz
 10624  14E2  2CE4               	goto	u4131
 10625  14E3  2CE5               	goto	u4130
 10626  14E4                     u4131:	
 10627  14E4  2CED               	goto	l2863
 10628  14E5                     u4130:	
 10629  14E5                     l2861:	
 10630  14E5  3000               	movlw	0
 10631  14E6  00F7               	movwf	___flge@ff2+3
 10632  14E7  3000               	movlw	0
 10633  14E8  00F6               	movwf	___flge@ff2+2
 10634  14E9  3000               	movlw	0
 10635  14EA  00F5               	movwf	___flge@ff2+1
 10636  14EB  3000               	movlw	0
 10637  14EC  00F4               	movwf	___flge@ff2
 10638  14ED                     l2863:	
 10639  14ED  1FF3               	btfss	___flge@ff1+3,7
 10640  14EE  2CF0               	goto	u4141
 10641  14EF  2CF1               	goto	u4140
 10642  14F0                     u4141:	
 10643  14F0  2D09               	goto	l2867
 10644  14F1                     u4140:	
 10645  14F1                     l2865:	
 10646  14F1  3000               	movlw	0
 10647  14F2  00F8               	movwf	??___flge
 10648  14F3  3000               	movlw	0
 10649  14F4  00F9               	movwf	??___flge+1
 10650  14F5  3000               	movlw	0
 10651  14F6  00FA               	movwf	??___flge+2
 10652  14F7  3080               	movlw	128
 10653  14F8  00FB               	movwf	??___flge+3
 10654  14F9  0870               	movf	___flge@ff1,w
 10655  14FA  02F8               	subwf	??___flge,f
 10656  14FB  0871               	movf	___flge@ff1+1,w
 10657  14FC  3BF9               	subwfb	??___flge+1,f
 10658  14FD  0872               	movf	___flge@ff1+2,w
 10659  14FE  3BFA               	subwfb	??___flge+2,f
 10660  14FF  0873               	movf	___flge@ff1+3,w
 10661  1500  3BFB               	subwfb	??___flge+3,f
 10662  1501  087B               	movf	??___flge+3,w
 10663  1502  00F3               	movwf	___flge@ff1+3
 10664  1503  087A               	movf	??___flge+2,w
 10665  1504  00F2               	movwf	___flge@ff1+2
 10666  1505  0879               	movf	??___flge+1,w
 10667  1506  00F1               	movwf	___flge@ff1+1
 10668  1507  0878               	movf	??___flge,w
 10669  1508  00F0               	movwf	___flge@ff1
 10670  1509                     l2867:	
 10671  1509  1FF7               	btfss	___flge@ff2+3,7
 10672  150A  2D0C               	goto	u4151
 10673  150B  2D0D               	goto	u4150
 10674  150C                     u4151:	
 10675  150C  2D25               	goto	l474
 10676  150D                     u4150:	
 10677  150D                     l2869:	
 10678  150D  3000               	movlw	0
 10679  150E  00F8               	movwf	??___flge
 10680  150F  3000               	movlw	0
 10681  1510  00F9               	movwf	??___flge+1
 10682  1511  3000               	movlw	0
 10683  1512  00FA               	movwf	??___flge+2
 10684  1513  3080               	movlw	128
 10685  1514  00FB               	movwf	??___flge+3
 10686  1515  0874               	movf	___flge@ff2,w
 10687  1516  02F8               	subwf	??___flge,f
 10688  1517  0875               	movf	___flge@ff2+1,w
 10689  1518  3BF9               	subwfb	??___flge+1,f
 10690  1519  0876               	movf	___flge@ff2+2,w
 10691  151A  3BFA               	subwfb	??___flge+2,f
 10692  151B  0877               	movf	___flge@ff2+3,w
 10693  151C  3BFB               	subwfb	??___flge+3,f
 10694  151D  087B               	movf	??___flge+3,w
 10695  151E  00F7               	movwf	___flge@ff2+3
 10696  151F  087A               	movf	??___flge+2,w
 10697  1520  00F6               	movwf	___flge@ff2+2
 10698  1521  0879               	movf	??___flge+1,w
 10699  1522  00F5               	movwf	___flge@ff2+1
 10700  1523  0878               	movf	??___flge,w
 10701  1524  00F4               	movwf	___flge@ff2
 10702  1525                     l474:	
 10703  1525  3080               	movlw	128
 10704  1526  06F3               	xorwf	___flge@ff1+3,f
 10705  1527  3080               	movlw	128
 10706  1528  06F7               	xorwf	___flge@ff2+3,f
 10707  1529  0877               	movf	___flge@ff2+3,w
 10708  152A  0273               	subwf	___flge@ff1+3,w
 10709  152B  1D03               	skipz
 10710  152C  2D37               	goto	u4165
 10711  152D  0876               	movf	___flge@ff2+2,w
 10712  152E  0272               	subwf	___flge@ff1+2,w
 10713  152F  1D03               	skipz
 10714  1530  2D37               	goto	u4165
 10715  1531  0875               	movf	___flge@ff2+1,w
 10716  1532  0271               	subwf	___flge@ff1+1,w
 10717  1533  1D03               	skipz
 10718  1534  2D37               	goto	u4165
 10719  1535  0874               	movf	___flge@ff2,w
 10720  1536  0270               	subwf	___flge@ff1,w
 10721  1537                     u4165:	
 10722  1537  1803               	skipnc
 10723  1538  2D3A               	goto	u4161
 10724  1539  2D3B               	goto	u4160
 10725  153A                     u4161:	
 10726  153A  2D3D               	goto	l2873
 10727  153B                     u4160:	
 10728  153B                     l2871:	
 10729  153B  1003               	clrc
 10730  153C  2D3E               	goto	l475
 10731  153D                     l2873:	
 10732  153D  1403               	setc
 10733  153E                     l475:	
 10734  153E  0008               	return
 10735  153F                     __end_of___flge:	
 10736                           
 10737                           	psect	text22
 10738  12E5                     __ptext22:	
 10739 ;; *************** function ___fleq *****************
 10740 ;; Defined at:
 10741 ;;		line 4 in file "C:\Program Files (x86)\Microchip\xc8\v2.10\pic\sources\c90\common\fleq.c"
 10742 ;; Parameters:    Size  Location     Type
 10743 ;;  ff1             4    0[COMMON] unsigned char 
 10744 ;;  ff2             4    4[COMMON] unsigned char 
 10745 ;; Auto vars:     Size  Location     Type
 10746 ;;		None
 10747 ;; Return value:  Size  Location     Type
 10748 ;;		None               void
 10749 ;; Registers used:
 10750 ;;		wreg, status,2, status,0
 10751 ;; Tracked objects:
 10752 ;;		On entry : 0/0
 10753 ;;		On exit  : 0/0
 10754 ;;		Unchanged: 0/0
 10755 ;; Data sizes:     COMMON   BANK0   BANK1   BANK2   BANK3   BANK4   BANK5   BANK6   BANK7   BANK8   BANK9  BANK10  BANK1
      +1  BANK12
 10756 ;;      Params:         8       0       0       0       0       0       0       0       0       0       0       0       
      +0       0
 10757 ;;      Locals:         0       0       0       0       0       0       0       0       0       0       0       0       
      +0       0
 10758 ;;      Temps:          4       0       0       0       0       0       0       0       0       0       0       0       
      +0       0
 10759 ;;      Totals:        12       0       0       0       0       0       0       0       0       0       0       0       
      +0       0
 10760 ;;Total ram usage:       12 bytes
 10761 ;; Hardware stack levels used:    1
 10762 ;; Hardware stack levels required when called:    1
 10763 ;; This function calls:
 10764 ;;		Nothing
 10765 ;; This function is called by:
 10766 ;;		_sprintf
 10767 ;; This function uses a non-reentrant model
 10768 ;;
 10769                           
 10770                           
 10771                           ;psect for function ___fleq
 10772  12E5                     ___fleq:	
 10773  12E5                     l2845:	
 10774                           ;incstack = 0
 10775                           ; Regs used in ___fleq: [wreg+status,2+status,0]
 10776                           
 10777  12E5  3000               	movlw	0
 10778  12E6  0570               	andwf	___fleq@ff1,w
 10779  12E7  00F8               	movwf	??___fleq
 10780  12E8  3000               	movlw	0
 10781  12E9  0571               	andwf	___fleq@ff1+1,w
 10782  12EA  00F9               	movwf	??___fleq+1
 10783  12EB  3080               	movlw	128
 10784  12EC  0572               	andwf	___fleq@ff1+2,w
 10785  12ED  00FA               	movwf	??___fleq+2
 10786  12EE  307F               	movlw	127
 10787  12EF  0573               	andwf	___fleq@ff1+3,w
 10788  12F0  00FB               	movwf	??___fleq+3
 10789  12F1  087B               	movf	??___fleq+3,w
 10790  12F2  047A               	iorwf	??___fleq+2,w
 10791  12F3  0479               	iorwf	??___fleq+1,w
 10792  12F4  0478               	iorwf	??___fleq,w
 10793  12F5  1D03               	skipz
 10794  12F6  2AF8               	goto	u4091
 10795  12F7  2AF9               	goto	u4090
 10796  12F8                     u4091:	
 10797  12F8  2B01               	goto	l466
 10798  12F9                     u4090:	
 10799  12F9                     l2847:	
 10800  12F9  3000               	movlw	0
 10801  12FA  00F3               	movwf	___fleq@ff1+3
 10802  12FB  3000               	movlw	0
 10803  12FC  00F2               	movwf	___fleq@ff1+2
 10804  12FD  3000               	movlw	0
 10805  12FE  00F1               	movwf	___fleq@ff1+1
 10806  12FF  3000               	movlw	0
 10807  1300  00F0               	movwf	___fleq@ff1
 10808  1301                     l466:	
 10809  1301  3000               	movlw	0
 10810  1302  0574               	andwf	___fleq@ff2,w
 10811  1303  00F8               	movwf	??___fleq
 10812  1304  3000               	movlw	0
 10813  1305  0575               	andwf	___fleq@ff2+1,w
 10814  1306  00F9               	movwf	??___fleq+1
 10815  1307  3080               	movlw	128
 10816  1308  0576               	andwf	___fleq@ff2+2,w
 10817  1309  00FA               	movwf	??___fleq+2
 10818  130A  307F               	movlw	127
 10819  130B  0577               	andwf	___fleq@ff2+3,w
 10820  130C  00FB               	movwf	??___fleq+3
 10821  130D  087B               	movf	??___fleq+3,w
 10822  130E  047A               	iorwf	??___fleq+2,w
 10823  130F  0479               	iorwf	??___fleq+1,w
 10824  1310  0478               	iorwf	??___fleq,w
 10825  1311  1D03               	skipz
 10826  1312  2B14               	goto	u4101
 10827  1313  2B15               	goto	u4100
 10828  1314                     u4101:	
 10829  1314  2B1D               	goto	l467
 10830  1315                     u4100:	
 10831  1315                     l2849:	
 10832  1315  3000               	movlw	0
 10833  1316  00F7               	movwf	___fleq@ff2+3
 10834  1317  3000               	movlw	0
 10835  1318  00F6               	movwf	___fleq@ff2+2
 10836  1319  3000               	movlw	0
 10837  131A  00F5               	movwf	___fleq@ff2+1
 10838  131B  3000               	movlw	0
 10839  131C  00F4               	movwf	___fleq@ff2
 10840  131D                     l467:	
 10841  131D  0877               	movf	___fleq@ff2+3,w
 10842  131E  0673               	xorwf	___fleq@ff1+3,w
 10843  131F  1D03               	skipz
 10844  1320  2B2B               	goto	u4115
 10845  1321  0876               	movf	___fleq@ff2+2,w
 10846  1322  0672               	xorwf	___fleq@ff1+2,w
 10847  1323  1D03               	skipz
 10848  1324  2B2B               	goto	u4115
 10849  1325  0875               	movf	___fleq@ff2+1,w
 10850  1326  0671               	xorwf	___fleq@ff1+1,w
 10851  1327  1D03               	skipz
 10852  1328  2B2B               	goto	u4115
 10853  1329  0874               	movf	___fleq@ff2,w
 10854  132A  0670               	xorwf	___fleq@ff1,w
 10855  132B                     u4115:	
 10856  132B  1903               	skipnz
 10857  132C  2B2E               	goto	u4111
 10858  132D  2B2F               	goto	u4110
 10859  132E                     u4111:	
 10860  132E  2B31               	goto	l2853
 10861  132F                     u4110:	
 10862  132F                     l2851:	
 10863  132F  1003               	clrc
 10864  1330  2B32               	goto	l468
 10865  1331                     l2853:	
 10866  1331  1403               	setc
 10867  1332                     l468:	
 10868  1332  0008               	return
 10869  1333                     __end_of___fleq:	
 10870                           
 10871                           	psect	text23
 10872  07D2                     __ptext23:	
 10873 ;; *************** function _enviarTrama *****************
 10874 ;; Defined at:
 10875 ;;		line 69 in file "main.c"
 10876 ;; Parameters:    Size  Location     Type
 10877 ;;  datos           2    0[COMMON] PTR unsigned char 
 10878 ;;		 -> salida(25), mensaje(17), 
 10879 ;; Auto vars:     Size  Location     Type
 10880 ;;		None
 10881 ;; Return value:  Size  Location     Type
 10882 ;;                  1    wreg      void 
 10883 ;; Registers used:
 10884 ;;		wreg, fsr0l, fsr0h, status,2, status,0, pclath
 10885 ;; Tracked objects:
 10886 ;;		On entry : 0/0
 10887 ;;		On exit  : 0/0
 10888 ;;		Unchanged: 0/0
 10889 ;; Data sizes:     COMMON   BANK0   BANK1   BANK2   BANK3   BANK4   BANK5   BANK6   BANK7   BANK8   BANK9  BANK10  BANK1
      +1  BANK12
 10890 ;;      Params:         2       0       0       0       0       0       0       0       0       0       0       0       
      +0       0
 10891 ;;      Locals:         0       0       0       0       0       0       0       0       0       0       0       0       
      +0       0
 10892 ;;      Temps:          1       0       0       0       0       0       0       0       0       0       0       0       
      +0       0
 10893 ;;      Totals:         3       0       0       0       0       0       0       0       0       0       0       0       
      +0       0
 10894 ;;Total ram usage:        3 bytes
 10895 ;; Hardware stack levels used:    1
 10896 ;; Hardware stack levels required when called:    1
 10897 ;; This function calls:
 10898 ;;		Nothing
 10899 ;; This function is called by:
 10900 ;;		_main
 10901 ;; This function uses a non-reentrant model
 10902 ;;
 10903                           
 10904                           
 10905                           ;psect for function _enviarTrama
 10906  07D2                     _enviarTrama:	
 10907  07D2                     l3065:	
 10908                           ;incstack = 0
 10909                           ; Regs used in _enviarTrama: [wreg-fsr0h+status,2+status,0+pclath]
 10910                           
 10911                           
 10912                           ;main.c: 73: while (*datos != 0) {
 10913  07D2  2FE2               	goto	l3071
 10914  07D3                     l3067:	
 10915                           
 10916                           ;main.c: 74: TX1REG = *datos;
 10917  07D3  0870               	movf	enviarTrama@datos,w
 10918  07D4  0084               	movwf	4
 10919  07D5  0871               	movf	enviarTrama@datos+1,w
 10920  07D6  0085               	movwf	5
 10921  07D7  0800               	movf	0,w	;code access
 10922  07D8  0023               	movlb	3	; select bank3
 10923  07D9  009A               	movwf	26	;volatile
 10924  07DA                     l61:	
 10925                           ;main.c: 75: while (TX1STAbits.TRMT == 0);
 10926                           
 10927  07DA  1C9E               	btfss	30,1	;volatile
 10928  07DB  2FDD               	goto	u4481
 10929  07DC  2FDE               	goto	u4480
 10930  07DD                     u4481:	
 10931  07DD  2FDA               	goto	l61
 10932  07DE                     u4480:	
 10933  07DE                     l3069:	
 10934                           
 10935                           ;main.c: 76: *datos++;
 10936  07DE  3001               	movlw	1
 10937  07DF  07F0               	addwf	enviarTrama@datos,f
 10938  07E0  3000               	movlw	0
 10939  07E1  3DF1               	addwfc	enviarTrama@datos+1,f
 10940  07E2                     l3071:	
 10941  07E2  0870               	movf	enviarTrama@datos,w
 10942  07E3  0084               	movwf	4
 10943  07E4  0871               	movf	enviarTrama@datos+1,w
 10944  07E5  0085               	movwf	5
 10945  07E6  0012               	moviw fsr0++
 10946  07E7  1D03               	btfss	3,2
 10947  07E8  2FEA               	goto	u4491
 10948  07E9  2FEB               	goto	u4490
 10949  07EA                     u4491:	
 10950  07EA  2FD3               	goto	l3067
 10951  07EB                     u4490:	
 10952  07EB                     l3073:	
 10953                           
 10954                           ;main.c: 77: };main.c: 79: TX1REG = 0x0A;
 10955  07EB  300A               	movlw	10
 10956  07EC  0023               	movlb	3	; select bank3
 10957  07ED  009A               	movwf	26	;volatile
 10958  07EE                     l65:	
 10959                           ;main.c: 80: while (TX1STAbits.TRMT == 0);
 10960                           
 10961  07EE  1C9E               	btfss	30,1	;volatile
 10962  07EF  2FF1               	goto	u4501
 10963  07F0  2FF2               	goto	u4500
 10964  07F1                     u4501:	
 10965  07F1  2FEE               	goto	l65
 10966  07F2                     u4500:	
 10967  07F2                     l3075:	
 10968                           
 10969                           ;main.c: 81: TX1REG = 0x0D;
 10970  07F2  300D               	movlw	13
 10971  07F3  009A               	movwf	26	;volatile
 10972  07F4                     l68:	
 10973                           ;main.c: 82: while (TX1STAbits.TRMT == 0);
 10974                           
 10975  07F4  1C9E               	btfss	30,1	;volatile
 10976  07F5  2FF7               	goto	u4511
 10977  07F6  2FF8               	goto	u4510
 10978  07F7                     u4511:	
 10979  07F7  2FF4               	goto	l68
 10980  07F8                     u4510:	
 10981  07F8                     l71:	
 10982  07F8  0008               	return
 10983  07F9                     __end_of_enviarTrama:	
 10984                           
 10985                           	psect	text24
 10986  09BD                     __ptext24:	
 10987 ;; *************** function ___fldiv *****************
 10988 ;; Defined at:
 10989 ;;		line 8 in file "C:\Program Files (x86)\Microchip\xc8\v2.10\pic\sources\c90\common\sprcdiv.c"
 10990 ;; Parameters:    Size  Location     Type
 10991 ;;  a               4   30[BANK0 ] void 
 10992 ;;  b               4   34[BANK0 ] void 
 10993 ;; Auto vars:     Size  Location     Type
 10994 ;;  grs             4   50[BANK0 ] unsigned long 
 10995 ;;  rem             4   43[BANK0 ] unsigned long 
 10996 ;;  new_exp         2   48[BANK0 ] int 
 10997 ;;  aexp            1   55[BANK0 ] unsigned char 
 10998 ;;  bexp            1   54[BANK0 ] unsigned char 
 10999 ;;  sign            1   47[BANK0 ] unsigned char 
 11000 ;; Return value:  Size  Location     Type
 11001 ;;                  4   30[BANK0 ] unsigned char 
 11002 ;; Registers used:
 11003 ;;		wreg, status,2, status,0
 11004 ;; Tracked objects:
 11005 ;;		On entry : 0/0
 11006 ;;		On exit  : 0/0
 11007 ;;		Unchanged: 0/0
 11008 ;; Data sizes:     COMMON   BANK0   BANK1   BANK2   BANK3   BANK4   BANK5   BANK6   BANK7   BANK8   BANK9  BANK10  BANK1
      +1  BANK12
 11009 ;;      Params:         0       8       0       0       0       0       0       0       0       0       0       0       
      +0       0
 11010 ;;      Locals:         0      13       0       0       0       0       0       0       0       0       0       0       
      +0       0
 11011 ;;      Temps:          0       5       0       0       0       0       0       0       0       0       0       0       
      +0       0
 11012 ;;      Totals:         0      26       0       0       0       0       0       0       0       0       0       0       
      +0       0
 11013 ;;Total ram usage:       26 bytes
 11014 ;; Hardware stack levels used:    1
 11015 ;; Hardware stack levels required when called:    1
 11016 ;; This function calls:
 11017 ;;		Nothing
 11018 ;; This function is called by:
 11019 ;;		_main
 11020 ;; This function uses a non-reentrant model
 11021 ;;
 11022                           
 11023                           
 11024                           ;psect for function ___fldiv
 11025  09BD                     ___fldiv:	
 11026  09BD                     l3279:	
 11027                           ;incstack = 0
 11028                           ; Regs used in ___fldiv: [wreg+status,2+status,0]
 11029                           
 11030  09BD  0020               	movlb	0	; select bank0
 11031  09BE  0845               	movf	___fldiv@b+3,w
 11032  09BF  3980               	andlw	128
 11033  09C0  00C6               	movwf	??___fldiv
 11034  09C1  0846               	movf	??___fldiv,w
 11035  09C2  00CF               	movwf	___fldiv@sign
 11036  09C3                     l3281:	
 11037  09C3  3545               	lslf	___fldiv@b+3,w
 11038  09C4  00C6               	movwf	??___fldiv
 11039  09C5  0846               	movf	??___fldiv,w
 11040  09C6  00D6               	movwf	___fldiv@bexp
 11041  09C7                     l3283:	
 11042  09C7  1FC4               	btfss	___fldiv@b+2,7
 11043  09C8  29CA               	goto	u4831
 11044  09C9  29CB               	goto	u4830
 11045  09CA                     u4831:	
 11046  09CA  29CC               	goto	l3287
 11047  09CB                     u4830:	
 11048  09CB                     l3285:	
 11049  09CB  1456               	bsf	___fldiv@bexp,0
 11050  09CC                     l3287:	
 11051  09CC  0856               	movf	___fldiv@bexp,w
 11052  09CD  1903               	btfsc	3,2
 11053  09CE  29D0               	goto	u4841
 11054  09CF  29D1               	goto	u4840
 11055  09D0                     u4841:	
 11056  09D0  29E1               	goto	l3297
 11057  09D1                     u4840:	
 11058  09D1                     l3289:	
 11059  09D1  0A56               	incf	___fldiv@bexp,w
 11060  09D2  1D03               	btfss	3,2
 11061  09D3  29D5               	goto	u4851
 11062  09D4  29D6               	goto	u4850
 11063  09D5                     u4851:	
 11064  09D5  29DE               	goto	l3293
 11065  09D6                     u4850:	
 11066  09D6                     l3291:	
 11067  09D6  3000               	movlw	0
 11068  09D7  00C5               	movwf	___fldiv@b+3
 11069  09D8  3000               	movlw	0
 11070  09D9  00C4               	movwf	___fldiv@b+2
 11071  09DA  3000               	movlw	0
 11072  09DB  00C3               	movwf	___fldiv@b+1
 11073  09DC  3000               	movlw	0
 11074  09DD  00C2               	movwf	___fldiv@b
 11075  09DE                     l3293:	
 11076  09DE  17C4               	bsf	___fldiv@b+2,7
 11077  09DF                     l3295:	
 11078  09DF  01C5               	clrf	___fldiv@b+3
 11079  09E0  29E9               	goto	l3299
 11080  09E1                     l3297:	
 11081  09E1  3000               	movlw	0
 11082  09E2  00C5               	movwf	___fldiv@b+3
 11083  09E3  3000               	movlw	0
 11084  09E4  00C4               	movwf	___fldiv@b+2
 11085  09E5  3000               	movlw	0
 11086  09E6  00C3               	movwf	___fldiv@b+1
 11087  09E7  3000               	movlw	0
 11088  09E8  00C2               	movwf	___fldiv@b
 11089  09E9                     l3299:	
 11090  09E9  0841               	movf	___fldiv@a+3,w
 11091  09EA  3980               	andlw	128
 11092  09EB  00C6               	movwf	??___fldiv
 11093  09EC  0846               	movf	??___fldiv,w
 11094  09ED  06CF               	xorwf	___fldiv@sign,f
 11095  09EE                     l3301:	
 11096  09EE  3541               	lslf	___fldiv@a+3,w
 11097  09EF  00C6               	movwf	??___fldiv
 11098  09F0  0846               	movf	??___fldiv,w
 11099  09F1  00D7               	movwf	___fldiv@aexp
 11100  09F2                     l3303:	
 11101  09F2  1FC0               	btfss	___fldiv@a+2,7
 11102  09F3  29F5               	goto	u4861
 11103  09F4  29F6               	goto	u4860
 11104  09F5                     u4861:	
 11105  09F5  29F7               	goto	l3307
 11106  09F6                     u4860:	
 11107  09F6                     l3305:	
 11108  09F6  1457               	bsf	___fldiv@aexp,0
 11109  09F7                     l3307:	
 11110  09F7  0857               	movf	___fldiv@aexp,w
 11111  09F8  1903               	btfsc	3,2
 11112  09F9  29FB               	goto	u4871
 11113  09FA  29FC               	goto	u4870
 11114  09FB                     u4871:	
 11115  09FB  2A0C               	goto	l3317
 11116  09FC                     u4870:	
 11117  09FC                     l3309:	
 11118  09FC  0A57               	incf	___fldiv@aexp,w
 11119  09FD  1D03               	btfss	3,2
 11120  09FE  2A00               	goto	u4881
 11121  09FF  2A01               	goto	u4880
 11122  0A00                     u4881:	
 11123  0A00  2A09               	goto	l3313
 11124  0A01                     u4880:	
 11125  0A01                     l3311:	
 11126  0A01  3000               	movlw	0
 11127  0A02  00C1               	movwf	___fldiv@a+3
 11128  0A03  3000               	movlw	0
 11129  0A04  00C0               	movwf	___fldiv@a+2
 11130  0A05  3000               	movlw	0
 11131  0A06  00BF               	movwf	___fldiv@a+1
 11132  0A07  3000               	movlw	0
 11133  0A08  00BE               	movwf	___fldiv@a
 11134  0A09                     l3313:	
 11135  0A09  17C0               	bsf	___fldiv@a+2,7
 11136  0A0A                     l3315:	
 11137  0A0A  01C1               	clrf	___fldiv@a+3
 11138  0A0B  2A14               	goto	l663
 11139  0A0C                     l3317:	
 11140  0A0C  3000               	movlw	0
 11141  0A0D  00C1               	movwf	___fldiv@a+3
 11142  0A0E  3000               	movlw	0
 11143  0A0F  00C0               	movwf	___fldiv@a+2
 11144  0A10  3000               	movlw	0
 11145  0A11  00BF               	movwf	___fldiv@a+1
 11146  0A12  3000               	movlw	0
 11147  0A13  00BE               	movwf	___fldiv@a
 11148  0A14                     l663:	
 11149  0A14  0841               	movf	___fldiv@a+3,w
 11150  0A15  0440               	iorwf	___fldiv@a+2,w
 11151  0A16  043F               	iorwf	___fldiv@a+1,w
 11152  0A17  043E               	iorwf	___fldiv@a,w
 11153  0A18  1D03               	skipz
 11154  0A19  2A1B               	goto	u4891
 11155  0A1A  2A1C               	goto	u4890
 11156  0A1B                     u4891:	
 11157  0A1B  2A35               	goto	l3327
 11158  0A1C                     u4890:	
 11159  0A1C                     l3319:	
 11160  0A1C  3000               	movlw	0
 11161  0A1D  00C5               	movwf	___fldiv@b+3
 11162  0A1E  3000               	movlw	0
 11163  0A1F  00C4               	movwf	___fldiv@b+2
 11164  0A20  3000               	movlw	0
 11165  0A21  00C3               	movwf	___fldiv@b+1
 11166  0A22  3000               	movlw	0
 11167  0A23  00C2               	movwf	___fldiv@b
 11168  0A24  3080               	movlw	128
 11169  0A25  04C4               	iorwf	___fldiv@b+2,f
 11170  0A26  307F               	movlw	127
 11171  0A27  04C5               	iorwf	___fldiv@b+3,f
 11172  0A28                     l3321:	
 11173  0A28  084F               	movf	___fldiv@sign,w
 11174  0A29  00C6               	movwf	??___fldiv
 11175  0A2A  0846               	movf	??___fldiv,w
 11176  0A2B  04C5               	iorwf	___fldiv@b+3,f
 11177  0A2C                     l3323:	
 11178  0A2C  0845               	movf	___fldiv@b+3,w
 11179  0A2D  00C1               	movwf	?___fldiv+3
 11180  0A2E  0844               	movf	___fldiv@b+2,w
 11181  0A2F  00C0               	movwf	?___fldiv+2
 11182  0A30  0843               	movf	___fldiv@b+1,w
 11183  0A31  00BF               	movwf	?___fldiv+1
 11184  0A32  0842               	movf	___fldiv@b,w
 11185  0A33  00BE               	movwf	?___fldiv
 11186  0A34  2B70               	goto	l665
 11187  0A35                     l3327:	
 11188  0A35  0856               	movf	___fldiv@bexp,w
 11189  0A36  1D03               	btfss	3,2
 11190  0A37  2A39               	goto	u4901
 11191  0A38  2A3A               	goto	u4900
 11192  0A39                     u4901:	
 11193  0A39  2A43               	goto	l3333
 11194  0A3A                     u4900:	
 11195  0A3A                     l3329:	
 11196  0A3A  3000               	movlw	0
 11197  0A3B  00C1               	movwf	?___fldiv+3
 11198  0A3C  3000               	movlw	0
 11199  0A3D  00C0               	movwf	?___fldiv+2
 11200  0A3E  3000               	movlw	0
 11201  0A3F  00BF               	movwf	?___fldiv+1
 11202  0A40  3000               	movlw	0
 11203  0A41  00BE               	movwf	?___fldiv
 11204  0A42  2B70               	goto	l665
 11205  0A43                     l3333:	
 11206  0A43  0856               	movf	___fldiv@bexp,w
 11207  0A44  00C6               	movwf	??___fldiv
 11208  0A45  01C7               	clrf	??___fldiv+1
 11209  0A46  0847               	movf	??___fldiv+1,w
 11210  0A47  00C9               	movwf	??___fldiv+3
 11211  0A48  0857               	movf	___fldiv@aexp,w
 11212  0A49  0246               	subwf	??___fldiv,w
 11213  0A4A  00C8               	movwf	??___fldiv+2
 11214  0A4B  1C03               	skipc
 11215  0A4C  03C9               	decf	??___fldiv+3,f
 11216  0A4D  0848               	movf	??___fldiv+2,w
 11217  0A4E  3E7F               	addlw	127
 11218  0A4F  00D0               	movwf	___fldiv@new_exp
 11219  0A50  3000               	movlw	0
 11220  0A51  3D49               	addwfc	??___fldiv+3,w
 11221  0A52  00D1               	movwf	___fldiv@new_exp+1
 11222  0A53                     l3335:	
 11223  0A53  0845               	movf	___fldiv@b+3,w
 11224  0A54  00CE               	movwf	___fldiv@rem+3
 11225  0A55  0844               	movf	___fldiv@b+2,w
 11226  0A56  00CD               	movwf	___fldiv@rem+2
 11227  0A57  0843               	movf	___fldiv@b+1,w
 11228  0A58  00CC               	movwf	___fldiv@rem+1
 11229  0A59  0842               	movf	___fldiv@b,w
 11230  0A5A  00CB               	movwf	___fldiv@rem
 11231  0A5B                     l3337:	
 11232  0A5B  3000               	movlw	0
 11233  0A5C  00C5               	movwf	___fldiv@b+3
 11234  0A5D  3000               	movlw	0
 11235  0A5E  00C4               	movwf	___fldiv@b+2
 11236  0A5F  3000               	movlw	0
 11237  0A60  00C3               	movwf	___fldiv@b+1
 11238  0A61  3000               	movlw	0
 11239  0A62  00C2               	movwf	___fldiv@b
 11240  0A63                     l3339:	
 11241  0A63  3000               	movlw	0
 11242  0A64  00D5               	movwf	___fldiv@grs+3
 11243  0A65  3000               	movlw	0
 11244  0A66  00D4               	movwf	___fldiv@grs+2
 11245  0A67  3000               	movlw	0
 11246  0A68  00D3               	movwf	___fldiv@grs+1
 11247  0A69  3000               	movlw	0
 11248  0A6A  00D2               	movwf	___fldiv@grs
 11249  0A6B                     l3341:	
 11250  0A6B  01D7               	clrf	___fldiv@aexp
 11251  0A6C  2AAB               	goto	l3361
 11252  0A6D                     l3343:	
 11253  0A6D  0857               	movf	___fldiv@aexp,w
 11254  0A6E  1903               	btfsc	3,2
 11255  0A6F  2A71               	goto	u4911
 11256  0A70  2A72               	goto	u4910
 11257  0A71                     u4911:	
 11258  0A71  2A8C               	goto	l3353
 11259  0A72                     u4910:	
 11260  0A72                     l3345:	
 11261  0A72  3001               	movlw	1
 11262  0A73                     u4925:	
 11263  0A73  35CB               	lslf	___fldiv@rem,f
 11264  0A74  0DCC               	rlf	___fldiv@rem+1,f
 11265  0A75  0DCD               	rlf	___fldiv@rem+2,f
 11266  0A76  0DCE               	rlf	___fldiv@rem+3,f
 11267  0A77  0B89               	decfsz	9,f
 11268  0A78  2A73               	goto	u4925
 11269  0A79  3001               	movlw	1
 11270  0A7A                     u4935:	
 11271  0A7A  35C2               	lslf	___fldiv@b,f
 11272  0A7B  0DC3               	rlf	___fldiv@b+1,f
 11273  0A7C  0DC4               	rlf	___fldiv@b+2,f
 11274  0A7D  0DC5               	rlf	___fldiv@b+3,f
 11275  0A7E  0B89               	decfsz	9,f
 11276  0A7F  2A7A               	goto	u4935
 11277  0A80                     l3347:	
 11278  0A80  1FD5               	btfss	___fldiv@grs+3,7
 11279  0A81  2A83               	goto	u4941
 11280  0A82  2A84               	goto	u4940
 11281  0A83                     u4941:	
 11282  0A83  2A85               	goto	l3351
 11283  0A84                     u4940:	
 11284  0A84                     l3349:	
 11285  0A84  1442               	bsf	___fldiv@b,0
 11286  0A85                     l3351:	
 11287  0A85  3001               	movlw	1
 11288  0A86                     u4955:	
 11289  0A86  35D2               	lslf	___fldiv@grs,f
 11290  0A87  0DD3               	rlf	___fldiv@grs+1,f
 11291  0A88  0DD4               	rlf	___fldiv@grs+2,f
 11292  0A89  0DD5               	rlf	___fldiv@grs+3,f
 11293  0A8A  0B89               	decfsz	9,f
 11294  0A8B  2A86               	goto	u4955
 11295  0A8C                     l3353:	
 11296  0A8C  0841               	movf	___fldiv@a+3,w
 11297  0A8D  024E               	subwf	___fldiv@rem+3,w
 11298  0A8E  1D03               	skipz
 11299  0A8F  2A9A               	goto	u4965
 11300  0A90  0840               	movf	___fldiv@a+2,w
 11301  0A91  024D               	subwf	___fldiv@rem+2,w
 11302  0A92  1D03               	skipz
 11303  0A93  2A9A               	goto	u4965
 11304  0A94  083F               	movf	___fldiv@a+1,w
 11305  0A95  024C               	subwf	___fldiv@rem+1,w
 11306  0A96  1D03               	skipz
 11307  0A97  2A9A               	goto	u4965
 11308  0A98  083E               	movf	___fldiv@a,w
 11309  0A99  024B               	subwf	___fldiv@rem,w
 11310  0A9A                     u4965:	
 11311  0A9A  1C03               	skipc
 11312  0A9B  2A9D               	goto	u4961
 11313  0A9C  2A9E               	goto	u4960
 11314  0A9D                     u4961:	
 11315  0A9D  2AA7               	goto	l3359
 11316  0A9E                     u4960:	
 11317  0A9E                     l3355:	
 11318  0A9E  1755               	bsf	___fldiv@grs+3,6
 11319  0A9F                     l3357:	
 11320  0A9F  083E               	movf	___fldiv@a,w
 11321  0AA0  02CB               	subwf	___fldiv@rem,f
 11322  0AA1  083F               	movf	___fldiv@a+1,w
 11323  0AA2  3BCC               	subwfb	___fldiv@rem+1,f
 11324  0AA3  0840               	movf	___fldiv@a+2,w
 11325  0AA4  3BCD               	subwfb	___fldiv@rem+2,f
 11326  0AA5  0841               	movf	___fldiv@a+3,w
 11327  0AA6  3BCE               	subwfb	___fldiv@rem+3,f
 11328  0AA7                     l3359:	
 11329  0AA7  3001               	movlw	1
 11330  0AA8  00C6               	movwf	??___fldiv
 11331  0AA9  0846               	movf	??___fldiv,w
 11332  0AAA  07D7               	addwf	___fldiv@aexp,f
 11333  0AAB                     l3361:	
 11334  0AAB  301A               	movlw	26
 11335  0AAC  0257               	subwf	___fldiv@aexp,w
 11336  0AAD  1C03               	skipc
 11337  0AAE  2AB0               	goto	u4971
 11338  0AAF  2AB1               	goto	u4970
 11339  0AB0                     u4971:	
 11340  0AB0  2A6D               	goto	l3343
 11341  0AB1                     u4970:	
 11342  0AB1                     l3363:	
 11343  0AB1  084E               	movf	___fldiv@rem+3,w
 11344  0AB2  044D               	iorwf	___fldiv@rem+2,w
 11345  0AB3  044C               	iorwf	___fldiv@rem+1,w
 11346  0AB4  044B               	iorwf	___fldiv@rem,w
 11347  0AB5  1903               	skipnz
 11348  0AB6  2AB8               	goto	u4981
 11349  0AB7  2AB9               	goto	u4980
 11350  0AB8                     u4981:	
 11351  0AB8  2AD2               	goto	l3377
 11352  0AB9                     u4980:	
 11353  0AB9                     l3365:	
 11354  0AB9  1452               	bsf	___fldiv@grs,0
 11355  0ABA  2AD2               	goto	l3377
 11356  0ABB                     l3367:	
 11357  0ABB  3001               	movlw	1
 11358  0ABC                     u4995:	
 11359  0ABC  35C2               	lslf	___fldiv@b,f
 11360  0ABD  0DC3               	rlf	___fldiv@b+1,f
 11361  0ABE  0DC4               	rlf	___fldiv@b+2,f
 11362  0ABF  0DC5               	rlf	___fldiv@b+3,f
 11363  0AC0  0B89               	decfsz	9,f
 11364  0AC1  2ABC               	goto	u4995
 11365  0AC2                     l3369:	
 11366  0AC2  1FD5               	btfss	___fldiv@grs+3,7
 11367  0AC3  2AC5               	goto	u5001
 11368  0AC4  2AC6               	goto	u5000
 11369  0AC5                     u5001:	
 11370  0AC5  2AC7               	goto	l3373
 11371  0AC6                     u5000:	
 11372  0AC6                     l3371:	
 11373  0AC6  1442               	bsf	___fldiv@b,0
 11374  0AC7                     l3373:	
 11375  0AC7  3001               	movlw	1
 11376  0AC8                     u5015:	
 11377  0AC8  35D2               	lslf	___fldiv@grs,f
 11378  0AC9  0DD3               	rlf	___fldiv@grs+1,f
 11379  0ACA  0DD4               	rlf	___fldiv@grs+2,f
 11380  0ACB  0DD5               	rlf	___fldiv@grs+3,f
 11381  0ACC  0B89               	decfsz	9,f
 11382  0ACD  2AC8               	goto	u5015
 11383  0ACE                     l3375:	
 11384  0ACE  30FF               	movlw	255
 11385  0ACF  07D0               	addwf	___fldiv@new_exp,f
 11386  0AD0  30FF               	movlw	255
 11387  0AD1  3DD1               	addwfc	___fldiv@new_exp+1,f
 11388  0AD2                     l3377:	
 11389  0AD2  1FC4               	btfss	___fldiv@b+2,7
 11390  0AD3  2AD5               	goto	u5021
 11391  0AD4  2AD6               	goto	u5020
 11392  0AD5                     u5021:	
 11393  0AD5  2ABB               	goto	l3367
 11394  0AD6                     u5020:	
 11395  0AD6                     l3379:	
 11396  0AD6  01D7               	clrf	___fldiv@aexp
 11397  0AD7                     l3381:	
 11398  0AD7  1FD5               	btfss	___fldiv@grs+3,7
 11399  0AD8  2ADA               	goto	u5031
 11400  0AD9  2ADB               	goto	u5030
 11401  0ADA                     u5031:	
 11402  0ADA  2AF7               	goto	l3389
 11403  0ADB                     u5030:	
 11404  0ADB                     l3383:	
 11405  0ADB  30FF               	movlw	255
 11406  0ADC  0552               	andwf	___fldiv@grs,w
 11407  0ADD  00C6               	movwf	??___fldiv
 11408  0ADE  30FF               	movlw	255
 11409  0ADF  0553               	andwf	___fldiv@grs+1,w
 11410  0AE0  00C7               	movwf	??___fldiv+1
 11411  0AE1  30FF               	movlw	255
 11412  0AE2  0554               	andwf	___fldiv@grs+2,w
 11413  0AE3  00C8               	movwf	??___fldiv+2
 11414  0AE4  307F               	movlw	127
 11415  0AE5  0555               	andwf	___fldiv@grs+3,w
 11416  0AE6  00C9               	movwf	??___fldiv+3
 11417  0AE7  0849               	movf	??___fldiv+3,w
 11418  0AE8  0448               	iorwf	??___fldiv+2,w
 11419  0AE9  0447               	iorwf	??___fldiv+1,w
 11420  0AEA  0446               	iorwf	??___fldiv,w
 11421  0AEB  1903               	skipnz
 11422  0AEC  2AEE               	goto	u5041
 11423  0AED  2AEF               	goto	u5040
 11424  0AEE                     u5041:	
 11425  0AEE  2AF2               	goto	l679
 11426  0AEF                     u5040:	
 11427  0AEF                     l3385:	
 11428  0AEF  01D7               	clrf	___fldiv@aexp
 11429  0AF0  0AD7               	incf	___fldiv@aexp,f
 11430  0AF1  2AF7               	goto	l3389
 11431  0AF2                     l679:	
 11432  0AF2  1C42               	btfss	___fldiv@b,0
 11433  0AF3  2AF5               	goto	u5051
 11434  0AF4  2AF6               	goto	u5050
 11435  0AF5                     u5051:	
 11436  0AF5  2AF7               	goto	l3389
 11437  0AF6                     u5050:	
 11438  0AF6  2AEF               	goto	l3385
 11439  0AF7                     l3389:	
 11440  0AF7  0857               	movf	___fldiv@aexp,w
 11441  0AF8  1903               	btfsc	3,2
 11442  0AF9  2AFB               	goto	u5061
 11443  0AFA  2AFC               	goto	u5060
 11444  0AFB                     u5061:	
 11445  0AFB  2B24               	goto	l3399
 11446  0AFC                     u5060:	
 11447  0AFC                     l3391:	
 11448  0AFC  3001               	movlw	1
 11449  0AFD  07C2               	addwf	___fldiv@b,f
 11450  0AFE  3000               	movlw	0
 11451  0AFF  3DC3               	addwfc	___fldiv@b+1,f
 11452  0B00  3000               	movlw	0
 11453  0B01  3DC4               	addwfc	___fldiv@b+2,f
 11454  0B02  3000               	movlw	0
 11455  0B03  3DC5               	addwfc	___fldiv@b+3,f
 11456  0B04                     l3393:	
 11457  0B04  1C45               	btfss	___fldiv@b+3,0
 11458  0B05  2B07               	goto	u5071
 11459  0B06  2B08               	goto	u5070
 11460  0B07                     u5071:	
 11461  0B07  2B24               	goto	l3399
 11462  0B08                     u5070:	
 11463  0B08                     l3395:	
 11464  0B08  0842               	movf	___fldiv@b,w
 11465  0B09  00C6               	movwf	??___fldiv
 11466  0B0A  0843               	movf	___fldiv@b+1,w
 11467  0B0B  00C7               	movwf	??___fldiv+1
 11468  0B0C  0844               	movf	___fldiv@b+2,w
 11469  0B0D  00C8               	movwf	??___fldiv+2
 11470  0B0E  0845               	movf	___fldiv@b+3,w
 11471  0B0F  00C9               	movwf	??___fldiv+3
 11472  0B10  3001               	movlw	1
 11473  0B11  00CA               	movwf	??___fldiv+4
 11474  0B12                     u5085:	
 11475  0B12  37C9               	asrf	??___fldiv+3,f
 11476  0B13  0CC8               	rrf	??___fldiv+2,f
 11477  0B14  0CC7               	rrf	??___fldiv+1,f
 11478  0B15  0CC6               	rrf	??___fldiv,f
 11479  0B16                     u5080:	
 11480  0B16  0BCA               	decfsz	??___fldiv+4,f
 11481  0B17  2B12               	goto	u5085
 11482  0B18  0849               	movf	??___fldiv+3,w
 11483  0B19  00C5               	movwf	___fldiv@b+3
 11484  0B1A  0848               	movf	??___fldiv+2,w
 11485  0B1B  00C4               	movwf	___fldiv@b+2
 11486  0B1C  0847               	movf	??___fldiv+1,w
 11487  0B1D  00C3               	movwf	___fldiv@b+1
 11488  0B1E  0846               	movf	??___fldiv,w
 11489  0B1F  00C2               	movwf	___fldiv@b
 11490  0B20                     l3397:	
 11491  0B20  3001               	movlw	1
 11492  0B21  07D0               	addwf	___fldiv@new_exp,f
 11493  0B22  3000               	movlw	0
 11494  0B23  3DD1               	addwfc	___fldiv@new_exp+1,f
 11495  0B24                     l3399:	
 11496  0B24  0851               	movf	___fldiv@new_exp+1,w
 11497  0B25  3A80               	xorlw	128
 11498  0B26  00C6               	movwf	??___fldiv
 11499  0B27  3080               	movlw	128
 11500  0B28  0246               	subwf	??___fldiv,w
 11501  0B29  1D03               	skipz
 11502  0B2A  2B2D               	goto	u5095
 11503  0B2B  30FF               	movlw	255
 11504  0B2C  0250               	subwf	___fldiv@new_exp,w
 11505  0B2D                     u5095:	
 11506  0B2D  1C03               	skipc
 11507  0B2E  2B30               	goto	u5091
 11508  0B2F  2B31               	goto	u5090
 11509  0B30                     u5091:	
 11510  0B30  2B3E               	goto	l684
 11511  0B31                     u5090:	
 11512  0B31                     l3401:	
 11513  0B31  30FF               	movlw	255
 11514  0B32  0020               	movlb	0	; select bank0
 11515  0B33  00D0               	movwf	___fldiv@new_exp
 11516  0B34  3000               	movlw	0
 11517  0B35  00D1               	movwf	___fldiv@new_exp+1
 11518  0B36  3000               	movlw	0
 11519  0B37  00C5               	movwf	___fldiv@b+3
 11520  0B38  3000               	movlw	0
 11521  0B39  00C4               	movwf	___fldiv@b+2
 11522  0B3A  3000               	movlw	0
 11523  0B3B  00C3               	movwf	___fldiv@b+1
 11524  0B3C  3000               	movlw	0
 11525  0B3D  00C2               	movwf	___fldiv@b
 11526  0B3E                     l684:	
 11527  0B3E  0020               	movlb	0	; select bank0
 11528  0B3F  0851               	movf	___fldiv@new_exp+1,w
 11529  0B40  3A80               	xorlw	128
 11530  0B41  00C6               	movwf	??___fldiv
 11531  0B42  3080               	movlw	128
 11532  0B43  0246               	subwf	??___fldiv,w
 11533  0B44  1D03               	skipz
 11534  0B45  2B48               	goto	u5105
 11535  0B46  3001               	movlw	1
 11536  0B47  0250               	subwf	___fldiv@new_exp,w
 11537  0B48                     u5105:	
 11538  0B48  1803               	skipnc
 11539  0B49  2B4B               	goto	u5101
 11540  0B4A  2B4C               	goto	u5100
 11541  0B4B                     u5101:	
 11542  0B4B  2B58               	goto	l685
 11543  0B4C                     u5100:	
 11544  0B4C                     l3403:	
 11545  0B4C  0020               	movlb	0	; select bank0
 11546  0B4D  01D0               	clrf	___fldiv@new_exp
 11547  0B4E  01D1               	clrf	___fldiv@new_exp+1
 11548  0B4F                     l3405:	
 11549  0B4F  3000               	movlw	0
 11550  0B50  00C5               	movwf	___fldiv@b+3
 11551  0B51  3000               	movlw	0
 11552  0B52  00C4               	movwf	___fldiv@b+2
 11553  0B53  3000               	movlw	0
 11554  0B54  00C3               	movwf	___fldiv@b+1
 11555  0B55  3000               	movlw	0
 11556  0B56  00C2               	movwf	___fldiv@b
 11557  0B57                     l3407:	
 11558  0B57  01CF               	clrf	___fldiv@sign
 11559  0B58                     l685:	
 11560  0B58  0020               	movlb	0	; select bank0
 11561  0B59  0850               	movf	___fldiv@new_exp,w
 11562  0B5A  00C6               	movwf	??___fldiv
 11563  0B5B  0846               	movf	??___fldiv,w
 11564  0B5C  00D6               	movwf	___fldiv@bexp
 11565  0B5D                     l3409:	
 11566  0B5D  1C56               	btfss	___fldiv@bexp,0
 11567  0B5E  2B60               	goto	u5111
 11568  0B5F  2B61               	goto	u5110
 11569  0B60                     u5111:	
 11570  0B60  2B63               	goto	l3413
 11571  0B61                     u5110:	
 11572  0B61                     l3411:	
 11573  0B61  17C4               	bsf	___fldiv@b+2,7
 11574  0B62  2B67               	goto	l687
 11575  0B63                     l3413:	
 11576  0B63  307F               	movlw	127
 11577  0B64  00C6               	movwf	??___fldiv
 11578  0B65  0846               	movf	??___fldiv,w
 11579  0B66  05C4               	andwf	___fldiv@b+2,f
 11580  0B67                     l687:	
 11581  0B67  3656               	lsrf	___fldiv@bexp,w
 11582  0B68  00C6               	movwf	??___fldiv
 11583  0B69  0846               	movf	??___fldiv,w
 11584  0B6A  00C5               	movwf	___fldiv@b+3
 11585  0B6B  084F               	movf	___fldiv@sign,w
 11586  0B6C  00C6               	movwf	??___fldiv
 11587  0B6D  0846               	movf	??___fldiv,w
 11588  0B6E  04C5               	iorwf	___fldiv@b+3,f
 11589  0B6F  2A2C               	goto	l3323
 11590  0B70                     l665:	
 11591  0B70  0008               	return
 11592  0B71                     __end_of___fldiv:	
 11593                           
 11594                           	psect	text25
 11595  1254                     __ptext25:	
 11596 ;; *************** function _InitApp *****************
 11597 ;; Defined at:
 11598 ;;		line 22 in file "user.c"
 11599 ;; Parameters:    Size  Location     Type
 11600 ;;		None
 11601 ;; Auto vars:     Size  Location     Type
 11602 ;;		None
 11603 ;; Return value:  Size  Location     Type
 11604 ;;                  1    wreg      void 
 11605 ;; Registers used:
 11606 ;;		wreg, status,2, status,0
 11607 ;; Tracked objects:
 11608 ;;		On entry : 0/0
 11609 ;;		On exit  : 0/0
 11610 ;;		Unchanged: 0/0
 11611 ;; Data sizes:     COMMON   BANK0   BANK1   BANK2   BANK3   BANK4   BANK5   BANK6   BANK7   BANK8   BANK9  BANK10  BANK1
      +1  BANK12
 11612 ;;      Params:         0       0       0       0       0       0       0       0       0       0       0       0       
      +0       0
 11613 ;;      Locals:         0       0       0       0       0       0       0       0       0       0       0       0       
      +0       0
 11614 ;;      Temps:          0       0       0       0       0       0       0       0       0       0       0       0       
      +0       0
 11615 ;;      Totals:         0       0       0       0       0       0       0       0       0       0       0       0       
      +0       0
 11616 ;;Total ram usage:        0 bytes
 11617 ;; Hardware stack levels used:    1
 11618 ;; Hardware stack levels required when called:    1
 11619 ;; This function calls:
 11620 ;;		Nothing
 11621 ;; This function is called by:
 11622 ;;		_main
 11623 ;; This function uses a non-reentrant model
 11624 ;;
 11625                           
 11626                           
 11627                           ;psect for function _InitApp
 11628  1254                     _InitApp:	
 11629  1254                     l2993:	
 11630                           ;incstack = 0
 11631                           ; Regs used in _InitApp: [wreg+status,2+status,0]
 11632                           
 11633                           
 11634                           ;user.c: 25: LATA=LATB=LATC= 0;
 11635  1254  0022               	movlb	2	; select bank2
 11636  1255  018E               	clrf	14	;volatile
 11637  1256  018D               	clrf	13	;volatile
 11638  1257  018C               	clrf	12	;volatile
 11639  1258                     l2995:	
 11640                           
 11641                           ;user.c: 27: TRISAbits.TRISA0=1;
 11642  1258  0021               	movlb	1	; select bank1
 11643  1259  140C               	bsf	12,0	;volatile
 11644  125A                     l2997:	
 11645                           
 11646                           ;user.c: 28: ANSELAbits.ANSA0=1;
 11647  125A  0023               	movlb	3	; select bank3
 11648  125B  140C               	bsf	12,0	;volatile
 11649  125C                     l2999:	
 11650                           
 11651                           ;user.c: 29: WPUAbits.WPUA0 = 0;
 11652  125C  0024               	movlb	4	; select bank4
 11653  125D  100C               	bcf	12,0	;volatile
 11654  125E                     l3001:	
 11655                           
 11656                           ;user.c: 32: TRISAbits.TRISA1=0;
 11657  125E  0021               	movlb	1	; select bank1
 11658  125F  108C               	bcf	12,1	;volatile
 11659  1260                     l3003:	
 11660                           
 11661                           ;user.c: 33: ANSELAbits.ANSA1=1;
 11662  1260  0023               	movlb	3	; select bank3
 11663  1261  148C               	bsf	12,1	;volatile
 11664  1262                     l3005:	
 11665                           
 11666                           ;user.c: 34: WPUAbits.WPUA1=0;
 11667  1262  0024               	movlb	4	; select bank4
 11668  1263  108C               	bcf	12,1	;volatile
 11669  1264                     l3007:	
 11670                           
 11671                           ;user.c: 37: TRISCbits.TRISC7=1;
 11672  1264  0021               	movlb	1	; select bank1
 11673  1265  178E               	bsf	14,7	;volatile
 11674  1266                     l3009:	
 11675                           
 11676                           ;user.c: 38: ANSELCbits.ANSC7=0;
 11677  1266  0023               	movlb	3	; select bank3
 11678  1267  138E               	bcf	14,7	;volatile
 11679  1268                     l3011:	
 11680                           
 11681                           ;user.c: 39: WPUCbits.WPUC7=0;
 11682  1268  0024               	movlb	4	; select bank4
 11683  1269  138E               	bcf	14,7	;volatile
 11684  126A                     l3013:	
 11685                           
 11686                           ;user.c: 40: RXPPS=010111;
 11687  126A  3049               	movlw	73
 11688  126B  003C               	movlb	28	; select bank28
 11689  126C  00BD               	movwf	61	;volatile
 11690  126D                     l3015:	
 11691                           
 11692                           ;user.c: 43: TRISCbits.TRISC6=0;
 11693  126D  0021               	movlb	1	; select bank1
 11694  126E  130E               	bcf	14,6	;volatile
 11695  126F                     l3017:	
 11696                           
 11697                           ;user.c: 44: ANSELCbits.ANSC6=0;
 11698  126F  0023               	movlb	3	; select bank3
 11699  1270  130E               	bcf	14,6	;volatile
 11700  1271                     l3019:	
 11701                           
 11702                           ;user.c: 45: WPUCbits.WPUC6 = 0;
 11703  1271  0024               	movlb	4	; select bank4
 11704  1272  130E               	bcf	14,6	;volatile
 11705  1273                     l3021:	
 11706                           
 11707                           ;user.c: 46: RC6PPS= 100100;
 11708  1273  3004               	movlw	4
 11709  1274  003D               	movlb	29	; select bank29
 11710  1275  00A6               	movwf	38	;volatile
 11711  1276                     l3023:	
 11712                           
 11713                           ;user.c: 50: INTCONbits.GIE=1;
 11714  1276  178B               	bsf	11,7	;volatile
 11715  1277                     l3025:	
 11716                           
 11717                           ;user.c: 51: INTCONbits.PEIE=1;
 11718  1277  170B               	bsf	11,6	;volatile
 11719  1278                     l3027:	
 11720                           
 11721                           ;user.c: 52: PIE1bits.ADIE=1;
 11722  1278  0021               	movlb	1	; select bank1
 11723  1279  1711               	bsf	17,6	;volatile
 11724  127A                     l3029:	
 11725                           
 11726                           ;user.c: 53: INTCONbits.TMR0IE=1;
 11727  127A  168B               	bsf	11,5	;volatile
 11728  127B                     l3031:	
 11729                           
 11730                           ;user.c: 57: ADCON1bits.ADCS=0b011;
 11731  127B  0029               	movlb	9	; select bank9
 11732  127C  0811               	movf	17,w	;volatile
 11733  127D  398F               	andlw	-113
 11734  127E  3830               	iorlw	48
 11735  127F  0091               	movwf	17	;volatile
 11736  1280                     l3033:	
 11737                           
 11738                           ;user.c: 58: ADCON1bits.ADPREF= 0;
 11739  1280  30FC               	movlw	-4
 11740  1281  0591               	andwf	17,f	;volatile
 11741  1282                     l3035:	
 11742                           
 11743                           ;user.c: 59: ADCON1bits.ADNREF = 0;
 11744  1282  1111               	bcf	17,2	;volatile
 11745  1283                     l3037:	
 11746                           
 11747                           ;user.c: 60: ADCON1bits.ADFM=1;
 11748  1283  1791               	bsf	17,7	;volatile
 11749  1284                     l3039:	
 11750                           
 11751                           ;user.c: 61: ADCON0bits.CHS = 0;
 11752  1284  3003               	movlw	-253
 11753  1285  0590               	andwf	16,f	;volatile
 11754  1286                     l3041:	
 11755                           
 11756                           ;user.c: 62: ADCON0bits.ADON=1;
 11757  1286  1410               	bsf	16,0	;volatile
 11758  1287                     l3043:	
 11759                           
 11760                           ;user.c: 65: OPTION_REGbits.PSA=0;
 11761  1287  0021               	movlb	1	; select bank1
 11762  1288  1197               	bcf	23,3	;volatile
 11763  1289                     l3045:	
 11764                           
 11765                           ;user.c: 66: OPTION_REGbits.T0CS=0;
 11766  1289  1297               	bcf	23,5	;volatile
 11767  128A                     l3047:	
 11768                           
 11769                           ;user.c: 67: OPTION_REGbits.PS=101;
 11770  128A  0817               	movf	23,w	;volatile
 11771  128B  39F8               	andlw	-8
 11772  128C  3805               	iorlw	5
 11773  128D  0097               	movwf	23	;volatile
 11774  128E                     l3049:	
 11775                           
 11776                           ;user.c: 72: BAUD1CONbits.BRG16= 0;
 11777  128E  0023               	movlb	3	; select bank3
 11778  128F  119F               	bcf	31,3	;volatile
 11779  1290                     l3051:	
 11780                           
 11781                           ;user.c: 73: TX1STAbits.BRGH= 0;
 11782  1290  111E               	bcf	30,2	;volatile
 11783  1291                     l3053:	
 11784                           
 11785                           ;user.c: 74: TX1STAbits.SYNC= 0;
 11786  1291  121E               	bcf	30,4	;volatile
 11787  1292                     l3055:	
 11788                           
 11789                           ;user.c: 75: SP1BRG = 25;
 11790  1292  3000               	movlw	0
 11791  1293  009C               	movwf	28	;volatile
 11792  1294  3019               	movlw	25
 11793  1295  009B               	movwf	27	;volatile
 11794  1296                     l3057:	
 11795                           
 11796                           ;user.c: 77: RC1STAbits.SPEN=1;
 11797  1296  179D               	bsf	29,7	;volatile
 11798  1297                     l3059:	
 11799                           
 11800                           ;user.c: 78: TX1STAbits.TX9=0;
 11801  1297  131E               	bcf	30,6	;volatile
 11802  1298                     l3061:	
 11803                           
 11804                           ;user.c: 79: TX1STAbits.TXEN=1;
 11805  1298  169E               	bsf	30,5	;volatile
 11806  1299                     l3063:	
 11807                           
 11808                           ;user.c: 82: RC1STAbits.CREN=1;
 11809  1299  161D               	bsf	29,4	;volatile
 11810  129A                     l119:	
 11811  129A  0008               	return
 11812  129B                     __end_of_InitApp:	
 11813                           
 11814                           	psect	text26
 11815  117B                     __ptext26:	
 11816 ;; *************** function _ConfigureOscillator *****************
 11817 ;; Defined at:
 11818 ;;		line 18 in file "system.c"
 11819 ;; Parameters:    Size  Location     Type
 11820 ;;		None
 11821 ;; Auto vars:     Size  Location     Type
 11822 ;;		None
 11823 ;; Return value:  Size  Location     Type
 11824 ;;                  1    wreg      void 
 11825 ;; Registers used:
 11826 ;;		wreg, status,2, status,0
 11827 ;; Tracked objects:
 11828 ;;		On entry : 0/0
 11829 ;;		On exit  : 0/0
 11830 ;;		Unchanged: 0/0
 11831 ;; Data sizes:     COMMON   BANK0   BANK1   BANK2   BANK3   BANK4   BANK5   BANK6   BANK7   BANK8   BANK9  BANK10  BANK1
      +1  BANK12
 11832 ;;      Params:         0       0       0       0       0       0       0       0       0       0       0       0       
      +0       0
 11833 ;;      Locals:         0       0       0       0       0       0       0       0       0       0       0       0       
      +0       0
 11834 ;;      Temps:          0       0       0       0       0       0       0       0       0       0       0       0       
      +0       0
 11835 ;;      Totals:         0       0       0       0       0       0       0       0       0       0       0       0       
      +0       0
 11836 ;;Total ram usage:        0 bytes
 11837 ;; Hardware stack levels used:    1
 11838 ;; Hardware stack levels required when called:    1
 11839 ;; This function calls:
 11840 ;;		Nothing
 11841 ;; This function is called by:
 11842 ;;		_main
 11843 ;; This function uses a non-reentrant model
 11844 ;;
 11845                           
 11846                           
 11847                           ;psect for function _ConfigureOscillator
 11848  117B                     _ConfigureOscillator:	
 11849  117B                     l2991:	
 11850                           ;incstack = 0
 11851                           ; Regs used in _ConfigureOscillator: [wreg+status,2+status,0]
 11852                           
 11853                           
 11854                           ;system.c: 21: OSCCONbits.IRCF= 1111;
 11855  117B  0021               	movlb	1	; select bank1
 11856  117C  081B               	movf	27,w	;volatile
 11857  117D  3987               	andlw	-121
 11858  117E  3838               	iorlw	56
 11859  117F  009B               	movwf	27	;volatile
 11860                           
 11861                           ;system.c: 22: OSCCONbits.SCS= 0b11;
 11862  1180  3003               	movlw	3
 11863  1181  049B               	iorwf	27,f	;volatile
 11864  1182                     l76:	
 11865  1182  0008               	return
 11866  1183                     __end_of_ConfigureOscillator:	
 11867                           
 11868                           	psect	intentry
 11869  0004                     __pintentry:	
 11870 ;; *************** function _isr *****************
 11871 ;; Defined at:
 11872 ;;		line 25 in file "interrupts.c"
 11873 ;; Parameters:    Size  Location     Type
 11874 ;;		None
 11875 ;; Auto vars:     Size  Location     Type
 11876 ;;		None
 11877 ;; Return value:  Size  Location     Type
 11878 ;;                  1    wreg      void 
 11879 ;; Registers used:
 11880 ;;		wreg, status,0
 11881 ;; Tracked objects:
 11882 ;;		On entry : 0/0
 11883 ;;		On exit  : 0/0
 11884 ;;		Unchanged: 0/0
 11885 ;; Data sizes:     COMMON   BANK0   BANK1   BANK2   BANK3   BANK4   BANK5   BANK6   BANK7   BANK8   BANK9  BANK10  BANK1
      +1  BANK12
 11886 ;;      Params:         0       0       0       0       0       0       0       0       0       0       0       0       
      +0       0
 11887 ;;      Locals:         0       0       0       0       0       0       0       0       0       0       0       0       
      +0       0
 11888 ;;      Temps:          0       0       0       0       0       0       0       0       0       0       0       0       
      +0       0
 11889 ;;      Totals:         0       0       0       0       0       0       0       0       0       0       0       0       
      +0       0
 11890 ;;Total ram usage:        0 bytes
 11891 ;; Hardware stack levels used:    1
 11892 ;; This function calls:
 11893 ;;		Nothing
 11894 ;; This function is called by:
 11895 ;;		Interrupt level 1
 11896 ;; This function uses a non-reentrant model
 11897 ;;
 11898                           
 11899  0004                     _isr:	
 11900                           
 11901                           ;incstack = 0
 11902  0004  147E               	bsf	int$flags,0	;set compiler interrupt flag (level 1)
 11903                           
 11904                           ; Regs used in _isr: [wreg+status,0]
 11905  0005  3180               	pagesel	$
 11906  0006                     i1l3419:	
 11907                           
 11908                           ;interrupts.c: 34: if (INTCONbits.TMR0IF==1){
 11909  0006  1D0B               	btfss	11,2	;volatile
 11910  0007  2809               	goto	u512_21
 11911  0008  280A               	goto	u512_20
 11912  0009                     u512_21:	
 11913  0009  281C               	goto	i1l3429
 11914  000A                     u512_20:	
 11915  000A                     i1l3421:	
 11916                           
 11917                           ;interrupts.c: 36: INTCONbits.TMR0IF=0;
 11918  000A  110B               	bcf	11,2	;volatile
 11919  000B                     i1l3423:	
 11920                           
 11921                           ;interrupts.c: 37: LATAbits.LATA1 = !PORTAbits.RA1;
 11922  000B  1003               	clrc
 11923  000C  0020               	movlb	0	; select bank0
 11924  000D  1C8C               	btfss	12,1	;volatile
 11925  000E  1403               	setc
 11926  000F  1803               	btfsc	3,0
 11927  0010  2812               	goto	u513_21
 11928  0011  2815               	goto	u513_20
 11929  0012                     u513_21:	
 11930  0012  0022               	movlb	2	; select bank2
 11931  0013  148C               	bsf	12,1	;volatile
 11932  0014  2817               	goto	u514_24
 11933  0015                     u513_20:	
 11934  0015  0022               	movlb	2	; select bank2
 11935  0016  108C               	bcf	12,1	;volatile
 11936  0017                     u514_24:	
 11937  0017                     i1l3425:	
 11938                           
 11939                           ;interrupts.c: 38: ADCON0bits.GO= 1;
 11940  0017  0029               	movlb	9	; select bank9
 11941  0018  1490               	bsf	16,1	;volatile
 11942  0019                     i1l3427:	
 11943                           
 11944                           ;interrupts.c: 39: band_aux= 1;
 11945  0019  0021               	movlb	1	; select bank1
 11946  001A  01D5               	clrf	_band_aux^(0+128)
 11947  001B  0AD5               	incf	_band_aux^(0+128),f
 11948  001C                     i1l3429:	
 11949                           
 11950                           ;interrupts.c: 40: };interrupts.c: 42: if (PIR1bits.ADIF==1){
 11951  001C  0020               	movlb	0	; select bank0
 11952  001D  1F11               	btfss	17,6	;volatile
 11953  001E  2820               	goto	u515_21
 11954  001F  2821               	goto	u515_20
 11955  0020                     u515_21:	
 11956  0020  282B               	goto	i1l23
 11957  0021                     u515_20:	
 11958  0021                     i1l3431:	
 11959                           
 11960                           ;interrupts.c: 43: AD_almacenado= ADRES;
 11961  0021  0029               	movlb	9	; select bank9
 11962  0022  080F               	movf	15,w	;volatile
 11963  0023  0021               	movlb	1	; select bank1
 11964  0024  00D7               	movwf	(_AD_almacenado+1)^(0+128)
 11965  0025  0029               	movlb	9	; select bank9
 11966  0026  080E               	movf	14,w	;volatile
 11967  0027  0021               	movlb	1	; select bank1
 11968  0028  00D6               	movwf	_AD_almacenado^(0+128)
 11969  0029                     i1l3433:	
 11970                           
 11971                           ;interrupts.c: 44: PIR1bits.ADIF=0;
 11972  0029  0020               	movlb	0	; select bank0
 11973  002A  1311               	bcf	17,6	;volatile
 11974  002B                     i1l23:	
 11975  002B  107E               	bcf	int$flags,0	;clear compiler interrupt flag (level 1)
 11976  002C  0009               	retfie
 11977  002D                     __end_of_isr:	
 11978  007E                     btemp	set	126	;btemp
 11979  007E                     int$flags	set	126
 11980  007E                     wtemp0	set	126


Data Sizes:
    Strings     15
    Constant    161
    Data        0
    BSS         36
    Persistent  32
    Stack       0

Auto Spaces:
    Space          Size  Autos    Used
    COMMON           14     14      14
    BANK0            80     76      76
    BANK1            80     45      56
    BANK2            80      0      25
    BANK3            80      0       0
    BANK4            80      0       0
    BANK5            80      0       0
    BANK6            80      0       0
    BANK7            80      0       0
    BANK8            80      0       0
    BANK9            80      0       0
    BANK10           80      0       0
    BANK11           80      0       0
    BANK12           48      0       0

Pointer List with Targets:

    sprintf@f	PTR const unsigned char  size(2) Largest target is 15
		 -> STR_1(CODE[15]), 

    sprintf@sp	PTR unsigned char  size(1) Largest target is 25
		 -> salida(BANK2[25]), 

    sprintf@ap	PTR void [1] size(1) Largest target is 2
		 -> ?_sprintf(BANK1[2]), 

    enviarTrama@datos	PTR unsigned char  size(2) Largest target is 25
		 -> salida(BANK2[25]), mensaje(CODE[17]), 


Critical Paths under _main in COMMON

    _main->___xxtofl
    _sprintf->___lldiv
    _sprintf->___xxtofl
    ___awdiv->___awmod
    _fround->___lwdiv
    ___lwdiv->___lwmod
    ___flmul->___lwdiv
    ___flmul->___xxtofl
    ___flsub->___xxtofl
    ___fldiv->___xxtofl

Critical Paths under _isr in COMMON

    None.

Critical Paths under _main in BANK0

    _main->___fladd
    _sprintf->___fladd
    _scale->___flmul
    _fround->___flmul
    ___flmul->___awdiv
    ___fltol->_scale
    ___flsub->___fladd
    ___fladd->___fldiv
    ___fldiv->___flmul

Critical Paths under _isr in BANK0

    None.

Critical Paths under _main in BANK1

    _main->_sprintf
    _sprintf->___flsub

Critical Paths under _isr in BANK1

    None.

Critical Paths under _main in BANK2

    None.

Critical Paths under _isr in BANK2

    None.

Critical Paths under _main in BANK3

    None.

Critical Paths under _isr in BANK3

    None.

Critical Paths under _main in BANK4

    None.

Critical Paths under _isr in BANK4

    None.

Critical Paths under _main in BANK5

    None.

Critical Paths under _isr in BANK5

    None.

Critical Paths under _main in BANK6

    None.

Critical Paths under _isr in BANK6

    None.

Critical Paths under _main in BANK7

    None.

Critical Paths under _isr in BANK7

    None.

Critical Paths under _main in BANK8

    None.

Critical Paths under _isr in BANK8

    None.

Critical Paths under _main in BANK9

    None.

Critical Paths under _isr in BANK9

    None.

Critical Paths under _main in BANK10

    None.

Critical Paths under _isr in BANK10

    None.

Critical Paths under _main in BANK11

    None.

Critical Paths under _isr in BANK11

    None.

Critical Paths under _main in BANK12

    None.

Critical Paths under _isr in BANK12

    None.

Call Graph Tables:

 ---------------------------------------------------------------------------------
 (Depth) Function   	        Calls       Base Space   Used Autos Params    Refs
 ---------------------------------------------------------------------------------
 (0) _main                                                 0     0      0   40339
                _ConfigureOscillator
                            _InitApp
                            ___fladd
                            ___fldiv
                            ___flmul
                           ___xxtofl
                        _enviarTrama
                            _sprintf
 ---------------------------------------------------------------------------------
 (1) _sprintf                                             44    38      6   31258
                                              8 BANK1     37    31      6
                            ___awdiv
                            ___fladd
                             ___fleq
                             ___flge
                            ___flmul
                            ___flneg
                            ___flsub
                            ___fltol
                            ___lldiv
                            ___llmod
                             ___wmul
                           ___xxtofl
                         __div_to_l_
                        __tdiv_to_l_
                             _fround
                            _isdigit
                              _scale
 ---------------------------------------------------------------------------------
 (2) _scale                                               21    17      4    7560
                                             30 BANK0     21    17      4
                            ___awdiv
                            ___awmod
                            ___flmul
 ---------------------------------------------------------------------------------
 (3) ___awmod                                              7     3      4    1208
                                              0 COMMON     7     3      4
 ---------------------------------------------------------------------------------
 (3) ___awdiv                                              9     5      4    1364
                                              7 COMMON     5     1      4
                                              0 BANK0      4     4      0
                            ___awmod (ARG)
 ---------------------------------------------------------------------------------
 (2) _isdigit                                              2     2      0      68
                                              0 COMMON     2     2      0
 ---------------------------------------------------------------------------------
 (2) _fround                                              19    15      4    6023
                                             30 BANK0     19    15      4
                            ___flmul
                            ___lwdiv
                            ___lwmod
 ---------------------------------------------------------------------------------
 (3) ___lwmod                                              6     2      4     615
                                              0 COMMON     6     2      4
 ---------------------------------------------------------------------------------
 (3) ___lwdiv                                              8     4      4     618
                                              6 COMMON     8     4      4
                            ___lwmod (ARG)
 ---------------------------------------------------------------------------------
 (3) ___flmul                                             26    18      8    4545
                                              4 BANK0     26    18      8
                          __Umul8_16
                            ___awdiv (ARG)
                            ___awmod (ARG)
                            ___lwdiv (ARG)
                            ___lwmod (ARG)
                           ___xxtofl (ARG)
 ---------------------------------------------------------------------------------
 (4) __Umul8_16                                            9     7      2     799
                                              0 COMMON     9     7      2
 ---------------------------------------------------------------------------------
 (2) __tdiv_to_l_                                         18    10      8     455
                                              0 COMMON    12     4      8
                                              0 BANK0      6     6      0
 ---------------------------------------------------------------------------------
 (2) __div_to_l_                                          15     7      8     455
                                              0 COMMON     9     1      8
                                              0 BANK0      6     6      0
 ---------------------------------------------------------------------------------
 (2) ___xxtofl                                            14    10      4     474
                                              0 COMMON    14    10      4
 ---------------------------------------------------------------------------------
 (2) ___wmul                                               6     2      4     396
                                              0 COMMON     6     2      4
 ---------------------------------------------------------------------------------
 (2) ___llmod                                             10     2      8     615
                                              0 COMMON    10     2      8
 ---------------------------------------------------------------------------------
 (2) ___lldiv                                             14     6      8     466
                                              0 COMMON    14     6      8
 ---------------------------------------------------------------------------------
 (2) ___fltol                                             11     7      4     457
                                             51 BANK0     11     7      4
                            ___flmul (ARG)
                              _scale (ARG)
 ---------------------------------------------------------------------------------
 (2) ___flsub                                              8     0      8    2637
                                              0 BANK1      8     0      8
                            ___fladd
                           ___xxtofl (ARG)
 ---------------------------------------------------------------------------------
 (3) ___fladd                                             20    12      8    2440
                                             56 BANK0     20    12      8
                            ___fldiv (ARG)
                             _fround (ARG)
 ---------------------------------------------------------------------------------
 (2) ___flneg                                              4     0      4     121
                                              0 COMMON     4     0      4
 ---------------------------------------------------------------------------------
 (2) ___flge                                              12     4      8     790
                                              0 COMMON    12     4      8
 ---------------------------------------------------------------------------------
 (2) ___fleq                                              12     4      8     394
                                              0 COMMON    12     4      8
 ---------------------------------------------------------------------------------
 (1) _enviarTrama                                          3     1      2     197
                                              0 COMMON     3     1      2
 ---------------------------------------------------------------------------------
 (1) ___fldiv                                             26    18      8    1425
                                             30 BANK0     26    18      8
                            ___flmul (ARG)
                           ___xxtofl (ARG)
 ---------------------------------------------------------------------------------
 (1) _InitApp                                              0     0      0       0
 ---------------------------------------------------------------------------------
 (1) _ConfigureOscillator                                  0     0      0       0
 ---------------------------------------------------------------------------------
 Estimated maximum stack depth 4
 ---------------------------------------------------------------------------------
 (Depth) Function   	        Calls       Base Space   Used Autos Params    Refs
 ---------------------------------------------------------------------------------
 (5) _isr                                                  0     0      0       0
 ---------------------------------------------------------------------------------
 Estimated maximum stack depth 5
 ---------------------------------------------------------------------------------

 Call Graph Graphs:

 _main (ROOT)
   _ConfigureOscillator
   _InitApp
   ___fladd
     ___fldiv (ARG)
       ___flmul (ARG)
         __Umul8_16
         ___awdiv (ARG)
           ___awmod (ARG)
         ___awmod (ARG)
         ___lwdiv (ARG)
           ___lwmod (ARG)
         ___lwmod (ARG)
         ___xxtofl (ARG)
       ___xxtofl (ARG)
     _fround (ARG)
       ___flmul
         __Umul8_16
         ___awdiv (ARG)
           ___awmod (ARG)
         ___awmod (ARG)
         ___lwdiv (ARG)
           ___lwmod (ARG)
         ___lwmod (ARG)
         ___xxtofl (ARG)
       ___lwdiv
         ___lwmod (ARG)
       ___lwmod
   ___fldiv
     ___flmul (ARG)
       __Umul8_16
       ___awdiv (ARG)
         ___awmod (ARG)
       ___awmod (ARG)
       ___lwdiv (ARG)
         ___lwmod (ARG)
       ___lwmod (ARG)
       ___xxtofl (ARG)
     ___xxtofl (ARG)
   ___flmul
     __Umul8_16
     ___awdiv (ARG)
       ___awmod (ARG)
     ___awmod (ARG)
     ___lwdiv (ARG)
       ___lwmod (ARG)
     ___lwmod (ARG)
     ___xxtofl (ARG)
   ___xxtofl
   _enviarTrama
   _sprintf
     ___awdiv
       ___awmod (ARG)
     ___fladd
       ___fldiv (ARG)
         ___flmul (ARG)
           __Umul8_16
           ___awdiv (ARG)
             ___awmod (ARG)
           ___awmod (ARG)
           ___lwdiv (ARG)
             ___lwmod (ARG)
           ___lwmod (ARG)
           ___xxtofl (ARG)
         ___xxtofl (ARG)
       _fround (ARG)
         ___flmul
           __Umul8_16
           ___awdiv (ARG)
             ___awmod (ARG)
           ___awmod (ARG)
           ___lwdiv (ARG)
             ___lwmod (ARG)
           ___lwmod (ARG)
           ___xxtofl (ARG)
         ___lwdiv
           ___lwmod (ARG)
         ___lwmod
     ___fleq
     ___flge
     ___flmul
       __Umul8_16
       ___awdiv (ARG)
         ___awmod (ARG)
       ___awmod (ARG)
       ___lwdiv (ARG)
         ___lwmod (ARG)
       ___lwmod (ARG)
       ___xxtofl (ARG)
     ___flneg
     ___flsub
       ___fladd
         ___fldiv (ARG)
           ___flmul (ARG)
             __Umul8_16
             ___awdiv (ARG)
               ___awmod (ARG)
             ___awmod (ARG)
             ___lwdiv (ARG)
               ___lwmod (ARG)
             ___lwmod (ARG)
             ___xxtofl (ARG)
           ___xxtofl (ARG)
         _fround (ARG)
           ___flmul
             __Umul8_16
             ___awdiv (ARG)
               ___awmod (ARG)
             ___awmod (ARG)
             ___lwdiv (ARG)
               ___lwmod (ARG)
             ___lwmod (ARG)
             ___xxtofl (ARG)
           ___lwdiv
             ___lwmod (ARG)
           ___lwmod
       ___xxtofl (ARG)
     ___fltol
       ___flmul (ARG)
         __Umul8_16
         ___awdiv (ARG)
           ___awmod (ARG)
         ___awmod (ARG)
         ___lwdiv (ARG)
           ___lwmod (ARG)
         ___lwmod (ARG)
         ___xxtofl (ARG)
       _scale (ARG)
         ___awdiv
           ___awmod (ARG)
         ___awmod
         ___flmul
           __Umul8_16
           ___awdiv (ARG)
             ___awmod (ARG)
           ___awmod (ARG)
           ___lwdiv (ARG)
             ___lwmod (ARG)
           ___lwmod (ARG)
           ___xxtofl (ARG)
     ___lldiv
     ___llmod
     ___wmul
     ___xxtofl
     __div_to_l_
     __tdiv_to_l_
     _fround
       ___flmul
         __Umul8_16
         ___awdiv (ARG)
           ___awmod (ARG)
         ___awmod (ARG)
         ___lwdiv (ARG)
           ___lwmod (ARG)
         ___lwmod (ARG)
         ___xxtofl (ARG)
       ___lwdiv
         ___lwmod (ARG)
       ___lwmod
     _isdigit
     _scale
       ___awdiv
         ___awmod (ARG)
       ___awmod
       ___flmul
         __Umul8_16
         ___awdiv (ARG)
           ___awmod (ARG)
         ___awmod (ARG)
         ___lwdiv (ARG)
           ___lwmod (ARG)
         ___lwmod (ARG)
         ___xxtofl (ARG)

 _isr (ROOT)

 Address spaces:
Name               Size   Autos  Total    Cost      Usage
BIGRAM             3F0      0       0       0        0.0%
NULL                 0      0       0       0        0.0%
CODE                 0      0       0       0        0.0%
BITCOMMON            E      0       0       1        0.0%
BITSFR0              0      0       0       1        0.0%
SFR0                 0      0       0       1        0.0%
COMMON               E      E       E       2      100.0%
BITSFR1              0      0       0       2        0.0%
SFR1                 0      0       0       2        0.0%
BITSFR2              0      0       0       3        0.0%
SFR2                 0      0       0       3        0.0%
STACK                0      0       0       3        0.0%
BITBANK0            50      0       0       4        0.0%
BITSFR3              0      0       0       4        0.0%
SFR3                 0      0       0       4        0.0%
BANK0               50     4C      4C       5       95.0%
BITSFR4              0      0       0       5        0.0%
SFR4                 0      0       0       5        0.0%
BITBANK1            50      0       0       6        0.0%
BITSFR5              0      0       0       6        0.0%
SFR5                 0      0       0       6        0.0%
BANK1               50     2D      38       7       70.0%
BITSFR6              0      0       0       7        0.0%
SFR6                 0      0       0       7        0.0%
BITBANK2            50      0       0       8        0.0%
BITSFR7              0      0       0       8        0.0%
SFR7                 0      0       0       8        0.0%
BANK2               50      0      19       9       31.3%
BITSFR8              0      0       0       9        0.0%
SFR8                 0      0       0       9        0.0%
BITBANK3            50      0       0      10        0.0%
BITSFR9              0      0       0      10        0.0%
SFR9                 0      0       0      10        0.0%
BANK3               50      0       0      11        0.0%
BITSFR10             0      0       0      11        0.0%
SFR10                0      0       0      11        0.0%
BITBANK4            50      0       0      12        0.0%
BITSFR11             0      0       0      12        0.0%
SFR11                0      0       0      12        0.0%
BANK4               50      0       0      13        0.0%
BITSFR12             0      0       0      13        0.0%
SFR12                0      0       0      13        0.0%
BITBANK5            50      0       0      14        0.0%
BITSFR13             0      0       0      14        0.0%
SFR13                0      0       0      14        0.0%
BANK5               50      0       0      15        0.0%
BITSFR14             0      0       0      15        0.0%
SFR14                0      0       0      15        0.0%
BITBANK6            50      0       0      16        0.0%
BITSFR15             0      0       0      16        0.0%
SFR15                0      0       0      16        0.0%
BANK6               50      0       0      17        0.0%
BITSFR16             0      0       0      17        0.0%
SFR16                0      0       0      17        0.0%
BITBANK7            50      0       0      18        0.0%
BITSFR17             0      0       0      18        0.0%
SFR17                0      0       0      18        0.0%
BANK7               50      0       0      19        0.0%
BITSFR18             0      0       0      19        0.0%
SFR18                0      0       0      19        0.0%
BITSFR19             0      0       0      20        0.0%
SFR19                0      0       0      20        0.0%
ABS                  0      0      AB      20        0.0%
BITBANK8            50      0       0      21        0.0%
BITSFR20             0      0       0      21        0.0%
SFR20                0      0       0      21        0.0%
BANK8               50      0       0      22        0.0%
BITSFR21             0      0       0      22        0.0%
SFR21                0      0       0      22        0.0%
BITBANK9            50      0       0      23        0.0%
BITSFR22             0      0       0      23        0.0%
SFR22                0      0       0      23        0.0%
BANK9               50      0       0      24        0.0%
BITSFR23             0      0       0      24        0.0%
SFR23                0      0       0      24        0.0%
BITBANK10           50      0       0      25        0.0%
BITSFR24             0      0       0      25        0.0%
SFR24                0      0       0      25        0.0%
BANK10              50      0       0      26        0.0%
BITSFR25             0      0       0      26        0.0%
SFR25                0      0       0      26        0.0%
BITBANK11           50      0       0      27        0.0%
BITSFR26             0      0       0      27        0.0%
SFR26                0      0       0      27        0.0%
BANK11              50      0       0      28        0.0%
BITSFR27             0      0       0      28        0.0%
SFR27                0      0       0      28        0.0%
BITBANK12           30      0       0      29        0.0%
BITSFR28             0      0       0      29        0.0%
SFR28                0      0       0      29        0.0%
BANK12              30      0       0      30        0.0%
BITSFR29             0      0       0      30        0.0%
SFR29                0      0       0      30        0.0%
BITSFR30             0      0       0      31        0.0%
SFR30                0      0       0      31        0.0%
DATA                 0      0      AB      31        0.0%
BITSFR31             0      0       0      32        0.0%
SFR31                0      0       0      32        0.0%


Microchip Technology PIC Macro Assembler V2.10 build 88905656 
Symbol Table                                                                                   Fri Nov 29 00:22:09 2019

                ___fldiv@aexp 0057                  ___fldiv@bexp 0056                  ___fldiv@sign 004F  
                 __CFG_CP$OFF 0000                            l61 07DA                            l71 07F8  
                          l65 07EE                            l76 1182                            l68 07F4  
                ___awdiv@sign 0021           ___wmul@multiplicand 0072           __Umul8_16@word_mpld 0076  
                         l210 07D1                           l203 09BC                           l119 129A  
                         l235 01E1                           l316 13DF                           l501 1710  
                         l229 00A6                           l270 050C                           l262 03F5  
                         l280 11AA                           l433 143F                           l282 11BE  
                         l450 1699                           l611 0C70                           l451 160C  
                         l620 0DA8                           l508 173C                           l276 0555  
                         l613 0C4C                           l461 168C                           l454 1660  
                         l446 1385                           l471 14D1                           l607 0BCF  
                         l703 0FFF                           l632 0D24                           l536 12E4  
                         l641 0D7D                           l466 1301                           l474 1525  
                         l650 0DA8                           l490 149F                           l467 131D  
                         l475 153E                           l483 14B4                           l715 0FF3  
                         l468 1332                           l628 0D02                           l653 1217  
                         l493 14B4                           l741 1561                           l709 0F7B  
                         l638 0D46                           l663 0A14                           l479 118D  
                         l743 15EA                           l665 0B70                           l649 0D9F  
                         l497 1749                           l761 119F                           l754 15B6  
                         l498 16C7                           l586 1253                           l755 15C2  
                         l747 159C                           l771 11E1                           l684 0B3E  
                         l596 0834                           l685 0B58                           l687 0B67  
                         l679 0AF2                           l769 11D1                           _isr 0004  
                ___awmod@sign 0076                  __CFG_BORV$LO 0000                           wreg 0009  
                ___flmul@aexp 0036                  ___flmul@bexp 0037                  ___flmul@sign 0031  
                ___flmul@temp 003C                  ___flmul@prod 0038                  _BAUD1CONbits 019F  
                __CFG_LVP$OFF 0000                  __CFG_ZCD$OFF 0000                  ___fltol@exp1 005D  
                        l3001 125E                          l2201 1426                          l3011 1268  
                        l3003 1260                          l2203 142B                          l3021 1273  
                        l3013 126A                          l3005 1262                          l2301 0B77  
                        l2205 1431                          l2221 133F                          l2213 1333  
                        l3101 0095                          l3031 127B                          l3023 1276  
                        l3015 126D                          l3007 1264                          l2311 0B8A  
                        l2303 0B7B                          l2207 1436                          l2231 1356  
                        l2223 1343                          l2215 1334                          l3111 00BD  
                        l3103 00A2                          l3041 1286                          l3033 1280  
                        l3025 1277                          l3017 126F                          l3009 1266  
                        l2321 0BA2                          l2313 0B92                          l2305 0B7F  
                        l2161 11CD                          l2209 143B                          l2241 1371  
                        l2233 135A                          l2225 1348                          l2217 1338  
                        l3201 0367                          l3121 00E0                          l3113 00C9  
                        l3105 00A4                          l3051 1290                          l3043 1287  
                        l3035 1282                          l3027 1278                          l3019 1271  
                        l2411 0C98                          l2403 0C82                          l2331 0BB2  
                        l2323 0BA8                          l2315 0B93                          l2307 0B80  
                        l2163 11D8                          l2155 11C0                          l2251 1218  
                        l2171 13E2                          l2235 135E                          l2227 134E  
                        l2243 1377                          l2219 133D                          l3211 03BE  
                        l3203 0390                          l3131 012A                          l3123 00F7  
                        l3115 00CD                          l3061 1298                          l3053 1291  
                        l3045 1289                          l3037 1283                          l3029 127A  
                        l3301 09EE                          l2413 0C9A                          l2405 0C8A  
                        l2421 0CAC                          l2333 0BB7                          l2341 0BC7  
                        l2325 0BA9                          l2309 0B85                          l2317 0B95  
                        l2165 11DD                          l2157 11C2                          l2501 0DB8  
                        l2261 122C                          l2253 121A                          l2181 13F6  
                        l2173 13E6                          l2245 137C                          l2237 1368  
                        l2229 1351                          l3221 03EA                          l3213 03C7  
                        l3205 03AC                          l3141 015C                          l3133 0134  
                        l3125 010C                          l3117 00D1                          l3109 00A8  
                        l3063 1299                          l3055 1292                          l3047 128A  
                        l3039 1284                          l3311 0A01                          l3303 09F2  
                        l3071 07E2                          l2423 0CC2                          l2431 0CFA  
                        l2415 0C9E                          l2407 0C8E                          l2351 0BE5  
                        l2343 0BD5                          l2335 0BBC                          l2327 0BAD  
                        l2319 0B9D                          l2159 11C9                          l2511 0DD4  
                        l2503 0DBD                          l2271 1249                          l2263 1230  
                        l2255 1220                          l2191 140A                          l2183 13FA  
                        l2175 13EB                          l2247 1381                          l2239 136C  
                        l3231 040D                          l3223 03F0                          l3215 03CB  
                        l3151 01C4                          l3143 0160                          l3135 0138  
                        l3127 0110                          l3119 00DC                          l3057 1296  
                        l3049 128E                          l3401 0B31                          l3321 0A28  
                        l3313 0A09                          l3305 09F6                          l3073 07EB  
                        l3065 07D2                          l2441 0D1F                          l2433 0D0A  
                        l2425 0CE6                          l2417 0C9F                          l2409 0C92  
                        l2361 0BF9                          l2353 0BE9                          l2345 0BD9  
                        l2337 0BC4                          l2329 0BB1                          l2601 0F80  
                        l2521 0DE7                          l2513 0DD9                          l2505 0DC2  
                        l2265 123F                          l2257 1223                          l2273 124F  
                        l2281 080A                          l2193 140E                          l2185 13FC  
                        l2177 13ED                          l2169 13E0                          l3241 04AE  
                        l3233 0421                          l3225 03FC                          l3217 03CF  
                        l3209 03B6                          l3161 0246                          l3153 01DC  
                        l3145 0175                          l3137 0148                          l3129 0113  
                        l3081 0050                          l3059 1297                          l3411 0B61  
                        l3403 0B4C                          l3323 0A2C                          l3315 0A0A  
                        l3307 09F7                          l3075 07F2                          l3067 07D3  
                        l2451 0D32                          l2443 0D23                          l2435 0D0F  
                        l2427 0CEC                          l2419 0CA7                          l2371 0C0D  
                        l2363 0BFD                          l2355 0BED                          l2347 0BDD  
                        l2339 0BC5                          l2603 0F85                          l2611 0FAD  
                        l2531 0E03                          l2523 0DEC                          l2515 0DDD  
                        l2507 0DCA                          l2267 1243                          l2259 1228  
                        l2291 0825                          l2283 080F                          l2195 1412  
                        l2187 1402                          l2179 13F1                          l3251 04EF  
                        l3243 04B2                          l3235 0460                          l3227 0401  
                        l3219 03DC                          l3171 0293                          l3163 0262  
                        l3155 01EF                          l3147 01A7                          l3139 0158  
                        l3091 006A                          l3083 0058                          l3413 0B63  
                        l3405 0B4F                          l3341 0A6B                          l3333 0A43  
                        l3309 09FC                          l3317 0A0C                          l3069 07DE  
                        l2461 0D43                          l2445 0D28                          l2453 0D34  
                        l2429 0CF1                          l2381 0C31                          l2373 0C11  
                        l2365 0C01                          l2357 0BF1                          l2349 0BE1  
                        l2621 0FDD                          l2613 0FBA                          l2605 0F8D  
                        l2541 0E2B                          l2533 0E08                          l2525 0DF4  
                        l2517 0DE1                          l2509 0DCC                          l2269 1244  
                        l2293 082A                          l2285 0813                          l2277 0801  
                        l2197 1421                          l2189 1405                          l3261 0517  
                        l3253 04F3                          l3237 0489                          l3245 04DB  
                        l3229 0409                          l3181 0318                          l3173 02A7  
                        l3165 0270                          l3157 0220                          l3149 01BE  
                        l3093 006E                          l3085 005D                          l3077 0045  
                        l3407 0B57                          l3351 0A85                          l3343 0A6D  
                        l3335 0A53                          l3319 0A1C                          l3327 0A35  
                        l2471 0D5C                          l2447 0D2B                          l2439 0D18  
                        l2455 0D38                          l2391 0C5D                          l2383 0C50  
                        l2375 0C15                          l2367 0C05                          l2359 0BF5  
                        l2703 169A                          l2623 0FEA                          l2615 0FC4  
                        l2607 0F91                          l2551 0E86                          l2543 0E45  
                        l2527 0DF6                          l2519 0DE2                          l2287 0817  
                        l2279 0807                          l2295 0830                          l2199 1425  
                        l3263 0518                          l3247 04E3                          l3239 04A5  
                        l3183 031A                          l3167 0288                          l3159 022E  
                        l3255 04FA                          l3095 0071                          l3087 005F  
                        l3079 004A                          l3409 0B5D                          l3345 0A72  
                        l3353 0A8C                          l3361 0AAB                          l3337 0A5B  
                        l3329 0A3A                          l3281 09C3                          l2481 0D94  
                        l2473 0D79                          l2465 0D4B                          l2457 0D39  
                        l2449 0D2D                          l2393 0C65                          l2385 0C56  
                        l2369 0C09                          l2377 0C19                          l2801 1683  
                        l2721 16DF                          l2705 16AC                          l2625 0FEE  
                        l2617 0FD2                          l2609 0FA9                          l2561 0EB5  
                        l2553 0E8D                          l2545 0E52                          l2537 0E11  
                        l2529 0DFE                          l2289 0821                          l2641 0906  
                        l2633 0837                          l3265 0526                          l3257 0500  
                        l3249 04EB                          l3193 0344                          l3177 02C3  
                        l3169 028E                          l3097 0082                          l3089 0069  
                        l3273 053C                          l3441 17DD                          l3371 0AC6  
                        l3363 0AB1                          l3355 0A9E                          l3347 0A80  
                        l3339 0A63                          l3291 09D6                          l3283 09C7  
                        l2491 0DA7                          l2483 0D95                          l2475 0D82  
                        l2467 0D50                          l2459 0D3D                          l2387 0C58  
                        l2395 0C69                          l2379 0C1A                          l2299 0B71  
                        l2811 11A6                          l2803 1691                          l2731 1704  
                        l2723 16E8                          l2715 16C8                          l2627 0FEF  
                        l2619 0FDB                          l2571 0F05                          l2563 0EC9  
                        l2555 0E9A                          l2547 0E6C                          l2539 0E1E  
                        l2643 090C                          l2635 083D                          l2651 0558  
                        l3267 0526                          l3259 0508                          l3195 034E  
                        l3179 02CC                          l3275 0550                          l3099 0091  
                        l3443 17DE                          l3435 174A                          l3381 0AD7  
                        l3373 0AC7                          l3365 0AB9                          l3357 0A9F  
                        l3349 0A84                          l3293 09DE                          l3285 09CB  
                        l2485 0D99                          l2477 0D87                          l2469 0D58  
                        l2397 0C74                          l2389 0C5C                          l2901 1477  
                        l2821 1386                          l2813 11AF                          l2741 171C  
                        l2733 170A                          l2725 16EF                          l2717 16CE  
                        l2709 16B5                          l2629 0FF7                          l2581 0F4B  
                        l2573 0F1A                          l2565 0ED0                          l2557 0EA1  
                        l2549 0E79                          l2493 0DA9                          l2653 055C  
                        l3269 0533                          l3197 035A                          l3189 031C  
                        l3445 17E5                          l3437 1750                          l3391 0AFC  
                        l3383 0ADB                          l3375 0ACE                          l3367 0ABB  
                        l3359 0AA7                          l3295 09DF                          l3287 09CC  
                        l3279 09BD                          l2487 0D9B                          l2479 0D8F  
                        l2399 0C79                          l2831 13AF                          l2823 1396  
                        l2815 11B4                          l2807 11A0                          l2751 1741  
                        l2735 1714                          l2743 172C                          l2727 16FD  
                        l2719 16DD                          l2591 0F5F                          l2583 0F4F  
                        l2575 0F31                          l2567 0EE4                          l2559 0EAE  
                        l2495 0DAF                          l2647 098B                          l2663 0611  
                        l2655 055E                          l3199 0362                          l3447 17F6  
                        l3439 1756                          l3393 0B04                          l3385 0AEF  
                        l3369 0AC2                          l3377 0AD2                          l3289 09D1  
                        l3297 09E1                          l2489 0DA3                          l2833 13C1  
                        l2825 1399                          l2841 13D7                          l2921 129B  
                        l2817 11BA                          l2809 11A2                          l2761 1600  
                        l2729 1703                          l2593 0F60                          l2585 0F50  
                        l2577 0F38                          l2569 0EF1                          l2497 0DB3  
                        l2681 074B                          l2665 0618                          l2657 0565  
                        l2673 0698                          l3395 0B08                          l3379 0AD6  
                        l3299 09E9                          l2851 132F                          l2915 1496  
                        l2907 147F                          l2835 13C9                          l2827 13A4  
                        l2931 12C7                          l2923 12A3                          l2771 1626  
                        l2755 15EB                          l2595 0F64                          l2587 0F57  
                        l2579 0F44                          l2499 0DB7                          l2691 118F  
                        l2683 0752                          l2675 069F                          l3397 0B20  
                        l3389 0AF7                          l2853 1331                          l2845 12E5  
                        l2861 14E5                          l2941 11E2                          l2917 14A4  
                        l2909 148F                          l2837 13CA                          l2829 13A8  
                        l2933 12CF                          l2925 12A6                          l2781 1652  
                        l2773 1628                          l2757 15F7                          l2749 1733  
                        l2597 0F78                          l2589 0F5B                          l2693 1190  
                        l2669 067A                          l3399 0B24                          l2847 12F9  
                        l2871 153B                          l2863 14ED                          l2943 11E5  
                        l2919 14A9                          l2839 13D1                          l2935 12D6  
                        l2927 12B1                          l2951 1549                          l2783 1653  
                        l2775 1631                          l2767 160D                          l2695 1196  
                        l2687 07B4                          l2849 1315                          l2873 153D  
                        l2865 14F1                          l2857 14B5                          l2881 118D  
                        l2929 12B5                          l2937 12DC                          l2961 1577  
                        l2953 1559                          l2793 166C                          l2785 165A  
                        l2777 1638                          l2769 1615                          l2697 119C  
                        l2867 1509                          l2859 14C9                          l2891 1455  
                        l2971 15A3                          l2963 1582                          l2955 1569  
                        l2947 1540                          l2787 1664                          l2795 167C  
                        l2779 164A                          l2699 119E                          l2869 150D  
                        l2877 1183                          l2893 1468                          l2885 1440  
                        l2981 15D8                          l2973 15AC                          l2965 1589  
                        l2949 1545                          l2991 117B                          l2879 118B  
                        l2895 1469                          l2887 144C                          l2983 15DD  
                        l2975 15B0                          l2967 158D                          l2959 1572  
                        l2993 1254                          l2897 1471                          l2985 15E1  
                        l2977 15BA                          l2969 1595                          l2995 1258  
                        l2899 1473                          l2987 15E2                          l2979 15C4  
                        l2997 125A                          l2999 125C                          ?_isr 0070  
                        STR_1 18A1                          u3000 0BBC                          u3001 0BBB  
                        u3010 0BD5                          u3011 0BD4                          u3100 0C74  
                        u3020 0BD9                          u3101 0C73                          u3021 0BD8  
                        _LATA 010C                          u3110 0C79                          u3030 0C31  
                        _LATB 010D                          u3111 0C78                          u3031 0C30  
                        _LATC 010E                          u3120 0C8E                          u3040 0C3B  
                        u3121 0C8D                          u3041 0C39                          u3210 0D23  
                        u3130 0C92                          u3050 0C3C                          u4010 11BA  
                        u3211 0D22                          u3131 0C91                          u3035 0C2D  
                        u4011 11B9                          u4100 1315                          u3300 0D6A  
                        u3220 0D28                          u3140 0C9E                          u3060 0C50  
                        u4020 1396                          u4101 1314                          u3221 0D27  
                        u3205 0D19                          u3141 0C9D                          u3061 0C4F  
                        u4021 1395                          u4005 11B0                          u4110 132F  
                        u3310 0D79                          u3230 0D32                          u3070 0C5C  
                        u4111 132E                          u3311 0D78                          u3231 0D31  
                        u3071 0C5B                          u5000 0AC6                          u4120 14C9  
                        u3320 0D82                          u3240 0D38                          u3160 0CC2  
                        u4200 1477                          u4040 13A8                          u3400 0DE1  
                        u5001 0AC5                          u4121 14C8                          u3321 0D81  
                        u3305 0D66                          u3241 0D37                          u3161 0CC1  
                        u4201 1476                          u4041 13A7                          u3401 0DE0  
                        u4130 14E5                          u3330 0D87                          u3250 0D3D  
                        u3170 0CF1                          u3090 0C70                          u4210 147E  
                        u2610 11DD                          u3410 0DE7                          u4115 132B  
                        u4131 14E4                          u3331 0D86                          u3251 0D3C  
                        u3171 0CF0                          u3163 0CBE                          u3155 0CA1  
                        u3091 0C6F                          u4211 147D                          u4035 139A  
                        u2611 11DC                          u3411 0DE6                          u5100 0B4C  
                        u5020 0AD6                          u4140 14F1                          u3340 0D94  
                        u3260 0D43                          u3180 0D0A                          u4060 13C1  
                        u4300 12B5                          u3420 0DEC                          u2700 1431  
                        u2620 13E6                          u5101 0B4B                          u5021 0AD5  
                        u4141 14F0                          u3341 0D93                          u3261 0D42  
                        u3181 0D09                          u3085 0C5F                          u4061 13C0  
                        u4301 12B4                          u2605 11D2                          u3421 0DEB  
                        u2701 1430                          u2621 13E5                          u5110 0B61  
                        u5030 0ADB                          u4150 150D                          u3350 0D99  
                        u3270 0D4A                          u3190 0D0F                          u4230 148E  
                        u4310 12C7                          u3510 0F4F                          u3430 0E03  
                        u2710 1436                          u2630 13F1                          u5111 0B60  
                        u5031 0ADA                          u5015 0AC8                          u4151 150C  
                        u3351 0D98                          u3271 0D49                          u3191 0D0E  
                        u4231 148D                          u4055 13A9                          u4311 12C6  
                        u3511 0F4E                          u3431 0E02                          u2711 1435  
                        u2631 13F0                          u5040 0AEF                          u4160 153B  
                        u3360 0DA7                          u3280 0D50                          u4240 1495  
                        u4080 13D7                          u4400 15A2                          u3600 0FBA  
                        u3440 0E08                          u2640 1402                          u2800 137C  
                        u2720 1338                          u5105 0B48                          u5041 0AEE  
                        u4161 153A                          u3361 0DA6                          u3281 0D4F  
                        u4241 1494                          u4225 1480                          u4081 13D6  
                        u4065 13BD                          u4401 15A1                          u3601 0FB9  
                        u3505 0F45                          u3441 0E07                          u2641 1401  
                        u2801 137B                          u2721 1337                          u5050 0AF6  
                        u4090 12F9                          u4170 118B                          u3290 0D5C  
                        u4330 12DC                          u3610 0FD2                          u3530 0F5F  
                        u3370 0DB7                          u2810 1220                          u2730 1343  
                        u5051 0AF5                          u4091 12F8                          u4171 118A  
                        u3291 0D5B                          u4075 13CB                          u4331 12DB  
                        u4315 12C3                          u3611 0FD1                          u3531 0F5E  
                        u3371 0DB6                          u2811 121F                          u2731 1342  
                        u5060 0AFC                          u4500 07F2                          u4260 14A4  
                        u4180 144C                          u4420 15B0                          u4340 1545  
                        u3620 0FEE                          u3540 0F64                          u3380 0DBD  
                        u2900 0817                          u3700 1196                          u2660 1412  
                        u2740 134E                          u5061 0AFB                          u4501 07F1  
                        u4165 1537                          u4261 14A3                          u4181 144B  
                        u4325 12D0                          u4421 15AF                          u4341 1544  
                        u3621 0FED                          u3605 0FB6                          u3541 0F63  
                        u3525 0F51                          u3381 0DBC                          u2901 0816  
                        u3701 1195                          u2661 1411                          u2741 134D  
                        u5070 0B08                          u4510 07F8                          u4270 14A9  
                        u4190 1462                          u4430 15B6                          u4350 1549  
                        u2590 11CD                          u3550 0F78                          u3470 0F10  
                        u3390 0DC2                          u2830 1230                          u2910 0821  
                        u3630 083D                          u3710 119C                          u5071 0B07  
                        u4511 07F7                          u4271 14A8                          u4255 1497  
                        u4431 15B5                          u4415 15A6                          u4351 1548  
                        u2591 11CC                          u3615 0FCE                          u3551 0F77  
                        u3455 0E87                          u3391 0DC1                          u2831 122F  
                        u2911 0820                          u3631 083C                          u3711 119B  
                        u2655 1406                          u5080 0B16                          u4280 12A3  
                        u4440 15BA                          u4360 1569                          u3720 16AC  
                        u3560 0F7F                          u3480 0F27                          u3640 090C  
                        u2680 1421                          u2760 135E                          u4600 01BE  
                        u4520 0050                          u5160 1756                          u4281 12A2  
                        u4441 15B9                          u4361 1568                          u3721 16AB  
                        u3561 0F7E                          u3465 0EB6                          u2825 1224  
                        u3641 090B                          u2681 1420                          u2761 135D  
                        u4601 01BD                          u4521 004F                          u5161 1755  
                        u5090 0B31                          u4450 15CE                          u3810 172B  
                        u3730 16C6                          u3570 0F85                          u2850 123F  
                        u2930 0830                          u2770 1368                          u3650 055C  
                        u4610 01DC                          u4530 0069                          u5091 0B30  
                        u4195 145E                          u3811 172A                          u3731 16C5  
                        u3571 0F84                          u3475 0F0C                          u2851 123E  
                        u2931 082F                          u2915 081D                          u2675 1413  
                        u2771 1367                          u2755 1352                          u3651 055B  
                        u4611 01DB                          u4531 0068                          u2940 0B7F  
                        u4460 15DD                          u4380 1588                          u3900 1660  
                        u3820 1732                          u3580 0F91                          u3660 0565  
                        u4700 035A                          u4620 01EF                          u4540 00A1  
                        u5085 0B12                          u2941 0B7E                          u4461 15DC  
                        u4381 1587                          u3901 165F                          u3821 1731  
                        u3805 171D                          u3581 0F90                          u3485 0F23  
                        u2845 1231                          u2925 0826                          u2685 141D  
                        u3661 0564                          u4701 0359                          u4621 01EE  
                        u4541 00A0                          u2950 0B85                          u4470 15E1  
                        u3910 1664                          u3750 16FD                          u3590 0F9F  
                        u2870 124F                          u2790 1377                          u3670 0618  
                        u4710 03BD                          u4630 022E                          u4550 00C9  
                        i1l23 002B                          u5095 0B2D                          u2951 0B84  
                        u4295 12A7                          u4471 15E0                          u4455 15CA  
                        u4375 157C                          u3911 1663                          u3751 16FC  
                        u3495 0F32                          u2871 124E                          u2855 123B  
                        u2695 1427                          u2791 1376                          u2775 1364  
                        u3671 0617                          u4711 03BC                          u4631 022D  
                        u4551 00C8                          u4480 07DE                          u2960 0B8A  
                        u3920 166B                          u3840 1741                          u2880 0807  
                        u3680 069F                          u4800 0526                          u4720 03DC  
                        u4640 0246                          u4560 00CD                          u4481 07DD  
                        u2961 0B89                          u3921 166A                          u3841 1740  
                        u3745 16E9                          u2865 1245                          u2881 0806  
                        u2785 136D                          u3681 069E                          u4801 0525  
                        u4721 03DB                          u4641 0245                          u4625 01EB  
                        u4561 00CC                          u4490 07EB                          u2970 0BA8  
                        u3850 15F7                          u3770 1710                          u3690 0752  
                        u4810 0533                          u4730 03EA                          u4650 0262  
                        u4570 00F7                          u4491 07EA                          u2971 0BA7  
                        u4395 1596                          u3851 15F6                          u3835 1734  
                        u3771 170F                          u3755 16F9                          u3595 0F9B  
                        u3691 0751                          u4811 0532                          u4731 03E9  
                        u4651 0261                          u4635 022A                          u4571 00F6  
                        u4900 0A3A                          u2980 0BB1                          u3940 167B  
                        u3860 160B                          u3780 1714                          u4820 0550  
                        u4740 0401                          u4660 0270                          u4580 012A  
                        u4901 0A39                          u2981 0BB0                          u3941 167A  
                        u3861 160A                          u3781 1713                          u3765 1705  
                        u4821 054F                          u4805 0522                          u4741 0400  
                        u4725 03D8                          u4661 026F                          u4581 0129  
                        u4910 0A72                          u4830 09CB                          u2990 0BB7  
                        u3950 1682                          u3790 171B                          u4750 04E2  
                        u4670 0288                          u4590 015C                          u4911 0A71  
                        u4831 09CA                          u2991 0BB6                          u3951 1681  
                        u3935 166D                          u3791 171A                          u2895 080B  
                        u4751 04E1                          u4735 03E6                          u4671 0287  
                        u4591 015B                          u4840 09D1                          u3880 164A  
                        u4760 04F9                          u4680 0343                          u4841 09D0  
                        u3881 1649                          u4761 04F8                          u4681 0342  
                        u4665 026C                          u4850 09D6                          u3970 1691  
                        u4770 0500                          u4690 034E                          u4851 09D5  
                        u3971 1690                          u3875 1632                          u4771 04FF  
                        u4691 034D                          u4940 0A84                          u4860 09F6  
                        u3980 11A6                          u4780 0508                          u4941 0A83  
                        u4925 0A73                          u4861 09F5                          u3981 11A5  
                        u3965 1684                          u3885 1646                          u4781 0507  
                        u4685 033F                          u4870 09FC                          u4790 0517  
                        u4935 0A7A                          u4871 09FB                          u3895 1654  
                        u4791 0516                          u4960 0A9E                          u4880 0A01  
                        u4961 0A9D                          u4881 0A00                          u4970 0AB1  
                        u4890 0A1C                          u4971 0AB0                          u4955 0A86  
                        u4891 0A1B                          u3995 11AB                          u4795 0513  
                        u4980 0AB9                          u4981 0AB8                          u4965 0A9A  
                        u4995 0ABC                  __CFG_WRT$OFF 0000                          _main 174A  
                        _temp 00CD                          fsr0h 0005                          fsr1h 0007  
                        indf0 0000                          fsr0l 0004                          indf1 0001  
                        fsr1l 0006                          btemp 007E                  ?_enviarTrama 0070  
                        start 002D                 __CFG_IESO$OFF 0000               ___fldiv@new_exp 0050  
                _sprintf$1151 00B4                 __CFG_MCLRE$ON 0000               __end_of_InitApp 129B  
                       ??_isr 0070                 ___fltol@sign1 005C               __end_of___fladd 0DA9  
                       ?_main 0070               __end_of___fldiv 0B71               __end_of___awdiv 1440  
             __end_of___flneg 118E                         _ADRES 048E                 __CFG_WDTE$OFF 0000  
             __end_of___awmod 1386               __end_of___flmul 1000               __end_of___flsub 1218  
             __end_of___fltol 14B5               __end_of___lldiv 13E0               ___awdiv@divisor 0077  
             __end_of___llmod 12E5               __end_of___lwdiv 1254               __end_of___lwmod 0835  
             ___awdiv@counter 0020                         _RXPPS 0E3D           _ConfigureOscillator 117B  
              __CFG_FCMEN$OFF 0000               __end_of_dpowers 1890                         _scale 0556  
             __end_of_isdigit 11A0               __end_of_mensaje 18A1                __CFG_BOREN$OFF 0000  
                       status 0003                         wtemp0 007E               __end_of_sprintf 0556  
        ?_ConfigureOscillator 0070               __initialization 002F                  __end_of_main 1800  
              __CFG_LPBOR$OFF 0000                        ??_main 007E                __CFG_PLLEN$OFF 0000  
        __size_of__tdiv_to_l_ 00B0              ___llmod@dividend 0074                        ?_scale 003E  
            ___awdiv@dividend 0079                        _RC6PPS 0EA6                        i1l3421 000A  
                      i1l3431 0021                        i1l3423 000B                        i1l3433 0029  
                      i1l3425 0017                        i1l3427 0019                        i1l3419 0006  
                      i1l3429 001C                        u512_20 000A                        u512_21 0009  
                      u513_20 0015                        u513_21 0012                        _SP1BRG 019B  
                      u514_24 0017                        u515_20 0021                        u515_21 0020  
                      _TX1REG 019A              __end_of___xxtofl 15EB                     ??_InitApp 0070  
       ??_ConfigureOscillator 0070                __CFG_PWRTE$OFF 0000              __end_of__powers_ 1834  
                      ___flge 14B5                        ___fleq 12E5                     ??___fladd 0060  
                      ___wmul 11A0                     ??___fldiv 0046                     ??___awdiv 007B  
                   ??___flneg 0074                     ??___awmod 0074                     ??___flmul 002C  
                   ??___flsub 007E                     ??___fltol 0057                     ??___lldiv 0078  
                   ??___llmod 0078                     ??___lwdiv 007A                     ??___lwmod 0074  
                      _fround 0835                        _salida 0120              ___awdiv@quotient 0022  
             ___awmod@divisor 0070               ___awmod@counter 0075                     ??_isdigit 0070  
          __size_of__Umul8_16 0023                     ??_sprintf 00AE                    ___flge@ff1 0070  
                  ___flge@ff2 0074                  ___xxtofl@arg 007A                  ___xxtofl@exp 0079  
                ___xxtofl@val 0070                    ___fleq@ff1 0070                    ___fleq@ff2 0074  
     __end_of__initialization 003F                    ___flneg@f1 0070                    ___fltol@f1 0053  
        __size_of_enviarTrama 0027                __pcstackCOMMON 0070                 __end_of_scale 07D2  
                  __div_to_l_ 15EB                _OPTION_REGbits 0097               __div_to_l_@exp1 0025  
             __div_to_l_@cntr 0024                       ??_scale 0042               __div_to_l_@quot 0020  
                  __pbssBANK1 00CD                    __pbssBANK2 0120                 __div_to_l_@f1 0070  
               __div_to_l_@f2 0074             __end_of__Umul8_16 11E2                    __pmaintext 174A  
                     ?___flge 0070                       ?___fleq 0070                       ?___wmul 0070  
             __CFG_PPS1WAY$ON 0000                    __pintentry 0004                       ?_fround 003E  
                   ?___xxtofl 0070                       _InitApp 1254             __end_of__npowers_ 1868  
                  _scale$1150 004E               __size_of___flge 008A               __size_of___fleq 004E  
                     ___fladd 0B71                       ___fldiv 09BD                       ___awdiv 13E0  
                     ___flneg 1183                       ___awmod 1333                       ___flmul 0DA9  
                     ___flsub 11E2                       ___fltol 1440                       ___lldiv 1386  
             __size_of___wmul 001F                       ___llmod 129B                       ___lwdiv 1218  
                     ___lwmod 0801               __CFG_STVREN$OFF 0000               __size_of_fround 0188  
                     __ptext1 0043                       __ptext2 0556                       __ptext3 1333  
                     __ptext4 13E0                       __ptext5 118E                       __ptext6 0835  
                     __ptext7 0801                       __ptext8 1218                       __ptext9 0DA9  
                 ?__div_to_l_ 0070                       _dpowers 1868                       _isdigit 118E  
                __size_of_isr 0029                       _mensaje 1890                    ??___xxtofl 0074  
            ___awmod@dividend 0072                       _sprintf 0043                       clrloop0 07FA  
        end_of_initialization 003F               ___lldiv@divisor 0070               ___lldiv@counter 007D  
              __tdiv_to_l_@f1 0070                __tdiv_to_l_@f2 0074                 ??__tdiv_to_l_ 0078  
                   _PORTAbits 000C                   ___fladd@grs 006B              __CFG_FOSC$INTOSC 0000  
               ___xxtofl@sign 0078                     _TRISAbits 008C                     _TRISCbits 008E  
                 ___fldiv@grs 0052                   ___fldiv@rem 004B   __end_of_ConfigureOscillator 1183  
                 ___flmul@grs 0032           __size_of__div_to_l_ 00AF                __end_of___flge 153F  
              __end_of___fleq 1333                __end_of___wmul 11BF                __end_of_fround 09BD  
         start_initialization 002F           __end_of__tdiv_to_l_ 174A                   __end_of_isr 002D  
             ___llmod@divisor 0070                 ??_enviarTrama 0072               ___llmod@counter 0079  
                    ??___flge 0078                      ??___fleq 0078                      ??___wmul 0074  
                   __Umul8_16 11BF                      ??_fround 0042                 sprintf@tmpval 00C1  
                   ___fladd@a 005C                     ___fladd@b 0058                    fround@prec 0050  
                   ___fldiv@a 003E                     ___fldiv@b 0042                     ___flmul@a 0028  
                   ___flmul@b 0024                     ___flsub@a 00A0                     ___flsub@b 00A4  
                   ___latbits 0002                 __pcstackBANK0 0020                 __pcstackBANK1 00A0  
           __size_of___xxtofl 00AC                  _isdigit$1020 0070                   sprintf@flag 00B9  
                 sprintf@eexp 00BF                   sprintf@fval 00C8                   sprintf@prec 00C6  
                    ?_InitApp 0070              ___lwdiv@dividend 0078                      ?___fladd 0058  
                    ?___fldiv 003E                      ?___awdiv 0077                      ?___flneg 0070  
                    ?___awmod 0070                      ?___flmul 0024           __end_of_enviarTrama 07F9  
                    ?___flsub 00A0                      ?___fltol 0053                      ?___lldiv 0070  
                    ?___llmod 0070                     __npowers_ 1834                    ?__Umul8_16 0070  
                    ?___lwdiv 0076                      ?___lwmod 0070                   __tdiv_to_l_ 169A  
                ??__div_to_l_ 0078                      ?_isdigit 0070              ___lwdiv@quotient 007B  
                    ?_sprintf 00A8                __size_of_scale 027C                ___wmul@product 0074  
                    _LATAbits 010C                     clear_ram0 07F9                      _PIE1bits 0091  
                    _PIR1bits 0011            __end_of__div_to_l_ 169A                    _ADCON0bits 0490  
                  _ADCON1bits 0491             ___wmul@multiplier 0070                      _WPUAbits 020C  
                    _WPUCbits 020E                   _enviarTrama 07D2              __size_of_InitApp 0047  
                 ??__Umul8_16 0072              __size_of___fladd 0238              __size_of___fldiv 01B4  
            __size_of___awdiv 0060              __size_of___flneg 000B              __size_of___awmod 0053  
            __size_of___flmul 0257              __size_of___flsub 0036              __size_of___fltol 0075  
            __size_of___lldiv 005A              __size_of___llmod 004A              __size_of___lwdiv 003C  
            __size_of___lwmod 0034                   _fround$1148 004C                   _fround$1149 0048  
                  _ANSELAbits 018C                    _ANSELCbits 018E                      _band_aux 00D5  
                  sprintf@val 00BB                      ___xxtofl 153F              enviarTrama@datos 0070  
            __size_of_isdigit 0012               ___lwdiv@divisor 0076               ___lwdiv@counter 007D  
                    __ptext10 11BF                      __ptext11 169A                      __ptext20 1183  
                    __ptext12 15EB                      __ptext21 14B5                      __ptext13 153F  
                    __ptext22 12E5                      __ptext14 11A0                      __ptext23 07D2  
                    __ptext15 129B                      __ptext24 09BD                      __ptext16 1386  
                    __ptext25 1254                      __ptext17 1440                      __ptext26 117B  
                    __ptext18 11E2                      __ptext19 0B71                      __powers_ 1800  
            __size_of_sprintf 0513                 __size_of_main 00B6  __size_of_ConfigureOscillator 0008  
                  _RC1STAbits 019D                      _v_sensor 00D1                      int$flags 007E  
                  _INTCONbits 000B                 _AD_almacenado 00D6                      isdigit@c 0071  
                    scale@scl 0052                      intlevel1 0000                     sprintf@ap 00B8  
            __tdiv_to_l_@exp1 0025              __tdiv_to_l_@cntr 0024                     sprintf@sp 00C5  
            __tdiv_to_l_@quot 0020              ___lwmod@dividend 0072              ___lldiv@dividend 0074  
           __CFG_CLKOUTEN$OFF 0000                    _OSCCONbits 009B                  ?__tdiv_to_l_ 0070  
               __pstringtext1 1800                 __pstringtext2 1834                 __pstringtext3 1868  
               __pstringtext4 1890                 __pstringtext5 0000        __Umul8_16@multiplicand 0070  
                    sprintf@c 00CC                      sprintf@f 00A8              ___lldiv@quotient 0079  
             ___lwmod@divisor 0070               ___lwmod@counter 0075                    _TX1STAbits 019E  
               ___fladd@signs 0068                  ___fladd@aexp 0069                  ___fladd@bexp 006A  
        __Umul8_16@multiplier 0078             __Umul8_16@product 0074  
