

Microchip MPLAB XC8 Assembler V2.10 build 88905656 
                                                                                               Mon Jan 27 18:28:36 2020

Microchip MPLAB XC8 C Compiler v2.10 (Free license) build 20190730164152 Og1 
     1                           	processor	16F1776
     2                           	opt	pw 120
     3                           	opt	flic
     4                           	psect	stringtext1,global,class=STRCODE,delta=2
     5                           	psect	stringtext2,global,class=STRCODE,delta=2
     6                           	psect	stringtext3,global,class=STRCODE,delta=2
     7                           	psect	stringtext4,global,class=STRCODE,delta=2
     8                           	psect	cinit,global,class=CODE,merge=1,delta=2
     9                           	psect	bssCOMMON,global,class=COMMON,space=1,delta=1
    10                           	psect	bssBANK0,global,class=BANK0,space=1,delta=1
    11                           	psect	clrtext,global,class=CODE,delta=2
    12                           	psect	cstackCOMMON,global,class=COMMON,space=1,delta=1
    13                           	psect	maintext,global,class=CODE,merge=1,split=1,delta=2
    14                           	psect	text1,local,class=CODE,merge=1,delta=2
    15                           	psect	text2,local,class=CODE,merge=1,delta=2
    16                           	psect	text3,local,class=CODE,merge=1,delta=2
    17                           	psect	text4,local,class=CODE,merge=1,delta=2
    18                           	psect	text5,local,class=CODE,merge=1,delta=2
    19                           	psect	text6,local,class=CODE,merge=1,delta=2
    20                           	psect	text7,local,class=CODE,merge=1,delta=2
    21                           	psect	text8,local,class=CODE,merge=1,delta=2
    22                           	psect	text9,local,class=CODE,merge=1,delta=2
    23                           	psect	intentry,global,class=CODE,delta=2
    24                           	dabs	1,0x7E,2
    25  0000                     
    26                           ; Version 2.10
    27                           ; Generated 31/07/2019 GMT
    28                           ; 
    29                           ; Copyright © 2019, Microchip Technology Inc. and its subsidiaries ("Microchip")
    30                           ; All rights reserved.
    31                           ; 
    32                           ; This software is developed by Microchip Technology Inc. and its subsidiaries ("Microch
      +                          ip").
    33                           ; 
    34                           ; Redistribution and use in source and binary forms, with or without modification, are
    35                           ; permitted provided that the following conditions are met:
    36                           ; 
    37                           ;     1. Redistributions of source code must retain the above copyright notice, this lis
      +                          t of
    38                           ;        conditions and the following disclaimer.
    39                           ; 
    40                           ;     2. Redistributions in binary form must reproduce the above copyright notice, this 
      +                          list
    41                           ;        of conditions and the following disclaimer in the documentation and/or other
    42                           ;        materials provided with the distribution.
    43                           ; 
    44                           ;     3. Microchip's name may not be used to endorse or promote products derived from th
      +                          is
    45                           ;        software without specific prior written permission.
    46                           ; 
    47                           ; THIS SOFTWARE IS PROVIDED BY MICROCHIP "AS IS" AND ANY EXPRESS OR IMPLIED WARRANTIES,
    48                           ; INCLUDING, BUT NOT LIMITED TO, THE IMPLIED WARRANTIES OF MERCHANTABILITY AND FITNESS F
      +                          OR
    49                           ; PURPOSE ARE DISCLAIMED.  IN NO EVENT SHALL MICROCHIP BE LIABLE FOR ANY DIRECT, INDIREC
      +                          T,
    50                           ; INCIDENTAL, SPECIAL, EXEMPLARY, OR CONSEQUENTIAL DAMAGES (INCLUDING BUT NOT LIMITED TO
    51                           ; PROCUREMENT OF SUBSTITUTE GOODS OR SERVICES; LOSS OF USE, DATA OR PROFITS; OR BUSINESS
    52                           ; INTERRUPTION) HOWSOEVER CAUSED AND ON ANY THEORY OF LIABILITY, WHETHER IN CONTRACT, ST
      +                          RICT
    53                           ; LIABILITY, OR TORT (INCLUDING NEGLIGENCE OR OTHERWISE) ARISING IN ANY WAY OUT OF THE U
      +                          SE OF
    54                           ; THIS SOFTWARE, EVEN IF ADVISED OF THE POSSIBILITY OF SUCH DAMAGE.
    55                           ; 
    56                           ; 
    57                           ; Code-generator required, PIC16F1776 Definitions
    58                           ; 
    59                           ; SFR Addresses
    60  0000                     	;# 
    61  0001                     	;# 
    62  0002                     	;# 
    63  0003                     	;# 
    64  0004                     	;# 
    65  0005                     	;# 
    66  0006                     	;# 
    67  0007                     	;# 
    68  0008                     	;# 
    69  0009                     	;# 
    70  000A                     	;# 
    71  000B                     	;# 
    72  000C                     	;# 
    73  000D                     	;# 
    74  000E                     	;# 
    75  0010                     	;# 
    76  0011                     	;# 
    77  0012                     	;# 
    78  0013                     	;# 
    79  0014                     	;# 
    80  0015                     	;# 
    81  0016                     	;# 
    82  0017                     	;# 
    83  0018                     	;# 
    84  0018                     	;# 
    85  0019                     	;# 
    86  001A                     	;# 
    87  001B                     	;# 
    88  001C                     	;# 
    89  001C                     	;# 
    90  001D                     	;# 
    91  001E                     	;# 
    92  001F                     	;# 
    93  008C                     	;# 
    94  008D                     	;# 
    95  008E                     	;# 
    96  0090                     	;# 
    97  0091                     	;# 
    98  0092                     	;# 
    99  0093                     	;# 
   100  0094                     	;# 
   101  0095                     	;# 
   102  0096                     	;# 
   103  0097                     	;# 
   104  0098                     	;# 
   105  0099                     	;# 
   106  009A                     	;# 
   107  009B                     	;# 
   108  009C                     	;# 
   109  009D                     	;# 
   110  009E                     	;# 
   111  009F                     	;# 
   112  010C                     	;# 
   113  010D                     	;# 
   114  010E                     	;# 
   115  0111                     	;# 
   116  0112                     	;# 
   117  0113                     	;# 
   118  0114                     	;# 
   119  0115                     	;# 
   120  0116                     	;# 
   121  0117                     	;# 
   122  0118                     	;# 
   123  0119                     	;# 
   124  011A                     	;# 
   125  011B                     	;# 
   126  011C                     	;# 
   127  011D                     	;# 
   128  018C                     	;# 
   129  018D                     	;# 
   130  018E                     	;# 
   131  0191                     	;# 
   132  0191                     	;# 
   133  0192                     	;# 
   134  0193                     	;# 
   135  0193                     	;# 
   136  0194                     	;# 
   137  0195                     	;# 
   138  0196                     	;# 
   139  0197                     	;# 
   140  0199                     	;# 
   141  0199                     	;# 
   142  0199                     	;# 
   143  019A                     	;# 
   144  019A                     	;# 
   145  019A                     	;# 
   146  019B                     	;# 
   147  019B                     	;# 
   148  019B                     	;# 
   149  019B                     	;# 
   150  019B                     	;# 
   151  019C                     	;# 
   152  019C                     	;# 
   153  019C                     	;# 
   154  019D                     	;# 
   155  019D                     	;# 
   156  019D                     	;# 
   157  019E                     	;# 
   158  019E                     	;# 
   159  019E                     	;# 
   160  019F                     	;# 
   161  019F                     	;# 
   162  019F                     	;# 
   163  019F                     	;# 
   164  019F                     	;# 
   165  020C                     	;# 
   166  020D                     	;# 
   167  020E                     	;# 
   168  0210                     	;# 
   169  0211                     	;# 
   170  0211                     	;# 
   171  0212                     	;# 
   172  0212                     	;# 
   173  0213                     	;# 
   174  0213                     	;# 
   175  0214                     	;# 
   176  0214                     	;# 
   177  0215                     	;# 
   178  0215                     	;# 
   179  0215                     	;# 
   180  0215                     	;# 
   181  0216                     	;# 
   182  0216                     	;# 
   183  0217                     	;# 
   184  0217                     	;# 
   185  021B                     	;# 
   186  021C                     	;# 
   187  021D                     	;# 
   188  021E                     	;# 
   189  021F                     	;# 
   190  028C                     	;# 
   191  028D                     	;# 
   192  028E                     	;# 
   193  0291                     	;# 
   194  0291                     	;# 
   195  0292                     	;# 
   196  0293                     	;# 
   197  0294                     	;# 
   198  0295                     	;# 
   199  0295                     	;# 
   200  0296                     	;# 
   201  0297                     	;# 
   202  0298                     	;# 
   203  0299                     	;# 
   204  0299                     	;# 
   205  029A                     	;# 
   206  029B                     	;# 
   207  029C                     	;# 
   208  029E                     	;# 
   209  029F                     	;# 
   210  030C                     	;# 
   211  030D                     	;# 
   212  030E                     	;# 
   213  0315                     	;# 
   214  0316                     	;# 
   215  0317                     	;# 
   216  0318                     	;# 
   217  0319                     	;# 
   218  031B                     	;# 
   219  031C                     	;# 
   220  031D                     	;# 
   221  031E                     	;# 
   222  031F                     	;# 
   223  038C                     	;# 
   224  038D                     	;# 
   225  038E                     	;# 
   226  0390                     	;# 
   227  0391                     	;# 
   228  0392                     	;# 
   229  0393                     	;# 
   230  0394                     	;# 
   231  0395                     	;# 
   232  0396                     	;# 
   233  0397                     	;# 
   234  0398                     	;# 
   235  0399                     	;# 
   236  039D                     	;# 
   237  039E                     	;# 
   238  039F                     	;# 
   239  040D                     	;# 
   240  040F                     	;# 
   241  040F                     	;# 
   242  0410                     	;# 
   243  0411                     	;# 
   244  0412                     	;# 
   245  0413                     	;# 
   246  0413                     	;# 
   247  0414                     	;# 
   248  0414                     	;# 
   249  0415                     	;# 
   250  0416                     	;# 
   251  0417                     	;# 
   252  0418                     	;# 
   253  041A                     	;# 
   254  041A                     	;# 
   255  041B                     	;# 
   256  041B                     	;# 
   257  041C                     	;# 
   258  041D                     	;# 
   259  041E                     	;# 
   260  041F                     	;# 
   261  048E                     	;# 
   262  048E                     	;# 
   263  048F                     	;# 
   264  0490                     	;# 
   265  0491                     	;# 
   266  0492                     	;# 
   267  0493                     	;# 
   268  0493                     	;# 
   269  0494                     	;# 
   270  0494                     	;# 
   271  0495                     	;# 
   272  0496                     	;# 
   273  0497                     	;# 
   274  0498                     	;# 
   275  049A                     	;# 
   276  049A                     	;# 
   277  049B                     	;# 
   278  049B                     	;# 
   279  049C                     	;# 
   280  049D                     	;# 
   281  049E                     	;# 
   282  049F                     	;# 
   283  050F                     	;# 
   284  0510                     	;# 
   285  0511                     	;# 
   286  0512                     	;# 
   287  0513                     	;# 
   288  0514                     	;# 
   289  0515                     	;# 
   290  0516                     	;# 
   291  0517                     	;# 
   292  0518                     	;# 
   293  0519                     	;# 
   294  051A                     	;# 
   295  058D                     	;# 
   296  058E                     	;# 
   297  058F                     	;# 
   298  058F                     	;# 
   299  058F                     	;# 
   300  0590                     	;# 
   301  0590                     	;# 
   302  0591                     	;# 
   303  0592                     	;# 
   304  0592                     	;# 
   305  0592                     	;# 
   306  0593                     	;# 
   307  0593                     	;# 
   308  0594                     	;# 
   309  0595                     	;# 
   310  0595                     	;# 
   311  0596                     	;# 
   312  0597                     	;# 
   313  0597                     	;# 
   314  0598                     	;# 
   315  0599                     	;# 
   316  0599                     	;# 
   317  0599                     	;# 
   318  059A                     	;# 
   319  059A                     	;# 
   320  059E                     	;# 
   321  059F                     	;# 
   322  059F                     	;# 
   323  0614                     	;# 
   324  0614                     	;# 
   325  0615                     	;# 
   326  0616                     	;# 
   327  0617                     	;# 
   328  0617                     	;# 
   329  0618                     	;# 
   330  0619                     	;# 
   331  061A                     	;# 
   332  061A                     	;# 
   333  061B                     	;# 
   334  061C                     	;# 
   335  068D                     	;# 
   336  068E                     	;# 
   337  068F                     	;# 
   338  0690                     	;# 
   339  0691                     	;# 
   340  0692                     	;# 
   341  0693                     	;# 
   342  0694                     	;# 
   343  0695                     	;# 
   344  0696                     	;# 
   345  0697                     	;# 
   346  0698                     	;# 
   347  0699                     	;# 
   348  069A                     	;# 
   349  069B                     	;# 
   350  069C                     	;# 
   351  069D                     	;# 
   352  069E                     	;# 
   353  069F                     	;# 
   354  070D                     	;# 
   355  070E                     	;# 
   356  070F                     	;# 
   357  0710                     	;# 
   358  0711                     	;# 
   359  0712                     	;# 
   360  0713                     	;# 
   361  0714                     	;# 
   362  0715                     	;# 
   363  0716                     	;# 
   364  0717                     	;# 
   365  0718                     	;# 
   366  0719                     	;# 
   367  071A                     	;# 
   368  071B                     	;# 
   369  071C                     	;# 
   370  071D                     	;# 
   371  071E                     	;# 
   372  071F                     	;# 
   373  078E                     	;# 
   374  078F                     	;# 
   375  0790                     	;# 
   376  0791                     	;# 
   377  0792                     	;# 
   378  0793                     	;# 
   379  0794                     	;# 
   380  0795                     	;# 
   381  0796                     	;# 
   382  0797                     	;# 
   383  0798                     	;# 
   384  0799                     	;# 
   385  079A                     	;# 
   386  079B                     	;# 
   387  079C                     	;# 
   388  079D                     	;# 
   389  079E                     	;# 
   390  079F                     	;# 
   391  080D                     	;# 
   392  080E                     	;# 
   393  080F                     	;# 
   394  0810                     	;# 
   395  0811                     	;# 
   396  0812                     	;# 
   397  0813                     	;# 
   398  0814                     	;# 
   399  0815                     	;# 
   400  0816                     	;# 
   401  0817                     	;# 
   402  0818                     	;# 
   403  0819                     	;# 
   404  081A                     	;# 
   405  081B                     	;# 
   406  081C                     	;# 
   407  081D                     	;# 
   408  081E                     	;# 
   409  081F                     	;# 
   410  090C                     	;# 
   411  090D                     	;# 
   412  090E                     	;# 
   413  090F                     	;# 
   414  0910                     	;# 
   415  0911                     	;# 
   416  0912                     	;# 
   417  0913                     	;# 
   418  0914                     	;# 
   419  0915                     	;# 
   420  0916                     	;# 
   421  0917                     	;# 
   422  0D8E                     	;# 
   423  0D8F                     	;# 
   424  0D90                     	;# 
   425  0D91                     	;# 
   426  0D91                     	;# 
   427  0D92                     	;# 
   428  0D93                     	;# 
   429  0D93                     	;# 
   430  0D94                     	;# 
   431  0D95                     	;# 
   432  0D95                     	;# 
   433  0D96                     	;# 
   434  0D97                     	;# 
   435  0D97                     	;# 
   436  0D98                     	;# 
   437  0D99                     	;# 
   438  0D99                     	;# 
   439  0D9A                     	;# 
   440  0D9B                     	;# 
   441  0D9C                     	;# 
   442  0D9C                     	;# 
   443  0D9D                     	;# 
   444  0D9D                     	;# 
   445  0D9E                     	;# 
   446  0D9F                     	;# 
   447  0DA0                     	;# 
   448  0DA1                     	;# 
   449  0DA1                     	;# 
   450  0DA2                     	;# 
   451  0DA3                     	;# 
   452  0DA3                     	;# 
   453  0DA4                     	;# 
   454  0DA5                     	;# 
   455  0DA5                     	;# 
   456  0DA6                     	;# 
   457  0DA7                     	;# 
   458  0DA7                     	;# 
   459  0DA8                     	;# 
   460  0DA9                     	;# 
   461  0DA9                     	;# 
   462  0DAA                     	;# 
   463  0DAB                     	;# 
   464  0DAC                     	;# 
   465  0DAC                     	;# 
   466  0DAD                     	;# 
   467  0DAD                     	;# 
   468  0DAE                     	;# 
   469  0DAF                     	;# 
   470  0DB0                     	;# 
   471  0DB1                     	;# 
   472  0DB1                     	;# 
   473  0DB2                     	;# 
   474  0DB3                     	;# 
   475  0DB3                     	;# 
   476  0DB4                     	;# 
   477  0DB5                     	;# 
   478  0DB5                     	;# 
   479  0DB6                     	;# 
   480  0DB7                     	;# 
   481  0DB7                     	;# 
   482  0DB8                     	;# 
   483  0DB9                     	;# 
   484  0DB9                     	;# 
   485  0DBA                     	;# 
   486  0DBB                     	;# 
   487  0DBC                     	;# 
   488  0DBC                     	;# 
   489  0DBD                     	;# 
   490  0DBD                     	;# 
   491  0DBE                     	;# 
   492  0DBF                     	;# 
   493  0DC0                     	;# 
   494  0E0C                     	;# 
   495  0E0D                     	;# 
   496  0E0E                     	;# 
   497  0E0F                     	;# 
   498  0E10                     	;# 
   499  0E11                     	;# 
   500  0E12                     	;# 
   501  0E13                     	;# 
   502  0E14                     	;# 
   503  0E15                     	;# 
   504  0E15                     	;# 
   505  0E15                     	;# 
   506  0E16                     	;# 
   507  0E16                     	;# 
   508  0E16                     	;# 
   509  0E17                     	;# 
   510  0E17                     	;# 
   511  0E17                     	;# 
   512  0E18                     	;# 
   513  0E18                     	;# 
   514  0E18                     	;# 
   515  0E19                     	;# 
   516  0E1A                     	;# 
   517  0E1B                     	;# 
   518  0E1D                     	;# 
   519  0E1E                     	;# 
   520  0E1F                     	;# 
   521  0E21                     	;# 
   522  0E22                     	;# 
   523  0E23                     	;# 
   524  0E24                     	;# 
   525  0E25                     	;# 
   526  0E26                     	;# 
   527  0E27                     	;# 
   528  0E28                     	;# 
   529  0E29                     	;# 
   530  0E2D                     	;# 
   531  0E2E                     	;# 
   532  0E2F                     	;# 
   533  0E30                     	;# 
   534  0E31                     	;# 
   535  0E32                     	;# 
   536  0E35                     	;# 
   537  0E36                     	;# 
   538  0E37                     	;# 
   539  0E38                     	;# 
   540  0E39                     	;# 
   541  0E3A                     	;# 
   542  0E3B                     	;# 
   543  0E3C                     	;# 
   544  0E3D                     	;# 
   545  0E3E                     	;# 
   546  0E90                     	;# 
   547  0E91                     	;# 
   548  0E92                     	;# 
   549  0E93                     	;# 
   550  0E94                     	;# 
   551  0E95                     	;# 
   552  0E96                     	;# 
   553  0E97                     	;# 
   554  0E98                     	;# 
   555  0E99                     	;# 
   556  0E9A                     	;# 
   557  0E9B                     	;# 
   558  0E9C                     	;# 
   559  0E9D                     	;# 
   560  0E9E                     	;# 
   561  0E9F                     	;# 
   562  0EA0                     	;# 
   563  0EA1                     	;# 
   564  0EA2                     	;# 
   565  0EA3                     	;# 
   566  0EA4                     	;# 
   567  0EA5                     	;# 
   568  0EA6                     	;# 
   569  0EA7                     	;# 
   570  0F0F                     	;# 
   571  0F10                     	;# 
   572  0F11                     	;# 
   573  0F12                     	;# 
   574  0F13                     	;# 
   575  0F14                     	;# 
   576  0F15                     	;# 
   577  0F16                     	;# 
   578  0F17                     	;# 
   579  0F18                     	;# 
   580  0F19                     	;# 
   581  0F1A                     	;# 
   582  0F1B                     	;# 
   583  0F1C                     	;# 
   584  0F1D                     	;# 
   585  0F1E                     	;# 
   586  0F1F                     	;# 
   587  0F20                     	;# 
   588  0F21                     	;# 
   589  0F22                     	;# 
   590  0F23                     	;# 
   591  0F24                     	;# 
   592  0F25                     	;# 
   593  0F26                     	;# 
   594  0F27                     	;# 
   595  0F28                     	;# 
   596  0F29                     	;# 
   597  0F2A                     	;# 
   598  0F2B                     	;# 
   599  0F2C                     	;# 
   600  0F2D                     	;# 
   601  0F2E                     	;# 
   602  0F2F                     	;# 
   603  0F30                     	;# 
   604  0F31                     	;# 
   605  0F32                     	;# 
   606  0F33                     	;# 
   607  0F34                     	;# 
   608  0F35                     	;# 
   609  0F36                     	;# 
   610  0F37                     	;# 
   611  0FE4                     	;# 
   612  0FE5                     	;# 
   613  0FE6                     	;# 
   614  0FE7                     	;# 
   615  0FE8                     	;# 
   616  0FE9                     	;# 
   617  0FEA                     	;# 
   618  0FEB                     	;# 
   619  0FED                     	;# 
   620  0FEE                     	;# 
   621  0FEF                     	;# 
   622  0000                     	;# 
   623  0001                     	;# 
   624  0002                     	;# 
   625  0003                     	;# 
   626  0004                     	;# 
   627  0005                     	;# 
   628  0006                     	;# 
   629  0007                     	;# 
   630  0008                     	;# 
   631  0009                     	;# 
   632  000A                     	;# 
   633  000B                     	;# 
   634  000C                     	;# 
   635  000D                     	;# 
   636  000E                     	;# 
   637  0010                     	;# 
   638  0011                     	;# 
   639  0012                     	;# 
   640  0013                     	;# 
   641  0014                     	;# 
   642  0015                     	;# 
   643  0016                     	;# 
   644  0017                     	;# 
   645  0018                     	;# 
   646  0018                     	;# 
   647  0019                     	;# 
   648  001A                     	;# 
   649  001B                     	;# 
   650  001C                     	;# 
   651  001C                     	;# 
   652  001D                     	;# 
   653  001E                     	;# 
   654  001F                     	;# 
   655  008C                     	;# 
   656  008D                     	;# 
   657  008E                     	;# 
   658  0090                     	;# 
   659  0091                     	;# 
   660  0092                     	;# 
   661  0093                     	;# 
   662  0094                     	;# 
   663  0095                     	;# 
   664  0096                     	;# 
   665  0097                     	;# 
   666  0098                     	;# 
   667  0099                     	;# 
   668  009A                     	;# 
   669  009B                     	;# 
   670  009C                     	;# 
   671  009D                     	;# 
   672  009E                     	;# 
   673  009F                     	;# 
   674  010C                     	;# 
   675  010D                     	;# 
   676  010E                     	;# 
   677  0111                     	;# 
   678  0112                     	;# 
   679  0113                     	;# 
   680  0114                     	;# 
   681  0115                     	;# 
   682  0116                     	;# 
   683  0117                     	;# 
   684  0118                     	;# 
   685  0119                     	;# 
   686  011A                     	;# 
   687  011B                     	;# 
   688  011C                     	;# 
   689  011D                     	;# 
   690  018C                     	;# 
   691  018D                     	;# 
   692  018E                     	;# 
   693  0191                     	;# 
   694  0191                     	;# 
   695  0192                     	;# 
   696  0193                     	;# 
   697  0193                     	;# 
   698  0194                     	;# 
   699  0195                     	;# 
   700  0196                     	;# 
   701  0197                     	;# 
   702  0199                     	;# 
   703  0199                     	;# 
   704  0199                     	;# 
   705  019A                     	;# 
   706  019A                     	;# 
   707  019A                     	;# 
   708  019B                     	;# 
   709  019B                     	;# 
   710  019B                     	;# 
   711  019B                     	;# 
   712  019B                     	;# 
   713  019C                     	;# 
   714  019C                     	;# 
   715  019C                     	;# 
   716  019D                     	;# 
   717  019D                     	;# 
   718  019D                     	;# 
   719  019E                     	;# 
   720  019E                     	;# 
   721  019E                     	;# 
   722  019F                     	;# 
   723  019F                     	;# 
   724  019F                     	;# 
   725  019F                     	;# 
   726  019F                     	;# 
   727  020C                     	;# 
   728  020D                     	;# 
   729  020E                     	;# 
   730  0210                     	;# 
   731  0211                     	;# 
   732  0211                     	;# 
   733  0212                     	;# 
   734  0212                     	;# 
   735  0213                     	;# 
   736  0213                     	;# 
   737  0214                     	;# 
   738  0214                     	;# 
   739  0215                     	;# 
   740  0215                     	;# 
   741  0215                     	;# 
   742  0215                     	;# 
   743  0216                     	;# 
   744  0216                     	;# 
   745  0217                     	;# 
   746  0217                     	;# 
   747  021B                     	;# 
   748  021C                     	;# 
   749  021D                     	;# 
   750  021E                     	;# 
   751  021F                     	;# 
   752  028C                     	;# 
   753  028D                     	;# 
   754  028E                     	;# 
   755  0291                     	;# 
   756  0291                     	;# 
   757  0292                     	;# 
   758  0293                     	;# 
   759  0294                     	;# 
   760  0295                     	;# 
   761  0295                     	;# 
   762  0296                     	;# 
   763  0297                     	;# 
   764  0298                     	;# 
   765  0299                     	;# 
   766  0299                     	;# 
   767  029A                     	;# 
   768  029B                     	;# 
   769  029C                     	;# 
   770  029E                     	;# 
   771  029F                     	;# 
   772  030C                     	;# 
   773  030D                     	;# 
   774  030E                     	;# 
   775  0315                     	;# 
   776  0316                     	;# 
   777  0317                     	;# 
   778  0318                     	;# 
   779  0319                     	;# 
   780  031B                     	;# 
   781  031C                     	;# 
   782  031D                     	;# 
   783  031E                     	;# 
   784  031F                     	;# 
   785  038C                     	;# 
   786  038D                     	;# 
   787  038E                     	;# 
   788  0390                     	;# 
   789  0391                     	;# 
   790  0392                     	;# 
   791  0393                     	;# 
   792  0394                     	;# 
   793  0395                     	;# 
   794  0396                     	;# 
   795  0397                     	;# 
   796  0398                     	;# 
   797  0399                     	;# 
   798  039D                     	;# 
   799  039E                     	;# 
   800  039F                     	;# 
   801  040D                     	;# 
   802  040F                     	;# 
   803  040F                     	;# 
   804  0410                     	;# 
   805  0411                     	;# 
   806  0412                     	;# 
   807  0413                     	;# 
   808  0413                     	;# 
   809  0414                     	;# 
   810  0414                     	;# 
   811  0415                     	;# 
   812  0416                     	;# 
   813  0417                     	;# 
   814  0418                     	;# 
   815  041A                     	;# 
   816  041A                     	;# 
   817  041B                     	;# 
   818  041B                     	;# 
   819  041C                     	;# 
   820  041D                     	;# 
   821  041E                     	;# 
   822  041F                     	;# 
   823  048E                     	;# 
   824  048E                     	;# 
   825  048F                     	;# 
   826  0490                     	;# 
   827  0491                     	;# 
   828  0492                     	;# 
   829  0493                     	;# 
   830  0493                     	;# 
   831  0494                     	;# 
   832  0494                     	;# 
   833  0495                     	;# 
   834  0496                     	;# 
   835  0497                     	;# 
   836  0498                     	;# 
   837  049A                     	;# 
   838  049A                     	;# 
   839  049B                     	;# 
   840  049B                     	;# 
   841  049C                     	;# 
   842  049D                     	;# 
   843  049E                     	;# 
   844  049F                     	;# 
   845  050F                     	;# 
   846  0510                     	;# 
   847  0511                     	;# 
   848  0512                     	;# 
   849  0513                     	;# 
   850  0514                     	;# 
   851  0515                     	;# 
   852  0516                     	;# 
   853  0517                     	;# 
   854  0518                     	;# 
   855  0519                     	;# 
   856  051A                     	;# 
   857  058D                     	;# 
   858  058E                     	;# 
   859  058F                     	;# 
   860  058F                     	;# 
   861  058F                     	;# 
   862  0590                     	;# 
   863  0590                     	;# 
   864  0591                     	;# 
   865  0592                     	;# 
   866  0592                     	;# 
   867  0592                     	;# 
   868  0593                     	;# 
   869  0593                     	;# 
   870  0594                     	;# 
   871  0595                     	;# 
   872  0595                     	;# 
   873  0596                     	;# 
   874  0597                     	;# 
   875  0597                     	;# 
   876  0598                     	;# 
   877  0599                     	;# 
   878  0599                     	;# 
   879  0599                     	;# 
   880  059A                     	;# 
   881  059A                     	;# 
   882  059E                     	;# 
   883  059F                     	;# 
   884  059F                     	;# 
   885  0614                     	;# 
   886  0614                     	;# 
   887  0615                     	;# 
   888  0616                     	;# 
   889  0617                     	;# 
   890  0617                     	;# 
   891  0618                     	;# 
   892  0619                     	;# 
   893  061A                     	;# 
   894  061A                     	;# 
   895  061B                     	;# 
   896  061C                     	;# 
   897  068D                     	;# 
   898  068E                     	;# 
   899  068F                     	;# 
   900  0690                     	;# 
   901  0691                     	;# 
   902  0692                     	;# 
   903  0693                     	;# 
   904  0694                     	;# 
   905  0695                     	;# 
   906  0696                     	;# 
   907  0697                     	;# 
   908  0698                     	;# 
   909  0699                     	;# 
   910  069A                     	;# 
   911  069B                     	;# 
   912  069C                     	;# 
   913  069D                     	;# 
   914  069E                     	;# 
   915  069F                     	;# 
   916  070D                     	;# 
   917  070E                     	;# 
   918  070F                     	;# 
   919  0710                     	;# 
   920  0711                     	;# 
   921  0712                     	;# 
   922  0713                     	;# 
   923  0714                     	;# 
   924  0715                     	;# 
   925  0716                     	;# 
   926  0717                     	;# 
   927  0718                     	;# 
   928  0719                     	;# 
   929  071A                     	;# 
   930  071B                     	;# 
   931  071C                     	;# 
   932  071D                     	;# 
   933  071E                     	;# 
   934  071F                     	;# 
   935  078E                     	;# 
   936  078F                     	;# 
   937  0790                     	;# 
   938  0791                     	;# 
   939  0792                     	;# 
   940  0793                     	;# 
   941  0794                     	;# 
   942  0795                     	;# 
   943  0796                     	;# 
   944  0797                     	;# 
   945  0798                     	;# 
   946  0799                     	;# 
   947  079A                     	;# 
   948  079B                     	;# 
   949  079C                     	;# 
   950  079D                     	;# 
   951  079E                     	;# 
   952  079F                     	;# 
   953  080D                     	;# 
   954  080E                     	;# 
   955  080F                     	;# 
   956  0810                     	;# 
   957  0811                     	;# 
   958  0812                     	;# 
   959  0813                     	;# 
   960  0814                     	;# 
   961  0815                     	;# 
   962  0816                     	;# 
   963  0817                     	;# 
   964  0818                     	;# 
   965  0819                     	;# 
   966  081A                     	;# 
   967  081B                     	;# 
   968  081C                     	;# 
   969  081D                     	;# 
   970  081E                     	;# 
   971  081F                     	;# 
   972  090C                     	;# 
   973  090D                     	;# 
   974  090E                     	;# 
   975  090F                     	;# 
   976  0910                     	;# 
   977  0911                     	;# 
   978  0912                     	;# 
   979  0913                     	;# 
   980  0914                     	;# 
   981  0915                     	;# 
   982  0916                     	;# 
   983  0917                     	;# 
   984  0D8E                     	;# 
   985  0D8F                     	;# 
   986  0D90                     	;# 
   987  0D91                     	;# 
   988  0D91                     	;# 
   989  0D92                     	;# 
   990  0D93                     	;# 
   991  0D93                     	;# 
   992  0D94                     	;# 
   993  0D95                     	;# 
   994  0D95                     	;# 
   995  0D96                     	;# 
   996  0D97                     	;# 
   997  0D97                     	;# 
   998  0D98                     	;# 
   999  0D99                     	;# 
  1000  0D99                     	;# 
  1001  0D9A                     	;# 
  1002  0D9B                     	;# 
  1003  0D9C                     	;# 
  1004  0D9C                     	;# 
  1005  0D9D                     	;# 
  1006  0D9D                     	;# 
  1007  0D9E                     	;# 
  1008  0D9F                     	;# 
  1009  0DA0                     	;# 
  1010  0DA1                     	;# 
  1011  0DA1                     	;# 
  1012  0DA2                     	;# 
  1013  0DA3                     	;# 
  1014  0DA3                     	;# 
  1015  0DA4                     	;# 
  1016  0DA5                     	;# 
  1017  0DA5                     	;# 
  1018  0DA6                     	;# 
  1019  0DA7                     	;# 
  1020  0DA7                     	;# 
  1021  0DA8                     	;# 
  1022  0DA9                     	;# 
  1023  0DA9                     	;# 
  1024  0DAA                     	;# 
  1025  0DAB                     	;# 
  1026  0DAC                     	;# 
  1027  0DAC                     	;# 
  1028  0DAD                     	;# 
  1029  0DAD                     	;# 
  1030  0DAE                     	;# 
  1031  0DAF                     	;# 
  1032  0DB0                     	;# 
  1033  0DB1                     	;# 
  1034  0DB1                     	;# 
  1035  0DB2                     	;# 
  1036  0DB3                     	;# 
  1037  0DB3                     	;# 
  1038  0DB4                     	;# 
  1039  0DB5                     	;# 
  1040  0DB5                     	;# 
  1041  0DB6                     	;# 
  1042  0DB7                     	;# 
  1043  0DB7                     	;# 
  1044  0DB8                     	;# 
  1045  0DB9                     	;# 
  1046  0DB9                     	;# 
  1047  0DBA                     	;# 
  1048  0DBB                     	;# 
  1049  0DBC                     	;# 
  1050  0DBC                     	;# 
  1051  0DBD                     	;# 
  1052  0DBD                     	;# 
  1053  0DBE                     	;# 
  1054  0DBF                     	;# 
  1055  0DC0                     	;# 
  1056  0E0C                     	;# 
  1057  0E0D                     	;# 
  1058  0E0E                     	;# 
  1059  0E0F                     	;# 
  1060  0E10                     	;# 
  1061  0E11                     	;# 
  1062  0E12                     	;# 
  1063  0E13                     	;# 
  1064  0E14                     	;# 
  1065  0E15                     	;# 
  1066  0E15                     	;# 
  1067  0E15                     	;# 
  1068  0E16                     	;# 
  1069  0E16                     	;# 
  1070  0E16                     	;# 
  1071  0E17                     	;# 
  1072  0E17                     	;# 
  1073  0E17                     	;# 
  1074  0E18                     	;# 
  1075  0E18                     	;# 
  1076  0E18                     	;# 
  1077  0E19                     	;# 
  1078  0E1A                     	;# 
  1079  0E1B                     	;# 
  1080  0E1D                     	;# 
  1081  0E1E                     	;# 
  1082  0E1F                     	;# 
  1083  0E21                     	;# 
  1084  0E22                     	;# 
  1085  0E23                     	;# 
  1086  0E24                     	;# 
  1087  0E25                     	;# 
  1088  0E26                     	;# 
  1089  0E27                     	;# 
  1090  0E28                     	;# 
  1091  0E29                     	;# 
  1092  0E2D                     	;# 
  1093  0E2E                     	;# 
  1094  0E2F                     	;# 
  1095  0E30                     	;# 
  1096  0E31                     	;# 
  1097  0E32                     	;# 
  1098  0E35                     	;# 
  1099  0E36                     	;# 
  1100  0E37                     	;# 
  1101  0E38                     	;# 
  1102  0E39                     	;# 
  1103  0E3A                     	;# 
  1104  0E3B                     	;# 
  1105  0E3C                     	;# 
  1106  0E3D                     	;# 
  1107  0E3E                     	;# 
  1108  0E90                     	;# 
  1109  0E91                     	;# 
  1110  0E92                     	;# 
  1111  0E93                     	;# 
  1112  0E94                     	;# 
  1113  0E95                     	;# 
  1114  0E96                     	;# 
  1115  0E97                     	;# 
  1116  0E98                     	;# 
  1117  0E99                     	;# 
  1118  0E9A                     	;# 
  1119  0E9B                     	;# 
  1120  0E9C                     	;# 
  1121  0E9D                     	;# 
  1122  0E9E                     	;# 
  1123  0E9F                     	;# 
  1124  0EA0                     	;# 
  1125  0EA1                     	;# 
  1126  0EA2                     	;# 
  1127  0EA3                     	;# 
  1128  0EA4                     	;# 
  1129  0EA5                     	;# 
  1130  0EA6                     	;# 
  1131  0EA7                     	;# 
  1132  0F0F                     	;# 
  1133  0F10                     	;# 
  1134  0F11                     	;# 
  1135  0F12                     	;# 
  1136  0F13                     	;# 
  1137  0F14                     	;# 
  1138  0F15                     	;# 
  1139  0F16                     	;# 
  1140  0F17                     	;# 
  1141  0F18                     	;# 
  1142  0F19                     	;# 
  1143  0F1A                     	;# 
  1144  0F1B                     	;# 
  1145  0F1C                     	;# 
  1146  0F1D                     	;# 
  1147  0F1E                     	;# 
  1148  0F1F                     	;# 
  1149  0F20                     	;# 
  1150  0F21                     	;# 
  1151  0F22                     	;# 
  1152  0F23                     	;# 
  1153  0F24                     	;# 
  1154  0F25                     	;# 
  1155  0F26                     	;# 
  1156  0F27                     	;# 
  1157  0F28                     	;# 
  1158  0F29                     	;# 
  1159  0F2A                     	;# 
  1160  0F2B                     	;# 
  1161  0F2C                     	;# 
  1162  0F2D                     	;# 
  1163  0F2E                     	;# 
  1164  0F2F                     	;# 
  1165  0F30                     	;# 
  1166  0F31                     	;# 
  1167  0F32                     	;# 
  1168  0F33                     	;# 
  1169  0F34                     	;# 
  1170  0F35                     	;# 
  1171  0F36                     	;# 
  1172  0F37                     	;# 
  1173  0FE4                     	;# 
  1174  0FE5                     	;# 
  1175  0FE6                     	;# 
  1176  0FE7                     	;# 
  1177  0FE8                     	;# 
  1178  0FE9                     	;# 
  1179  0FEA                     	;# 
  1180  0FEB                     	;# 
  1181  0FED                     	;# 
  1182  0FEE                     	;# 
  1183  0FEF                     	;# 
  1184  0000                     	;# 
  1185  0001                     	;# 
  1186  0002                     	;# 
  1187  0003                     	;# 
  1188  0004                     	;# 
  1189  0005                     	;# 
  1190  0006                     	;# 
  1191  0007                     	;# 
  1192  0008                     	;# 
  1193  0009                     	;# 
  1194  000A                     	;# 
  1195  000B                     	;# 
  1196  000C                     	;# 
  1197  000D                     	;# 
  1198  000E                     	;# 
  1199  0010                     	;# 
  1200  0011                     	;# 
  1201  0012                     	;# 
  1202  0013                     	;# 
  1203  0014                     	;# 
  1204  0015                     	;# 
  1205  0016                     	;# 
  1206  0017                     	;# 
  1207  0018                     	;# 
  1208  0018                     	;# 
  1209  0019                     	;# 
  1210  001A                     	;# 
  1211  001B                     	;# 
  1212  001C                     	;# 
  1213  001C                     	;# 
  1214  001D                     	;# 
  1215  001E                     	;# 
  1216  001F                     	;# 
  1217  008C                     	;# 
  1218  008D                     	;# 
  1219  008E                     	;# 
  1220  0090                     	;# 
  1221  0091                     	;# 
  1222  0092                     	;# 
  1223  0093                     	;# 
  1224  0094                     	;# 
  1225  0095                     	;# 
  1226  0096                     	;# 
  1227  0097                     	;# 
  1228  0098                     	;# 
  1229  0099                     	;# 
  1230  009A                     	;# 
  1231  009B                     	;# 
  1232  009C                     	;# 
  1233  009D                     	;# 
  1234  009E                     	;# 
  1235  009F                     	;# 
  1236  010C                     	;# 
  1237  010D                     	;# 
  1238  010E                     	;# 
  1239  0111                     	;# 
  1240  0112                     	;# 
  1241  0113                     	;# 
  1242  0114                     	;# 
  1243  0115                     	;# 
  1244  0116                     	;# 
  1245  0117                     	;# 
  1246  0118                     	;# 
  1247  0119                     	;# 
  1248  011A                     	;# 
  1249  011B                     	;# 
  1250  011C                     	;# 
  1251  011D                     	;# 
  1252  018C                     	;# 
  1253  018D                     	;# 
  1254  018E                     	;# 
  1255  0191                     	;# 
  1256  0191                     	;# 
  1257  0192                     	;# 
  1258  0193                     	;# 
  1259  0193                     	;# 
  1260  0194                     	;# 
  1261  0195                     	;# 
  1262  0196                     	;# 
  1263  0197                     	;# 
  1264  0199                     	;# 
  1265  0199                     	;# 
  1266  0199                     	;# 
  1267  019A                     	;# 
  1268  019A                     	;# 
  1269  019A                     	;# 
  1270  019B                     	;# 
  1271  019B                     	;# 
  1272  019B                     	;# 
  1273  019B                     	;# 
  1274  019B                     	;# 
  1275  019C                     	;# 
  1276  019C                     	;# 
  1277  019C                     	;# 
  1278  019D                     	;# 
  1279  019D                     	;# 
  1280  019D                     	;# 
  1281  019E                     	;# 
  1282  019E                     	;# 
  1283  019E                     	;# 
  1284  019F                     	;# 
  1285  019F                     	;# 
  1286  019F                     	;# 
  1287  019F                     	;# 
  1288  019F                     	;# 
  1289  020C                     	;# 
  1290  020D                     	;# 
  1291  020E                     	;# 
  1292  0210                     	;# 
  1293  0211                     	;# 
  1294  0211                     	;# 
  1295  0212                     	;# 
  1296  0212                     	;# 
  1297  0213                     	;# 
  1298  0213                     	;# 
  1299  0214                     	;# 
  1300  0214                     	;# 
  1301  0215                     	;# 
  1302  0215                     	;# 
  1303  0215                     	;# 
  1304  0215                     	;# 
  1305  0216                     	;# 
  1306  0216                     	;# 
  1307  0217                     	;# 
  1308  0217                     	;# 
  1309  021B                     	;# 
  1310  021C                     	;# 
  1311  021D                     	;# 
  1312  021E                     	;# 
  1313  021F                     	;# 
  1314  028C                     	;# 
  1315  028D                     	;# 
  1316  028E                     	;# 
  1317  0291                     	;# 
  1318  0291                     	;# 
  1319  0292                     	;# 
  1320  0293                     	;# 
  1321  0294                     	;# 
  1322  0295                     	;# 
  1323  0295                     	;# 
  1324  0296                     	;# 
  1325  0297                     	;# 
  1326  0298                     	;# 
  1327  0299                     	;# 
  1328  0299                     	;# 
  1329  029A                     	;# 
  1330  029B                     	;# 
  1331  029C                     	;# 
  1332  029E                     	;# 
  1333  029F                     	;# 
  1334  030C                     	;# 
  1335  030D                     	;# 
  1336  030E                     	;# 
  1337  0315                     	;# 
  1338  0316                     	;# 
  1339  0317                     	;# 
  1340  0318                     	;# 
  1341  0319                     	;# 
  1342  031B                     	;# 
  1343  031C                     	;# 
  1344  031D                     	;# 
  1345  031E                     	;# 
  1346  031F                     	;# 
  1347  038C                     	;# 
  1348  038D                     	;# 
  1349  038E                     	;# 
  1350  0390                     	;# 
  1351  0391                     	;# 
  1352  0392                     	;# 
  1353  0393                     	;# 
  1354  0394                     	;# 
  1355  0395                     	;# 
  1356  0396                     	;# 
  1357  0397                     	;# 
  1358  0398                     	;# 
  1359  0399                     	;# 
  1360  039D                     	;# 
  1361  039E                     	;# 
  1362  039F                     	;# 
  1363  040D                     	;# 
  1364  040F                     	;# 
  1365  040F                     	;# 
  1366  0410                     	;# 
  1367  0411                     	;# 
  1368  0412                     	;# 
  1369  0413                     	;# 
  1370  0413                     	;# 
  1371  0414                     	;# 
  1372  0414                     	;# 
  1373  0415                     	;# 
  1374  0416                     	;# 
  1375  0417                     	;# 
  1376  0418                     	;# 
  1377  041A                     	;# 
  1378  041A                     	;# 
  1379  041B                     	;# 
  1380  041B                     	;# 
  1381  041C                     	;# 
  1382  041D                     	;# 
  1383  041E                     	;# 
  1384  041F                     	;# 
  1385  048E                     	;# 
  1386  048E                     	;# 
  1387  048F                     	;# 
  1388  0490                     	;# 
  1389  0491                     	;# 
  1390  0492                     	;# 
  1391  0493                     	;# 
  1392  0493                     	;# 
  1393  0494                     	;# 
  1394  0494                     	;# 
  1395  0495                     	;# 
  1396  0496                     	;# 
  1397  0497                     	;# 
  1398  0498                     	;# 
  1399  049A                     	;# 
  1400  049A                     	;# 
  1401  049B                     	;# 
  1402  049B                     	;# 
  1403  049C                     	;# 
  1404  049D                     	;# 
  1405  049E                     	;# 
  1406  049F                     	;# 
  1407  050F                     	;# 
  1408  0510                     	;# 
  1409  0511                     	;# 
  1410  0512                     	;# 
  1411  0513                     	;# 
  1412  0514                     	;# 
  1413  0515                     	;# 
  1414  0516                     	;# 
  1415  0517                     	;# 
  1416  0518                     	;# 
  1417  0519                     	;# 
  1418  051A                     	;# 
  1419  058D                     	;# 
  1420  058E                     	;# 
  1421  058F                     	;# 
  1422  058F                     	;# 
  1423  058F                     	;# 
  1424  0590                     	;# 
  1425  0590                     	;# 
  1426  0591                     	;# 
  1427  0592                     	;# 
  1428  0592                     	;# 
  1429  0592                     	;# 
  1430  0593                     	;# 
  1431  0593                     	;# 
  1432  0594                     	;# 
  1433  0595                     	;# 
  1434  0595                     	;# 
  1435  0596                     	;# 
  1436  0597                     	;# 
  1437  0597                     	;# 
  1438  0598                     	;# 
  1439  0599                     	;# 
  1440  0599                     	;# 
  1441  0599                     	;# 
  1442  059A                     	;# 
  1443  059A                     	;# 
  1444  059E                     	;# 
  1445  059F                     	;# 
  1446  059F                     	;# 
  1447  0614                     	;# 
  1448  0614                     	;# 
  1449  0615                     	;# 
  1450  0616                     	;# 
  1451  0617                     	;# 
  1452  0617                     	;# 
  1453  0618                     	;# 
  1454  0619                     	;# 
  1455  061A                     	;# 
  1456  061A                     	;# 
  1457  061B                     	;# 
  1458  061C                     	;# 
  1459  068D                     	;# 
  1460  068E                     	;# 
  1461  068F                     	;# 
  1462  0690                     	;# 
  1463  0691                     	;# 
  1464  0692                     	;# 
  1465  0693                     	;# 
  1466  0694                     	;# 
  1467  0695                     	;# 
  1468  0696                     	;# 
  1469  0697                     	;# 
  1470  0698                     	;# 
  1471  0699                     	;# 
  1472  069A                     	;# 
  1473  069B                     	;# 
  1474  069C                     	;# 
  1475  069D                     	;# 
  1476  069E                     	;# 
  1477  069F                     	;# 
  1478  070D                     	;# 
  1479  070E                     	;# 
  1480  070F                     	;# 
  1481  0710                     	;# 
  1482  0711                     	;# 
  1483  0712                     	;# 
  1484  0713                     	;# 
  1485  0714                     	;# 
  1486  0715                     	;# 
  1487  0716                     	;# 
  1488  0717                     	;# 
  1489  0718                     	;# 
  1490  0719                     	;# 
  1491  071A                     	;# 
  1492  071B                     	;# 
  1493  071C                     	;# 
  1494  071D                     	;# 
  1495  071E                     	;# 
  1496  071F                     	;# 
  1497  078E                     	;# 
  1498  078F                     	;# 
  1499  0790                     	;# 
  1500  0791                     	;# 
  1501  0792                     	;# 
  1502  0793                     	;# 
  1503  0794                     	;# 
  1504  0795                     	;# 
  1505  0796                     	;# 
  1506  0797                     	;# 
  1507  0798                     	;# 
  1508  0799                     	;# 
  1509  079A                     	;# 
  1510  079B                     	;# 
  1511  079C                     	;# 
  1512  079D                     	;# 
  1513  079E                     	;# 
  1514  079F                     	;# 
  1515  080D                     	;# 
  1516  080E                     	;# 
  1517  080F                     	;# 
  1518  0810                     	;# 
  1519  0811                     	;# 
  1520  0812                     	;# 
  1521  0813                     	;# 
  1522  0814                     	;# 
  1523  0815                     	;# 
  1524  0816                     	;# 
  1525  0817                     	;# 
  1526  0818                     	;# 
  1527  0819                     	;# 
  1528  081A                     	;# 
  1529  081B                     	;# 
  1530  081C                     	;# 
  1531  081D                     	;# 
  1532  081E                     	;# 
  1533  081F                     	;# 
  1534  090C                     	;# 
  1535  090D                     	;# 
  1536  090E                     	;# 
  1537  090F                     	;# 
  1538  0910                     	;# 
  1539  0911                     	;# 
  1540  0912                     	;# 
  1541  0913                     	;# 
  1542  0914                     	;# 
  1543  0915                     	;# 
  1544  0916                     	;# 
  1545  0917                     	;# 
  1546  0D8E                     	;# 
  1547  0D8F                     	;# 
  1548  0D90                     	;# 
  1549  0D91                     	;# 
  1550  0D91                     	;# 
  1551  0D92                     	;# 
  1552  0D93                     	;# 
  1553  0D93                     	;# 
  1554  0D94                     	;# 
  1555  0D95                     	;# 
  1556  0D95                     	;# 
  1557  0D96                     	;# 
  1558  0D97                     	;# 
  1559  0D97                     	;# 
  1560  0D98                     	;# 
  1561  0D99                     	;# 
  1562  0D99                     	;# 
  1563  0D9A                     	;# 
  1564  0D9B                     	;# 
  1565  0D9C                     	;# 
  1566  0D9C                     	;# 
  1567  0D9D                     	;# 
  1568  0D9D                     	;# 
  1569  0D9E                     	;# 
  1570  0D9F                     	;# 
  1571  0DA0                     	;# 
  1572  0DA1                     	;# 
  1573  0DA1                     	;# 
  1574  0DA2                     	;# 
  1575  0DA3                     	;# 
  1576  0DA3                     	;# 
  1577  0DA4                     	;# 
  1578  0DA5                     	;# 
  1579  0DA5                     	;# 
  1580  0DA6                     	;# 
  1581  0DA7                     	;# 
  1582  0DA7                     	;# 
  1583  0DA8                     	;# 
  1584  0DA9                     	;# 
  1585  0DA9                     	;# 
  1586  0DAA                     	;# 
  1587  0DAB                     	;# 
  1588  0DAC                     	;# 
  1589  0DAC                     	;# 
  1590  0DAD                     	;# 
  1591  0DAD                     	;# 
  1592  0DAE                     	;# 
  1593  0DAF                     	;# 
  1594  0DB0                     	;# 
  1595  0DB1                     	;# 
  1596  0DB1                     	;# 
  1597  0DB2                     	;# 
  1598  0DB3                     	;# 
  1599  0DB3                     	;# 
  1600  0DB4                     	;# 
  1601  0DB5                     	;# 
  1602  0DB5                     	;# 
  1603  0DB6                     	;# 
  1604  0DB7                     	;# 
  1605  0DB7                     	;# 
  1606  0DB8                     	;# 
  1607  0DB9                     	;# 
  1608  0DB9                     	;# 
  1609  0DBA                     	;# 
  1610  0DBB                     	;# 
  1611  0DBC                     	;# 
  1612  0DBC                     	;# 
  1613  0DBD                     	;# 
  1614  0DBD                     	;# 
  1615  0DBE                     	;# 
  1616  0DBF                     	;# 
  1617  0DC0                     	;# 
  1618  0E0C                     	;# 
  1619  0E0D                     	;# 
  1620  0E0E                     	;# 
  1621  0E0F                     	;# 
  1622  0E10                     	;# 
  1623  0E11                     	;# 
  1624  0E12                     	;# 
  1625  0E13                     	;# 
  1626  0E14                     	;# 
  1627  0E15                     	;# 
  1628  0E15                     	;# 
  1629  0E15                     	;# 
  1630  0E16                     	;# 
  1631  0E16                     	;# 
  1632  0E16                     	;# 
  1633  0E17                     	;# 
  1634  0E17                     	;# 
  1635  0E17                     	;# 
  1636  0E18                     	;# 
  1637  0E18                     	;# 
  1638  0E18                     	;# 
  1639  0E19                     	;# 
  1640  0E1A                     	;# 
  1641  0E1B                     	;# 
  1642  0E1D                     	;# 
  1643  0E1E                     	;# 
  1644  0E1F                     	;# 
  1645  0E21                     	;# 
  1646  0E22                     	;# 
  1647  0E23                     	;# 
  1648  0E24                     	;# 
  1649  0E25                     	;# 
  1650  0E26                     	;# 
  1651  0E27                     	;# 
  1652  0E28                     	;# 
  1653  0E29                     	;# 
  1654  0E2D                     	;# 
  1655  0E2E                     	;# 
  1656  0E2F                     	;# 
  1657  0E30                     	;# 
  1658  0E31                     	;# 
  1659  0E32                     	;# 
  1660  0E35                     	;# 
  1661  0E36                     	;# 
  1662  0E37                     	;# 
  1663  0E38                     	;# 
  1664  0E39                     	;# 
  1665  0E3A                     	;# 
  1666  0E3B                     	;# 
  1667  0E3C                     	;# 
  1668  0E3D                     	;# 
  1669  0E3E                     	;# 
  1670  0E90                     	;# 
  1671  0E91                     	;# 
  1672  0E92                     	;# 
  1673  0E93                     	;# 
  1674  0E94                     	;# 
  1675  0E95                     	;# 
  1676  0E96                     	;# 
  1677  0E97                     	;# 
  1678  0E98                     	;# 
  1679  0E99                     	;# 
  1680  0E9A                     	;# 
  1681  0E9B                     	;# 
  1682  0E9C                     	;# 
  1683  0E9D                     	;# 
  1684  0E9E                     	;# 
  1685  0E9F                     	;# 
  1686  0EA0                     	;# 
  1687  0EA1                     	;# 
  1688  0EA2                     	;# 
  1689  0EA3                     	;# 
  1690  0EA4                     	;# 
  1691  0EA5                     	;# 
  1692  0EA6                     	;# 
  1693  0EA7                     	;# 
  1694  0F0F                     	;# 
  1695  0F10                     	;# 
  1696  0F11                     	;# 
  1697  0F12                     	;# 
  1698  0F13                     	;# 
  1699  0F14                     	;# 
  1700  0F15                     	;# 
  1701  0F16                     	;# 
  1702  0F17                     	;# 
  1703  0F18                     	;# 
  1704  0F19                     	;# 
  1705  0F1A                     	;# 
  1706  0F1B                     	;# 
  1707  0F1C                     	;# 
  1708  0F1D                     	;# 
  1709  0F1E                     	;# 
  1710  0F1F                     	;# 
  1711  0F20                     	;# 
  1712  0F21                     	;# 
  1713  0F22                     	;# 
  1714  0F23                     	;# 
  1715  0F24                     	;# 
  1716  0F25                     	;# 
  1717  0F26                     	;# 
  1718  0F27                     	;# 
  1719  0F28                     	;# 
  1720  0F29                     	;# 
  1721  0F2A                     	;# 
  1722  0F2B                     	;# 
  1723  0F2C                     	;# 
  1724  0F2D                     	;# 
  1725  0F2E                     	;# 
  1726  0F2F                     	;# 
  1727  0F30                     	;# 
  1728  0F31                     	;# 
  1729  0F32                     	;# 
  1730  0F33                     	;# 
  1731  0F34                     	;# 
  1732  0F35                     	;# 
  1733  0F36                     	;# 
  1734  0F37                     	;# 
  1735  0FE4                     	;# 
  1736  0FE5                     	;# 
  1737  0FE6                     	;# 
  1738  0FE7                     	;# 
  1739  0FE8                     	;# 
  1740  0FE9                     	;# 
  1741  0FEA                     	;# 
  1742  0FEB                     	;# 
  1743  0FED                     	;# 
  1744  0FEE                     	;# 
  1745  0FEF                     	;# 
  1746  0000                     	;# 
  1747  0001                     	;# 
  1748  0002                     	;# 
  1749  0003                     	;# 
  1750  0004                     	;# 
  1751  0005                     	;# 
  1752  0006                     	;# 
  1753  0007                     	;# 
  1754  0008                     	;# 
  1755  0009                     	;# 
  1756  000A                     	;# 
  1757  000B                     	;# 
  1758  000C                     	;# 
  1759  000D                     	;# 
  1760  000E                     	;# 
  1761  0010                     	;# 
  1762  0011                     	;# 
  1763  0012                     	;# 
  1764  0013                     	;# 
  1765  0014                     	;# 
  1766  0015                     	;# 
  1767  0016                     	;# 
  1768  0017                     	;# 
  1769  0018                     	;# 
  1770  0018                     	;# 
  1771  0019                     	;# 
  1772  001A                     	;# 
  1773  001B                     	;# 
  1774  001C                     	;# 
  1775  001C                     	;# 
  1776  001D                     	;# 
  1777  001E                     	;# 
  1778  001F                     	;# 
  1779  008C                     	;# 
  1780  008D                     	;# 
  1781  008E                     	;# 
  1782  0090                     	;# 
  1783  0091                     	;# 
  1784  0092                     	;# 
  1785  0093                     	;# 
  1786  0094                     	;# 
  1787  0095                     	;# 
  1788  0096                     	;# 
  1789  0097                     	;# 
  1790  0098                     	;# 
  1791  0099                     	;# 
  1792  009A                     	;# 
  1793  009B                     	;# 
  1794  009C                     	;# 
  1795  009D                     	;# 
  1796  009E                     	;# 
  1797  009F                     	;# 
  1798  010C                     	;# 
  1799  010D                     	;# 
  1800  010E                     	;# 
  1801  0111                     	;# 
  1802  0112                     	;# 
  1803  0113                     	;# 
  1804  0114                     	;# 
  1805  0115                     	;# 
  1806  0116                     	;# 
  1807  0117                     	;# 
  1808  0118                     	;# 
  1809  0119                     	;# 
  1810  011A                     	;# 
  1811  011B                     	;# 
  1812  011C                     	;# 
  1813  011D                     	;# 
  1814  018C                     	;# 
  1815  018D                     	;# 
  1816  018E                     	;# 
  1817  0191                     	;# 
  1818  0191                     	;# 
  1819  0192                     	;# 
  1820  0193                     	;# 
  1821  0193                     	;# 
  1822  0194                     	;# 
  1823  0195                     	;# 
  1824  0196                     	;# 
  1825  0197                     	;# 
  1826  0199                     	;# 
  1827  0199                     	;# 
  1828  0199                     	;# 
  1829  019A                     	;# 
  1830  019A                     	;# 
  1831  019A                     	;# 
  1832  019B                     	;# 
  1833  019B                     	;# 
  1834  019B                     	;# 
  1835  019B                     	;# 
  1836  019B                     	;# 
  1837  019C                     	;# 
  1838  019C                     	;# 
  1839  019C                     	;# 
  1840  019D                     	;# 
  1841  019D                     	;# 
  1842  019D                     	;# 
  1843  019E                     	;# 
  1844  019E                     	;# 
  1845  019E                     	;# 
  1846  019F                     	;# 
  1847  019F                     	;# 
  1848  019F                     	;# 
  1849  019F                     	;# 
  1850  019F                     	;# 
  1851  020C                     	;# 
  1852  020D                     	;# 
  1853  020E                     	;# 
  1854  0210                     	;# 
  1855  0211                     	;# 
  1856  0211                     	;# 
  1857  0212                     	;# 
  1858  0212                     	;# 
  1859  0213                     	;# 
  1860  0213                     	;# 
  1861  0214                     	;# 
  1862  0214                     	;# 
  1863  0215                     	;# 
  1864  0215                     	;# 
  1865  0215                     	;# 
  1866  0215                     	;# 
  1867  0216                     	;# 
  1868  0216                     	;# 
  1869  0217                     	;# 
  1870  0217                     	;# 
  1871  021B                     	;# 
  1872  021C                     	;# 
  1873  021D                     	;# 
  1874  021E                     	;# 
  1875  021F                     	;# 
  1876  028C                     	;# 
  1877  028D                     	;# 
  1878  028E                     	;# 
  1879  0291                     	;# 
  1880  0291                     	;# 
  1881  0292                     	;# 
  1882  0293                     	;# 
  1883  0294                     	;# 
  1884  0295                     	;# 
  1885  0295                     	;# 
  1886  0296                     	;# 
  1887  0297                     	;# 
  1888  0298                     	;# 
  1889  0299                     	;# 
  1890  0299                     	;# 
  1891  029A                     	;# 
  1892  029B                     	;# 
  1893  029C                     	;# 
  1894  029E                     	;# 
  1895  029F                     	;# 
  1896  030C                     	;# 
  1897  030D                     	;# 
  1898  030E                     	;# 
  1899  0315                     	;# 
  1900  0316                     	;# 
  1901  0317                     	;# 
  1902  0318                     	;# 
  1903  0319                     	;# 
  1904  031B                     	;# 
  1905  031C                     	;# 
  1906  031D                     	;# 
  1907  031E                     	;# 
  1908  031F                     	;# 
  1909  038C                     	;# 
  1910  038D                     	;# 
  1911  038E                     	;# 
  1912  0390                     	;# 
  1913  0391                     	;# 
  1914  0392                     	;# 
  1915  0393                     	;# 
  1916  0394                     	;# 
  1917  0395                     	;# 
  1918  0396                     	;# 
  1919  0397                     	;# 
  1920  0398                     	;# 
  1921  0399                     	;# 
  1922  039D                     	;# 
  1923  039E                     	;# 
  1924  039F                     	;# 
  1925  040D                     	;# 
  1926  040F                     	;# 
  1927  040F                     	;# 
  1928  0410                     	;# 
  1929  0411                     	;# 
  1930  0412                     	;# 
  1931  0413                     	;# 
  1932  0413                     	;# 
  1933  0414                     	;# 
  1934  0414                     	;# 
  1935  0415                     	;# 
  1936  0416                     	;# 
  1937  0417                     	;# 
  1938  0418                     	;# 
  1939  041A                     	;# 
  1940  041A                     	;# 
  1941  041B                     	;# 
  1942  041B                     	;# 
  1943  041C                     	;# 
  1944  041D                     	;# 
  1945  041E                     	;# 
  1946  041F                     	;# 
  1947  048E                     	;# 
  1948  048E                     	;# 
  1949  048F                     	;# 
  1950  0490                     	;# 
  1951  0491                     	;# 
  1952  0492                     	;# 
  1953  0493                     	;# 
  1954  0493                     	;# 
  1955  0494                     	;# 
  1956  0494                     	;# 
  1957  0495                     	;# 
  1958  0496                     	;# 
  1959  0497                     	;# 
  1960  0498                     	;# 
  1961  049A                     	;# 
  1962  049A                     	;# 
  1963  049B                     	;# 
  1964  049B                     	;# 
  1965  049C                     	;# 
  1966  049D                     	;# 
  1967  049E                     	;# 
  1968  049F                     	;# 
  1969  050F                     	;# 
  1970  0510                     	;# 
  1971  0511                     	;# 
  1972  0512                     	;# 
  1973  0513                     	;# 
  1974  0514                     	;# 
  1975  0515                     	;# 
  1976  0516                     	;# 
  1977  0517                     	;# 
  1978  0518                     	;# 
  1979  0519                     	;# 
  1980  051A                     	;# 
  1981  058D                     	;# 
  1982  058E                     	;# 
  1983  058F                     	;# 
  1984  058F                     	;# 
  1985  058F                     	;# 
  1986  0590                     	;# 
  1987  0590                     	;# 
  1988  0591                     	;# 
  1989  0592                     	;# 
  1990  0592                     	;# 
  1991  0592                     	;# 
  1992  0593                     	;# 
  1993  0593                     	;# 
  1994  0594                     	;# 
  1995  0595                     	;# 
  1996  0595                     	;# 
  1997  0596                     	;# 
  1998  0597                     	;# 
  1999  0597                     	;# 
  2000  0598                     	;# 
  2001  0599                     	;# 
  2002  0599                     	;# 
  2003  0599                     	;# 
  2004  059A                     	;# 
  2005  059A                     	;# 
  2006  059E                     	;# 
  2007  059F                     	;# 
  2008  059F                     	;# 
  2009  0614                     	;# 
  2010  0614                     	;# 
  2011  0615                     	;# 
  2012  0616                     	;# 
  2013  0617                     	;# 
  2014  0617                     	;# 
  2015  0618                     	;# 
  2016  0619                     	;# 
  2017  061A                     	;# 
  2018  061A                     	;# 
  2019  061B                     	;# 
  2020  061C                     	;# 
  2021  068D                     	;# 
  2022  068E                     	;# 
  2023  068F                     	;# 
  2024  0690                     	;# 
  2025  0691                     	;# 
  2026  0692                     	;# 
  2027  0693                     	;# 
  2028  0694                     	;# 
  2029  0695                     	;# 
  2030  0696                     	;# 
  2031  0697                     	;# 
  2032  0698                     	;# 
  2033  0699                     	;# 
  2034  069A                     	;# 
  2035  069B                     	;# 
  2036  069C                     	;# 
  2037  069D                     	;# 
  2038  069E                     	;# 
  2039  069F                     	;# 
  2040  070D                     	;# 
  2041  070E                     	;# 
  2042  070F                     	;# 
  2043  0710                     	;# 
  2044  0711                     	;# 
  2045  0712                     	;# 
  2046  0713                     	;# 
  2047  0714                     	;# 
  2048  0715                     	;# 
  2049  0716                     	;# 
  2050  0717                     	;# 
  2051  0718                     	;# 
  2052  0719                     	;# 
  2053  071A                     	;# 
  2054  071B                     	;# 
  2055  071C                     	;# 
  2056  071D                     	;# 
  2057  071E                     	;# 
  2058  071F                     	;# 
  2059  078E                     	;# 
  2060  078F                     	;# 
  2061  0790                     	;# 
  2062  0791                     	;# 
  2063  0792                     	;# 
  2064  0793                     	;# 
  2065  0794                     	;# 
  2066  0795                     	;# 
  2067  0796                     	;# 
  2068  0797                     	;# 
  2069  0798                     	;# 
  2070  0799                     	;# 
  2071  079A                     	;# 
  2072  079B                     	;# 
  2073  079C                     	;# 
  2074  079D                     	;# 
  2075  079E                     	;# 
  2076  079F                     	;# 
  2077  080D                     	;# 
  2078  080E                     	;# 
  2079  080F                     	;# 
  2080  0810                     	;# 
  2081  0811                     	;# 
  2082  0812                     	;# 
  2083  0813                     	;# 
  2084  0814                     	;# 
  2085  0815                     	;# 
  2086  0816                     	;# 
  2087  0817                     	;# 
  2088  0818                     	;# 
  2089  0819                     	;# 
  2090  081A                     	;# 
  2091  081B                     	;# 
  2092  081C                     	;# 
  2093  081D                     	;# 
  2094  081E                     	;# 
  2095  081F                     	;# 
  2096  090C                     	;# 
  2097  090D                     	;# 
  2098  090E                     	;# 
  2099  090F                     	;# 
  2100  0910                     	;# 
  2101  0911                     	;# 
  2102  0912                     	;# 
  2103  0913                     	;# 
  2104  0914                     	;# 
  2105  0915                     	;# 
  2106  0916                     	;# 
  2107  0917                     	;# 
  2108  0D8E                     	;# 
  2109  0D8F                     	;# 
  2110  0D90                     	;# 
  2111  0D91                     	;# 
  2112  0D91                     	;# 
  2113  0D92                     	;# 
  2114  0D93                     	;# 
  2115  0D93                     	;# 
  2116  0D94                     	;# 
  2117  0D95                     	;# 
  2118  0D95                     	;# 
  2119  0D96                     	;# 
  2120  0D97                     	;# 
  2121  0D97                     	;# 
  2122  0D98                     	;# 
  2123  0D99                     	;# 
  2124  0D99                     	;# 
  2125  0D9A                     	;# 
  2126  0D9B                     	;# 
  2127  0D9C                     	;# 
  2128  0D9C                     	;# 
  2129  0D9D                     	;# 
  2130  0D9D                     	;# 
  2131  0D9E                     	;# 
  2132  0D9F                     	;# 
  2133  0DA0                     	;# 
  2134  0DA1                     	;# 
  2135  0DA1                     	;# 
  2136  0DA2                     	;# 
  2137  0DA3                     	;# 
  2138  0DA3                     	;# 
  2139  0DA4                     	;# 
  2140  0DA5                     	;# 
  2141  0DA5                     	;# 
  2142  0DA6                     	;# 
  2143  0DA7                     	;# 
  2144  0DA7                     	;# 
  2145  0DA8                     	;# 
  2146  0DA9                     	;# 
  2147  0DA9                     	;# 
  2148  0DAA                     	;# 
  2149  0DAB                     	;# 
  2150  0DAC                     	;# 
  2151  0DAC                     	;# 
  2152  0DAD                     	;# 
  2153  0DAD                     	;# 
  2154  0DAE                     	;# 
  2155  0DAF                     	;# 
  2156  0DB0                     	;# 
  2157  0DB1                     	;# 
  2158  0DB1                     	;# 
  2159  0DB2                     	;# 
  2160  0DB3                     	;# 
  2161  0DB3                     	;# 
  2162  0DB4                     	;# 
  2163  0DB5                     	;# 
  2164  0DB5                     	;# 
  2165  0DB6                     	;# 
  2166  0DB7                     	;# 
  2167  0DB7                     	;# 
  2168  0DB8                     	;# 
  2169  0DB9                     	;# 
  2170  0DB9                     	;# 
  2171  0DBA                     	;# 
  2172  0DBB                     	;# 
  2173  0DBC                     	;# 
  2174  0DBC                     	;# 
  2175  0DBD                     	;# 
  2176  0DBD                     	;# 
  2177  0DBE                     	;# 
  2178  0DBF                     	;# 
  2179  0DC0                     	;# 
  2180  0E0C                     	;# 
  2181  0E0D                     	;# 
  2182  0E0E                     	;# 
  2183  0E0F                     	;# 
  2184  0E10                     	;# 
  2185  0E11                     	;# 
  2186  0E12                     	;# 
  2187  0E13                     	;# 
  2188  0E14                     	;# 
  2189  0E15                     	;# 
  2190  0E15                     	;# 
  2191  0E15                     	;# 
  2192  0E16                     	;# 
  2193  0E16                     	;# 
  2194  0E16                     	;# 
  2195  0E17                     	;# 
  2196  0E17                     	;# 
  2197  0E17                     	;# 
  2198  0E18                     	;# 
  2199  0E18                     	;# 
  2200  0E18                     	;# 
  2201  0E19                     	;# 
  2202  0E1A                     	;# 
  2203  0E1B                     	;# 
  2204  0E1D                     	;# 
  2205  0E1E                     	;# 
  2206  0E1F                     	;# 
  2207  0E21                     	;# 
  2208  0E22                     	;# 
  2209  0E23                     	;# 
  2210  0E24                     	;# 
  2211  0E25                     	;# 
  2212  0E26                     	;# 
  2213  0E27                     	;# 
  2214  0E28                     	;# 
  2215  0E29                     	;# 
  2216  0E2D                     	;# 
  2217  0E2E                     	;# 
  2218  0E2F                     	;# 
  2219  0E30                     	;# 
  2220  0E31                     	;# 
  2221  0E32                     	;# 
  2222  0E35                     	;# 
  2223  0E36                     	;# 
  2224  0E37                     	;# 
  2225  0E38                     	;# 
  2226  0E39                     	;# 
  2227  0E3A                     	;# 
  2228  0E3B                     	;# 
  2229  0E3C                     	;# 
  2230  0E3D                     	;# 
  2231  0E3E                     	;# 
  2232  0E90                     	;# 
  2233  0E91                     	;# 
  2234  0E92                     	;# 
  2235  0E93                     	;# 
  2236  0E94                     	;# 
  2237  0E95                     	;# 
  2238  0E96                     	;# 
  2239  0E97                     	;# 
  2240  0E98                     	;# 
  2241  0E99                     	;# 
  2242  0E9A                     	;# 
  2243  0E9B                     	;# 
  2244  0E9C                     	;# 
  2245  0E9D                     	;# 
  2246  0E9E                     	;# 
  2247  0E9F                     	;# 
  2248  0EA0                     	;# 
  2249  0EA1                     	;# 
  2250  0EA2                     	;# 
  2251  0EA3                     	;# 
  2252  0EA4                     	;# 
  2253  0EA5                     	;# 
  2254  0EA6                     	;# 
  2255  0EA7                     	;# 
  2256  0F0F                     	;# 
  2257  0F10                     	;# 
  2258  0F11                     	;# 
  2259  0F12                     	;# 
  2260  0F13                     	;# 
  2261  0F14                     	;# 
  2262  0F15                     	;# 
  2263  0F16                     	;# 
  2264  0F17                     	;# 
  2265  0F18                     	;# 
  2266  0F19                     	;# 
  2267  0F1A                     	;# 
  2268  0F1B                     	;# 
  2269  0F1C                     	;# 
  2270  0F1D                     	;# 
  2271  0F1E                     	;# 
  2272  0F1F                     	;# 
  2273  0F20                     	;# 
  2274  0F21                     	;# 
  2275  0F22                     	;# 
  2276  0F23                     	;# 
  2277  0F24                     	;# 
  2278  0F25                     	;# 
  2279  0F26                     	;# 
  2280  0F27                     	;# 
  2281  0F28                     	;# 
  2282  0F29                     	;# 
  2283  0F2A                     	;# 
  2284  0F2B                     	;# 
  2285  0F2C                     	;# 
  2286  0F2D                     	;# 
  2287  0F2E                     	;# 
  2288  0F2F                     	;# 
  2289  0F30                     	;# 
  2290  0F31                     	;# 
  2291  0F32                     	;# 
  2292  0F33                     	;# 
  2293  0F34                     	;# 
  2294  0F35                     	;# 
  2295  0F36                     	;# 
  2296  0F37                     	;# 
  2297  0FE4                     	;# 
  2298  0FE5                     	;# 
  2299  0FE6                     	;# 
  2300  0FE7                     	;# 
  2301  0FE8                     	;# 
  2302  0FE9                     	;# 
  2303  0FEA                     	;# 
  2304  0FEB                     	;# 
  2305  0FED                     	;# 
  2306  0FEE                     	;# 
  2307  0FEF                     	;# 
  2308  0000                     	;# 
  2309  0001                     	;# 
  2310  0002                     	;# 
  2311  0003                     	;# 
  2312  0004                     	;# 
  2313  0005                     	;# 
  2314  0006                     	;# 
  2315  0007                     	;# 
  2316  0008                     	;# 
  2317  0009                     	;# 
  2318  000A                     	;# 
  2319  000B                     	;# 
  2320  000C                     	;# 
  2321  000D                     	;# 
  2322  000E                     	;# 
  2323  0010                     	;# 
  2324  0011                     	;# 
  2325  0012                     	;# 
  2326  0013                     	;# 
  2327  0014                     	;# 
  2328  0015                     	;# 
  2329  0016                     	;# 
  2330  0017                     	;# 
  2331  0018                     	;# 
  2332  0018                     	;# 
  2333  0019                     	;# 
  2334  001A                     	;# 
  2335  001B                     	;# 
  2336  001C                     	;# 
  2337  001C                     	;# 
  2338  001D                     	;# 
  2339  001E                     	;# 
  2340  001F                     	;# 
  2341  008C                     	;# 
  2342  008D                     	;# 
  2343  008E                     	;# 
  2344  0090                     	;# 
  2345  0091                     	;# 
  2346  0092                     	;# 
  2347  0093                     	;# 
  2348  0094                     	;# 
  2349  0095                     	;# 
  2350  0096                     	;# 
  2351  0097                     	;# 
  2352  0098                     	;# 
  2353  0099                     	;# 
  2354  009A                     	;# 
  2355  009B                     	;# 
  2356  009C                     	;# 
  2357  009D                     	;# 
  2358  009E                     	;# 
  2359  009F                     	;# 
  2360  010C                     	;# 
  2361  010D                     	;# 
  2362  010E                     	;# 
  2363  0111                     	;# 
  2364  0112                     	;# 
  2365  0113                     	;# 
  2366  0114                     	;# 
  2367  0115                     	;# 
  2368  0116                     	;# 
  2369  0117                     	;# 
  2370  0118                     	;# 
  2371  0119                     	;# 
  2372  011A                     	;# 
  2373  011B                     	;# 
  2374  011C                     	;# 
  2375  011D                     	;# 
  2376  018C                     	;# 
  2377  018D                     	;# 
  2378  018E                     	;# 
  2379  0191                     	;# 
  2380  0191                     	;# 
  2381  0192                     	;# 
  2382  0193                     	;# 
  2383  0193                     	;# 
  2384  0194                     	;# 
  2385  0195                     	;# 
  2386  0196                     	;# 
  2387  0197                     	;# 
  2388  0199                     	;# 
  2389  0199                     	;# 
  2390  0199                     	;# 
  2391  019A                     	;# 
  2392  019A                     	;# 
  2393  019A                     	;# 
  2394  019B                     	;# 
  2395  019B                     	;# 
  2396  019B                     	;# 
  2397  019B                     	;# 
  2398  019B                     	;# 
  2399  019C                     	;# 
  2400  019C                     	;# 
  2401  019C                     	;# 
  2402  019D                     	;# 
  2403  019D                     	;# 
  2404  019D                     	;# 
  2405  019E                     	;# 
  2406  019E                     	;# 
  2407  019E                     	;# 
  2408  019F                     	;# 
  2409  019F                     	;# 
  2410  019F                     	;# 
  2411  019F                     	;# 
  2412  019F                     	;# 
  2413  020C                     	;# 
  2414  020D                     	;# 
  2415  020E                     	;# 
  2416  0210                     	;# 
  2417  0211                     	;# 
  2418  0211                     	;# 
  2419  0212                     	;# 
  2420  0212                     	;# 
  2421  0213                     	;# 
  2422  0213                     	;# 
  2423  0214                     	;# 
  2424  0214                     	;# 
  2425  0215                     	;# 
  2426  0215                     	;# 
  2427  0215                     	;# 
  2428  0215                     	;# 
  2429  0216                     	;# 
  2430  0216                     	;# 
  2431  0217                     	;# 
  2432  0217                     	;# 
  2433  021B                     	;# 
  2434  021C                     	;# 
  2435  021D                     	;# 
  2436  021E                     	;# 
  2437  021F                     	;# 
  2438  028C                     	;# 
  2439  028D                     	;# 
  2440  028E                     	;# 
  2441  0291                     	;# 
  2442  0291                     	;# 
  2443  0292                     	;# 
  2444  0293                     	;# 
  2445  0294                     	;# 
  2446  0295                     	;# 
  2447  0295                     	;# 
  2448  0296                     	;# 
  2449  0297                     	;# 
  2450  0298                     	;# 
  2451  0299                     	;# 
  2452  0299                     	;# 
  2453  029A                     	;# 
  2454  029B                     	;# 
  2455  029C                     	;# 
  2456  029E                     	;# 
  2457  029F                     	;# 
  2458  030C                     	;# 
  2459  030D                     	;# 
  2460  030E                     	;# 
  2461  0315                     	;# 
  2462  0316                     	;# 
  2463  0317                     	;# 
  2464  0318                     	;# 
  2465  0319                     	;# 
  2466  031B                     	;# 
  2467  031C                     	;# 
  2468  031D                     	;# 
  2469  031E                     	;# 
  2470  031F                     	;# 
  2471  038C                     	;# 
  2472  038D                     	;# 
  2473  038E                     	;# 
  2474  0390                     	;# 
  2475  0391                     	;# 
  2476  0392                     	;# 
  2477  0393                     	;# 
  2478  0394                     	;# 
  2479  0395                     	;# 
  2480  0396                     	;# 
  2481  0397                     	;# 
  2482  0398                     	;# 
  2483  0399                     	;# 
  2484  039D                     	;# 
  2485  039E                     	;# 
  2486  039F                     	;# 
  2487  040D                     	;# 
  2488  040F                     	;# 
  2489  040F                     	;# 
  2490  0410                     	;# 
  2491  0411                     	;# 
  2492  0412                     	;# 
  2493  0413                     	;# 
  2494  0413                     	;# 
  2495  0414                     	;# 
  2496  0414                     	;# 
  2497  0415                     	;# 
  2498  0416                     	;# 
  2499  0417                     	;# 
  2500  0418                     	;# 
  2501  041A                     	;# 
  2502  041A                     	;# 
  2503  041B                     	;# 
  2504  041B                     	;# 
  2505  041C                     	;# 
  2506  041D                     	;# 
  2507  041E                     	;# 
  2508  041F                     	;# 
  2509  048E                     	;# 
  2510  048E                     	;# 
  2511  048F                     	;# 
  2512  0490                     	;# 
  2513  0491                     	;# 
  2514  0492                     	;# 
  2515  0493                     	;# 
  2516  0493                     	;# 
  2517  0494                     	;# 
  2518  0494                     	;# 
  2519  0495                     	;# 
  2520  0496                     	;# 
  2521  0497                     	;# 
  2522  0498                     	;# 
  2523  049A                     	;# 
  2524  049A                     	;# 
  2525  049B                     	;# 
  2526  049B                     	;# 
  2527  049C                     	;# 
  2528  049D                     	;# 
  2529  049E                     	;# 
  2530  049F                     	;# 
  2531  050F                     	;# 
  2532  0510                     	;# 
  2533  0511                     	;# 
  2534  0512                     	;# 
  2535  0513                     	;# 
  2536  0514                     	;# 
  2537  0515                     	;# 
  2538  0516                     	;# 
  2539  0517                     	;# 
  2540  0518                     	;# 
  2541  0519                     	;# 
  2542  051A                     	;# 
  2543  058D                     	;# 
  2544  058E                     	;# 
  2545  058F                     	;# 
  2546  058F                     	;# 
  2547  058F                     	;# 
  2548  0590                     	;# 
  2549  0590                     	;# 
  2550  0591                     	;# 
  2551  0592                     	;# 
  2552  0592                     	;# 
  2553  0592                     	;# 
  2554  0593                     	;# 
  2555  0593                     	;# 
  2556  0594                     	;# 
  2557  0595                     	;# 
  2558  0595                     	;# 
  2559  0596                     	;# 
  2560  0597                     	;# 
  2561  0597                     	;# 
  2562  0598                     	;# 
  2563  0599                     	;# 
  2564  0599                     	;# 
  2565  0599                     	;# 
  2566  059A                     	;# 
  2567  059A                     	;# 
  2568  059E                     	;# 
  2569  059F                     	;# 
  2570  059F                     	;# 
  2571  0614                     	;# 
  2572  0614                     	;# 
  2573  0615                     	;# 
  2574  0616                     	;# 
  2575  0617                     	;# 
  2576  0617                     	;# 
  2577  0618                     	;# 
  2578  0619                     	;# 
  2579  061A                     	;# 
  2580  061A                     	;# 
  2581  061B                     	;# 
  2582  061C                     	;# 
  2583  068D                     	;# 
  2584  068E                     	;# 
  2585  068F                     	;# 
  2586  0690                     	;# 
  2587  0691                     	;# 
  2588  0692                     	;# 
  2589  0693                     	;# 
  2590  0694                     	;# 
  2591  0695                     	;# 
  2592  0696                     	;# 
  2593  0697                     	;# 
  2594  0698                     	;# 
  2595  0699                     	;# 
  2596  069A                     	;# 
  2597  069B                     	;# 
  2598  069C                     	;# 
  2599  069D                     	;# 
  2600  069E                     	;# 
  2601  069F                     	;# 
  2602  070D                     	;# 
  2603  070E                     	;# 
  2604  070F                     	;# 
  2605  0710                     	;# 
  2606  0711                     	;# 
  2607  0712                     	;# 
  2608  0713                     	;# 
  2609  0714                     	;# 
  2610  0715                     	;# 
  2611  0716                     	;# 
  2612  0717                     	;# 
  2613  0718                     	;# 
  2614  0719                     	;# 
  2615  071A                     	;# 
  2616  071B                     	;# 
  2617  071C                     	;# 
  2618  071D                     	;# 
  2619  071E                     	;# 
  2620  071F                     	;# 
  2621  078E                     	;# 
  2622  078F                     	;# 
  2623  0790                     	;# 
  2624  0791                     	;# 
  2625  0792                     	;# 
  2626  0793                     	;# 
  2627  0794                     	;# 
  2628  0795                     	;# 
  2629  0796                     	;# 
  2630  0797                     	;# 
  2631  0798                     	;# 
  2632  0799                     	;# 
  2633  079A                     	;# 
  2634  079B                     	;# 
  2635  079C                     	;# 
  2636  079D                     	;# 
  2637  079E                     	;# 
  2638  079F                     	;# 
  2639  080D                     	;# 
  2640  080E                     	;# 
  2641  080F                     	;# 
  2642  0810                     	;# 
  2643  0811                     	;# 
  2644  0812                     	;# 
  2645  0813                     	;# 
  2646  0814                     	;# 
  2647  0815                     	;# 
  2648  0816                     	;# 
  2649  0817                     	;# 
  2650  0818                     	;# 
  2651  0819                     	;# 
  2652  081A                     	;# 
  2653  081B                     	;# 
  2654  081C                     	;# 
  2655  081D                     	;# 
  2656  081E                     	;# 
  2657  081F                     	;# 
  2658  090C                     	;# 
  2659  090D                     	;# 
  2660  090E                     	;# 
  2661  090F                     	;# 
  2662  0910                     	;# 
  2663  0911                     	;# 
  2664  0912                     	;# 
  2665  0913                     	;# 
  2666  0914                     	;# 
  2667  0915                     	;# 
  2668  0916                     	;# 
  2669  0917                     	;# 
  2670  0D8E                     	;# 
  2671  0D8F                     	;# 
  2672  0D90                     	;# 
  2673  0D91                     	;# 
  2674  0D91                     	;# 
  2675  0D92                     	;# 
  2676  0D93                     	;# 
  2677  0D93                     	;# 
  2678  0D94                     	;# 
  2679  0D95                     	;# 
  2680  0D95                     	;# 
  2681  0D96                     	;# 
  2682  0D97                     	;# 
  2683  0D97                     	;# 
  2684  0D98                     	;# 
  2685  0D99                     	;# 
  2686  0D99                     	;# 
  2687  0D9A                     	;# 
  2688  0D9B                     	;# 
  2689  0D9C                     	;# 
  2690  0D9C                     	;# 
  2691  0D9D                     	;# 
  2692  0D9D                     	;# 
  2693  0D9E                     	;# 
  2694  0D9F                     	;# 
  2695  0DA0                     	;# 
  2696  0DA1                     	;# 
  2697  0DA1                     	;# 
  2698  0DA2                     	;# 
  2699  0DA3                     	;# 
  2700  0DA3                     	;# 
  2701  0DA4                     	;# 
  2702  0DA5                     	;# 
  2703  0DA5                     	;# 
  2704  0DA6                     	;# 
  2705  0DA7                     	;# 
  2706  0DA7                     	;# 
  2707  0DA8                     	;# 
  2708  0DA9                     	;# 
  2709  0DA9                     	;# 
  2710  0DAA                     	;# 
  2711  0DAB                     	;# 
  2712  0DAC                     	;# 
  2713  0DAC                     	;# 
  2714  0DAD                     	;# 
  2715  0DAD                     	;# 
  2716  0DAE                     	;# 
  2717  0DAF                     	;# 
  2718  0DB0                     	;# 
  2719  0DB1                     	;# 
  2720  0DB1                     	;# 
  2721  0DB2                     	;# 
  2722  0DB3                     	;# 
  2723  0DB3                     	;# 
  2724  0DB4                     	;# 
  2725  0DB5                     	;# 
  2726  0DB5                     	;# 
  2727  0DB6                     	;# 
  2728  0DB7                     	;# 
  2729  0DB7                     	;# 
  2730  0DB8                     	;# 
  2731  0DB9                     	;# 
  2732  0DB9                     	;# 
  2733  0DBA                     	;# 
  2734  0DBB                     	;# 
  2735  0DBC                     	;# 
  2736  0DBC                     	;# 
  2737  0DBD                     	;# 
  2738  0DBD                     	;# 
  2739  0DBE                     	;# 
  2740  0DBF                     	;# 
  2741  0DC0                     	;# 
  2742  0E0C                     	;# 
  2743  0E0D                     	;# 
  2744  0E0E                     	;# 
  2745  0E0F                     	;# 
  2746  0E10                     	;# 
  2747  0E11                     	;# 
  2748  0E12                     	;# 
  2749  0E13                     	;# 
  2750  0E14                     	;# 
  2751  0E15                     	;# 
  2752  0E15                     	;# 
  2753  0E15                     	;# 
  2754  0E16                     	;# 
  2755  0E16                     	;# 
  2756  0E16                     	;# 
  2757  0E17                     	;# 
  2758  0E17                     	;# 
  2759  0E17                     	;# 
  2760  0E18                     	;# 
  2761  0E18                     	;# 
  2762  0E18                     	;# 
  2763  0E19                     	;# 
  2764  0E1A                     	;# 
  2765  0E1B                     	;# 
  2766  0E1D                     	;# 
  2767  0E1E                     	;# 
  2768  0E1F                     	;# 
  2769  0E21                     	;# 
  2770  0E22                     	;# 
  2771  0E23                     	;# 
  2772  0E24                     	;# 
  2773  0E25                     	;# 
  2774  0E26                     	;# 
  2775  0E27                     	;# 
  2776  0E28                     	;# 
  2777  0E29                     	;# 
  2778  0E2D                     	;# 
  2779  0E2E                     	;# 
  2780  0E2F                     	;# 
  2781  0E30                     	;# 
  2782  0E31                     	;# 
  2783  0E32                     	;# 
  2784  0E35                     	;# 
  2785  0E36                     	;# 
  2786  0E37                     	;# 
  2787  0E38                     	;# 
  2788  0E39                     	;# 
  2789  0E3A                     	;# 
  2790  0E3B                     	;# 
  2791  0E3C                     	;# 
  2792  0E3D                     	;# 
  2793  0E3E                     	;# 
  2794  0E90                     	;# 
  2795  0E91                     	;# 
  2796  0E92                     	;# 
  2797  0E93                     	;# 
  2798  0E94                     	;# 
  2799  0E95                     	;# 
  2800  0E96                     	;# 
  2801  0E97                     	;# 
  2802  0E98                     	;# 
  2803  0E99                     	;# 
  2804  0E9A                     	;# 
  2805  0E9B                     	;# 
  2806  0E9C                     	;# 
  2807  0E9D                     	;# 
  2808  0E9E                     	;# 
  2809  0E9F                     	;# 
  2810  0EA0                     	;# 
  2811  0EA1                     	;# 
  2812  0EA2                     	;# 
  2813  0EA3                     	;# 
  2814  0EA4                     	;# 
  2815  0EA5                     	;# 
  2816  0EA6                     	;# 
  2817  0EA7                     	;# 
  2818  0F0F                     	;# 
  2819  0F10                     	;# 
  2820  0F11                     	;# 
  2821  0F12                     	;# 
  2822  0F13                     	;# 
  2823  0F14                     	;# 
  2824  0F15                     	;# 
  2825  0F16                     	;# 
  2826  0F17                     	;# 
  2827  0F18                     	;# 
  2828  0F19                     	;# 
  2829  0F1A                     	;# 
  2830  0F1B                     	;# 
  2831  0F1C                     	;# 
  2832  0F1D                     	;# 
  2833  0F1E                     	;# 
  2834  0F1F                     	;# 
  2835  0F20                     	;# 
  2836  0F21                     	;# 
  2837  0F22                     	;# 
  2838  0F23                     	;# 
  2839  0F24                     	;# 
  2840  0F25                     	;# 
  2841  0F26                     	;# 
  2842  0F27                     	;# 
  2843  0F28                     	;# 
  2844  0F29                     	;# 
  2845  0F2A                     	;# 
  2846  0F2B                     	;# 
  2847  0F2C                     	;# 
  2848  0F2D                     	;# 
  2849  0F2E                     	;# 
  2850  0F2F                     	;# 
  2851  0F30                     	;# 
  2852  0F31                     	;# 
  2853  0F32                     	;# 
  2854  0F33                     	;# 
  2855  0F34                     	;# 
  2856  0F35                     	;# 
  2857  0F36                     	;# 
  2858  0F37                     	;# 
  2859  0FE4                     	;# 
  2860  0FE5                     	;# 
  2861  0FE6                     	;# 
  2862  0FE7                     	;# 
  2863  0FE8                     	;# 
  2864  0FE9                     	;# 
  2865  0FEA                     	;# 
  2866  0FEB                     	;# 
  2867  0FED                     	;# 
  2868  0FEE                     	;# 
  2869  0FEF                     	;# 
  2870  0000                     	;# 
  2871  0001                     	;# 
  2872  0002                     	;# 
  2873  0003                     	;# 
  2874  0004                     	;# 
  2875  0005                     	;# 
  2876  0006                     	;# 
  2877  0007                     	;# 
  2878  0008                     	;# 
  2879  0009                     	;# 
  2880  000A                     	;# 
  2881  000B                     	;# 
  2882  000C                     	;# 
  2883  000D                     	;# 
  2884  000E                     	;# 
  2885  0010                     	;# 
  2886  0011                     	;# 
  2887  0012                     	;# 
  2888  0013                     	;# 
  2889  0014                     	;# 
  2890  0015                     	;# 
  2891  0016                     	;# 
  2892  0017                     	;# 
  2893  0018                     	;# 
  2894  0018                     	;# 
  2895  0019                     	;# 
  2896  001A                     	;# 
  2897  001B                     	;# 
  2898  001C                     	;# 
  2899  001C                     	;# 
  2900  001D                     	;# 
  2901  001E                     	;# 
  2902  001F                     	;# 
  2903  008C                     	;# 
  2904  008D                     	;# 
  2905  008E                     	;# 
  2906  0090                     	;# 
  2907  0091                     	;# 
  2908  0092                     	;# 
  2909  0093                     	;# 
  2910  0094                     	;# 
  2911  0095                     	;# 
  2912  0096                     	;# 
  2913  0097                     	;# 
  2914  0098                     	;# 
  2915  0099                     	;# 
  2916  009A                     	;# 
  2917  009B                     	;# 
  2918  009C                     	;# 
  2919  009D                     	;# 
  2920  009E                     	;# 
  2921  009F                     	;# 
  2922  010C                     	;# 
  2923  010D                     	;# 
  2924  010E                     	;# 
  2925  0111                     	;# 
  2926  0112                     	;# 
  2927  0113                     	;# 
  2928  0114                     	;# 
  2929  0115                     	;# 
  2930  0116                     	;# 
  2931  0117                     	;# 
  2932  0118                     	;# 
  2933  0119                     	;# 
  2934  011A                     	;# 
  2935  011B                     	;# 
  2936  011C                     	;# 
  2937  011D                     	;# 
  2938  018C                     	;# 
  2939  018D                     	;# 
  2940  018E                     	;# 
  2941  0191                     	;# 
  2942  0191                     	;# 
  2943  0192                     	;# 
  2944  0193                     	;# 
  2945  0193                     	;# 
  2946  0194                     	;# 
  2947  0195                     	;# 
  2948  0196                     	;# 
  2949  0197                     	;# 
  2950  0199                     	;# 
  2951  0199                     	;# 
  2952  0199                     	;# 
  2953  019A                     	;# 
  2954  019A                     	;# 
  2955  019A                     	;# 
  2956  019B                     	;# 
  2957  019B                     	;# 
  2958  019B                     	;# 
  2959  019B                     	;# 
  2960  019B                     	;# 
  2961  019C                     	;# 
  2962  019C                     	;# 
  2963  019C                     	;# 
  2964  019D                     	;# 
  2965  019D                     	;# 
  2966  019D                     	;# 
  2967  019E                     	;# 
  2968  019E                     	;# 
  2969  019E                     	;# 
  2970  019F                     	;# 
  2971  019F                     	;# 
  2972  019F                     	;# 
  2973  019F                     	;# 
  2974  019F                     	;# 
  2975  020C                     	;# 
  2976  020D                     	;# 
  2977  020E                     	;# 
  2978  0210                     	;# 
  2979  0211                     	;# 
  2980  0211                     	;# 
  2981  0212                     	;# 
  2982  0212                     	;# 
  2983  0213                     	;# 
  2984  0213                     	;# 
  2985  0214                     	;# 
  2986  0214                     	;# 
  2987  0215                     	;# 
  2988  0215                     	;# 
  2989  0215                     	;# 
  2990  0215                     	;# 
  2991  0216                     	;# 
  2992  0216                     	;# 
  2993  0217                     	;# 
  2994  0217                     	;# 
  2995  021B                     	;# 
  2996  021C                     	;# 
  2997  021D                     	;# 
  2998  021E                     	;# 
  2999  021F                     	;# 
  3000  028C                     	;# 
  3001  028D                     	;# 
  3002  028E                     	;# 
  3003  0291                     	;# 
  3004  0291                     	;# 
  3005  0292                     	;# 
  3006  0293                     	;# 
  3007  0294                     	;# 
  3008  0295                     	;# 
  3009  0295                     	;# 
  3010  0296                     	;# 
  3011  0297                     	;# 
  3012  0298                     	;# 
  3013  0299                     	;# 
  3014  0299                     	;# 
  3015  029A                     	;# 
  3016  029B                     	;# 
  3017  029C                     	;# 
  3018  029E                     	;# 
  3019  029F                     	;# 
  3020  030C                     	;# 
  3021  030D                     	;# 
  3022  030E                     	;# 
  3023  0315                     	;# 
  3024  0316                     	;# 
  3025  0317                     	;# 
  3026  0318                     	;# 
  3027  0319                     	;# 
  3028  031B                     	;# 
  3029  031C                     	;# 
  3030  031D                     	;# 
  3031  031E                     	;# 
  3032  031F                     	;# 
  3033  038C                     	;# 
  3034  038D                     	;# 
  3035  038E                     	;# 
  3036  0390                     	;# 
  3037  0391                     	;# 
  3038  0392                     	;# 
  3039  0393                     	;# 
  3040  0394                     	;# 
  3041  0395                     	;# 
  3042  0396                     	;# 
  3043  0397                     	;# 
  3044  0398                     	;# 
  3045  0399                     	;# 
  3046  039D                     	;# 
  3047  039E                     	;# 
  3048  039F                     	;# 
  3049  040D                     	;# 
  3050  040F                     	;# 
  3051  040F                     	;# 
  3052  0410                     	;# 
  3053  0411                     	;# 
  3054  0412                     	;# 
  3055  0413                     	;# 
  3056  0413                     	;# 
  3057  0414                     	;# 
  3058  0414                     	;# 
  3059  0415                     	;# 
  3060  0416                     	;# 
  3061  0417                     	;# 
  3062  0418                     	;# 
  3063  041A                     	;# 
  3064  041A                     	;# 
  3065  041B                     	;# 
  3066  041B                     	;# 
  3067  041C                     	;# 
  3068  041D                     	;# 
  3069  041E                     	;# 
  3070  041F                     	;# 
  3071  048E                     	;# 
  3072  048E                     	;# 
  3073  048F                     	;# 
  3074  0490                     	;# 
  3075  0491                     	;# 
  3076  0492                     	;# 
  3077  0493                     	;# 
  3078  0493                     	;# 
  3079  0494                     	;# 
  3080  0494                     	;# 
  3081  0495                     	;# 
  3082  0496                     	;# 
  3083  0497                     	;# 
  3084  0498                     	;# 
  3085  049A                     	;# 
  3086  049A                     	;# 
  3087  049B                     	;# 
  3088  049B                     	;# 
  3089  049C                     	;# 
  3090  049D                     	;# 
  3091  049E                     	;# 
  3092  049F                     	;# 
  3093  050F                     	;# 
  3094  0510                     	;# 
  3095  0511                     	;# 
  3096  0512                     	;# 
  3097  0513                     	;# 
  3098  0514                     	;# 
  3099  0515                     	;# 
  3100  0516                     	;# 
  3101  0517                     	;# 
  3102  0518                     	;# 
  3103  0519                     	;# 
  3104  051A                     	;# 
  3105  058D                     	;# 
  3106  058E                     	;# 
  3107  058F                     	;# 
  3108  058F                     	;# 
  3109  058F                     	;# 
  3110  0590                     	;# 
  3111  0590                     	;# 
  3112  0591                     	;# 
  3113  0592                     	;# 
  3114  0592                     	;# 
  3115  0592                     	;# 
  3116  0593                     	;# 
  3117  0593                     	;# 
  3118  0594                     	;# 
  3119  0595                     	;# 
  3120  0595                     	;# 
  3121  0596                     	;# 
  3122  0597                     	;# 
  3123  0597                     	;# 
  3124  0598                     	;# 
  3125  0599                     	;# 
  3126  0599                     	;# 
  3127  0599                     	;# 
  3128  059A                     	;# 
  3129  059A                     	;# 
  3130  059E                     	;# 
  3131  059F                     	;# 
  3132  059F                     	;# 
  3133  0614                     	;# 
  3134  0614                     	;# 
  3135  0615                     	;# 
  3136  0616                     	;# 
  3137  0617                     	;# 
  3138  0617                     	;# 
  3139  0618                     	;# 
  3140  0619                     	;# 
  3141  061A                     	;# 
  3142  061A                     	;# 
  3143  061B                     	;# 
  3144  061C                     	;# 
  3145  068D                     	;# 
  3146  068E                     	;# 
  3147  068F                     	;# 
  3148  0690                     	;# 
  3149  0691                     	;# 
  3150  0692                     	;# 
  3151  0693                     	;# 
  3152  0694                     	;# 
  3153  0695                     	;# 
  3154  0696                     	;# 
  3155  0697                     	;# 
  3156  0698                     	;# 
  3157  0699                     	;# 
  3158  069A                     	;# 
  3159  069B                     	;# 
  3160  069C                     	;# 
  3161  069D                     	;# 
  3162  069E                     	;# 
  3163  069F                     	;# 
  3164  070D                     	;# 
  3165  070E                     	;# 
  3166  070F                     	;# 
  3167  0710                     	;# 
  3168  0711                     	;# 
  3169  0712                     	;# 
  3170  0713                     	;# 
  3171  0714                     	;# 
  3172  0715                     	;# 
  3173  0716                     	;# 
  3174  0717                     	;# 
  3175  0718                     	;# 
  3176  0719                     	;# 
  3177  071A                     	;# 
  3178  071B                     	;# 
  3179  071C                     	;# 
  3180  071D                     	;# 
  3181  071E                     	;# 
  3182  071F                     	;# 
  3183  078E                     	;# 
  3184  078F                     	;# 
  3185  0790                     	;# 
  3186  0791                     	;# 
  3187  0792                     	;# 
  3188  0793                     	;# 
  3189  0794                     	;# 
  3190  0795                     	;# 
  3191  0796                     	;# 
  3192  0797                     	;# 
  3193  0798                     	;# 
  3194  0799                     	;# 
  3195  079A                     	;# 
  3196  079B                     	;# 
  3197  079C                     	;# 
  3198  079D                     	;# 
  3199  079E                     	;# 
  3200  079F                     	;# 
  3201  080D                     	;# 
  3202  080E                     	;# 
  3203  080F                     	;# 
  3204  0810                     	;# 
  3205  0811                     	;# 
  3206  0812                     	;# 
  3207  0813                     	;# 
  3208  0814                     	;# 
  3209  0815                     	;# 
  3210  0816                     	;# 
  3211  0817                     	;# 
  3212  0818                     	;# 
  3213  0819                     	;# 
  3214  081A                     	;# 
  3215  081B                     	;# 
  3216  081C                     	;# 
  3217  081D                     	;# 
  3218  081E                     	;# 
  3219  081F                     	;# 
  3220  090C                     	;# 
  3221  090D                     	;# 
  3222  090E                     	;# 
  3223  090F                     	;# 
  3224  0910                     	;# 
  3225  0911                     	;# 
  3226  0912                     	;# 
  3227  0913                     	;# 
  3228  0914                     	;# 
  3229  0915                     	;# 
  3230  0916                     	;# 
  3231  0917                     	;# 
  3232  0D8E                     	;# 
  3233  0D8F                     	;# 
  3234  0D90                     	;# 
  3235  0D91                     	;# 
  3236  0D91                     	;# 
  3237  0D92                     	;# 
  3238  0D93                     	;# 
  3239  0D93                     	;# 
  3240  0D94                     	;# 
  3241  0D95                     	;# 
  3242  0D95                     	;# 
  3243  0D96                     	;# 
  3244  0D97                     	;# 
  3245  0D97                     	;# 
  3246  0D98                     	;# 
  3247  0D99                     	;# 
  3248  0D99                     	;# 
  3249  0D9A                     	;# 
  3250  0D9B                     	;# 
  3251  0D9C                     	;# 
  3252  0D9C                     	;# 
  3253  0D9D                     	;# 
  3254  0D9D                     	;# 
  3255  0D9E                     	;# 
  3256  0D9F                     	;# 
  3257  0DA0                     	;# 
  3258  0DA1                     	;# 
  3259  0DA1                     	;# 
  3260  0DA2                     	;# 
  3261  0DA3                     	;# 
  3262  0DA3                     	;# 
  3263  0DA4                     	;# 
  3264  0DA5                     	;# 
  3265  0DA5                     	;# 
  3266  0DA6                     	;# 
  3267  0DA7                     	;# 
  3268  0DA7                     	;# 
  3269  0DA8                     	;# 
  3270  0DA9                     	;# 
  3271  0DA9                     	;# 
  3272  0DAA                     	;# 
  3273  0DAB                     	;# 
  3274  0DAC                     	;# 
  3275  0DAC                     	;# 
  3276  0DAD                     	;# 
  3277  0DAD                     	;# 
  3278  0DAE                     	;# 
  3279  0DAF                     	;# 
  3280  0DB0                     	;# 
  3281  0DB1                     	;# 
  3282  0DB1                     	;# 
  3283  0DB2                     	;# 
  3284  0DB3                     	;# 
  3285  0DB3                     	;# 
  3286  0DB4                     	;# 
  3287  0DB5                     	;# 
  3288  0DB5                     	;# 
  3289  0DB6                     	;# 
  3290  0DB7                     	;# 
  3291  0DB7                     	;# 
  3292  0DB8                     	;# 
  3293  0DB9                     	;# 
  3294  0DB9                     	;# 
  3295  0DBA                     	;# 
  3296  0DBB                     	;# 
  3297  0DBC                     	;# 
  3298  0DBC                     	;# 
  3299  0DBD                     	;# 
  3300  0DBD                     	;# 
  3301  0DBE                     	;# 
  3302  0DBF                     	;# 
  3303  0DC0                     	;# 
  3304  0E0C                     	;# 
  3305  0E0D                     	;# 
  3306  0E0E                     	;# 
  3307  0E0F                     	;# 
  3308  0E10                     	;# 
  3309  0E11                     	;# 
  3310  0E12                     	;# 
  3311  0E13                     	;# 
  3312  0E14                     	;# 
  3313  0E15                     	;# 
  3314  0E15                     	;# 
  3315  0E15                     	;# 
  3316  0E16                     	;# 
  3317  0E16                     	;# 
  3318  0E16                     	;# 
  3319  0E17                     	;# 
  3320  0E17                     	;# 
  3321  0E17                     	;# 
  3322  0E18                     	;# 
  3323  0E18                     	;# 
  3324  0E18                     	;# 
  3325  0E19                     	;# 
  3326  0E1A                     	;# 
  3327  0E1B                     	;# 
  3328  0E1D                     	;# 
  3329  0E1E                     	;# 
  3330  0E1F                     	;# 
  3331  0E21                     	;# 
  3332  0E22                     	;# 
  3333  0E23                     	;# 
  3334  0E24                     	;# 
  3335  0E25                     	;# 
  3336  0E26                     	;# 
  3337  0E27                     	;# 
  3338  0E28                     	;# 
  3339  0E29                     	;# 
  3340  0E2D                     	;# 
  3341  0E2E                     	;# 
  3342  0E2F                     	;# 
  3343  0E30                     	;# 
  3344  0E31                     	;# 
  3345  0E32                     	;# 
  3346  0E35                     	;# 
  3347  0E36                     	;# 
  3348  0E37                     	;# 
  3349  0E38                     	;# 
  3350  0E39                     	;# 
  3351  0E3A                     	;# 
  3352  0E3B                     	;# 
  3353  0E3C                     	;# 
  3354  0E3D                     	;# 
  3355  0E3E                     	;# 
  3356  0E90                     	;# 
  3357  0E91                     	;# 
  3358  0E92                     	;# 
  3359  0E93                     	;# 
  3360  0E94                     	;# 
  3361  0E95                     	;# 
  3362  0E96                     	;# 
  3363  0E97                     	;# 
  3364  0E98                     	;# 
  3365  0E99                     	;# 
  3366  0E9A                     	;# 
  3367  0E9B                     	;# 
  3368  0E9C                     	;# 
  3369  0E9D                     	;# 
  3370  0E9E                     	;# 
  3371  0E9F                     	;# 
  3372  0EA0                     	;# 
  3373  0EA1                     	;# 
  3374  0EA2                     	;# 
  3375  0EA3                     	;# 
  3376  0EA4                     	;# 
  3377  0EA5                     	;# 
  3378  0EA6                     	;# 
  3379  0EA7                     	;# 
  3380  0F0F                     	;# 
  3381  0F10                     	;# 
  3382  0F11                     	;# 
  3383  0F12                     	;# 
  3384  0F13                     	;# 
  3385  0F14                     	;# 
  3386  0F15                     	;# 
  3387  0F16                     	;# 
  3388  0F17                     	;# 
  3389  0F18                     	;# 
  3390  0F19                     	;# 
  3391  0F1A                     	;# 
  3392  0F1B                     	;# 
  3393  0F1C                     	;# 
  3394  0F1D                     	;# 
  3395  0F1E                     	;# 
  3396  0F1F                     	;# 
  3397  0F20                     	;# 
  3398  0F21                     	;# 
  3399  0F22                     	;# 
  3400  0F23                     	;# 
  3401  0F24                     	;# 
  3402  0F25                     	;# 
  3403  0F26                     	;# 
  3404  0F27                     	;# 
  3405  0F28                     	;# 
  3406  0F29                     	;# 
  3407  0F2A                     	;# 
  3408  0F2B                     	;# 
  3409  0F2C                     	;# 
  3410  0F2D                     	;# 
  3411  0F2E                     	;# 
  3412  0F2F                     	;# 
  3413  0F30                     	;# 
  3414  0F31                     	;# 
  3415  0F32                     	;# 
  3416  0F33                     	;# 
  3417  0F34                     	;# 
  3418  0F35                     	;# 
  3419  0F36                     	;# 
  3420  0F37                     	;# 
  3421  0FE4                     	;# 
  3422  0FE5                     	;# 
  3423  0FE6                     	;# 
  3424  0FE7                     	;# 
  3425  0FE8                     	;# 
  3426  0FE9                     	;# 
  3427  0FEA                     	;# 
  3428  0FEB                     	;# 
  3429  0FED                     	;# 
  3430  0FEE                     	;# 
  3431  0FEF                     	;# 
  3432  000B                     _INTCONbits	set	11
  3433  008D                     _TRISBbits	set	141
  3434  0097                     _OPTION_REGbits	set	151
  3435  0091                     _PIE1bits	set	145
  3436  008E                     _TRISCbits	set	142
  3437  008C                     _TRISAbits	set	140
  3438  008D                     _TRISB	set	141
  3439  009B                     _OSCCONbits	set	155
  3440  010D                     _LATBbits	set	269
  3441  010E                     _LATC	set	270
  3442  010D                     _LATB	set	269
  3443  010C                     _LATA	set	268
  3444  019B                     _SP1BRG	set	411
  3445  019D                     _RC1STAbits	set	413
  3446  019E                     _TX1STAbits	set	414
  3447  019F                     _BAUD1CONbits	set	415
  3448  018E                     _ANSELCbits	set	398
  3449  018C                     _ANSELAbits	set	396
  3450  018D                     _ANSELB	set	397
  3451  020E                     _WPUCbits	set	526
  3452  020C                     _WPUAbits	set	524
  3453  0490                     _ADCON0bits	set	1168
  3454  0491                     _ADCON1bits	set	1169
  3455  0E3D                     _RXPPS	set	3645
  3456  0EA6                     _RC6PPS	set	3750
  3457                           
  3458                           	psect	stringtext1
  3459  016B                     __pstringtext1:	
  3460  016B                     STR_1:	
  3461  016B  3468               	retlw	104	;'h'
  3462  016C  346F               	retlw	111	;'o'
  3463  016D  346C               	retlw	108	;'l'
  3464  016E  3461               	retlw	97	;'a'
  3465  016F  3420               	retlw	32	;' '
  3466  0170  3470               	retlw	112	;'p'
  3467  0171  3465               	retlw	101	;'e'
  3468  0172  3472               	retlw	114	;'r'
  3469  0173  3472               	retlw	114	;'r'
  3470  0174  346F               	retlw	111	;'o'
  3471  0175  3473               	retlw	115	;'s'
  3472  0176  3400               	retlw	0
  3473                           
  3474                           	psect	stringtext2
  3475  0189                     __pstringtext2:	
  3476  0189                     STR_3:	
  3477  0189  3420               	retlw	32	;' '
  3478  018A  3400               	retlw	0
  3479                           
  3480                           	psect	stringtext3
  3481  018B                     __pstringtext3:	
  3482  018B                     STR_2:	
  3483  018B  342D               	retlw	45	;'-'
  3484  018C  3400               	retlw	0
  3485                           
  3486                           	psect	stringtext4
  3487  0000                     __pstringtext4:	
  3488  0189                     
  3489                           ; #config settings
  3490  0000                     
  3491                           	psect	cinit
  3492  000A                     start_initialization:	
  3493  000A                     __initialization:	
  3494                           
  3495                           ; Clear objects allocated to COMMON
  3496  000A  01FD               	clrf	__pbssCOMMON& (0+127)
  3497                           
  3498                           ; Clear objects allocated to BANK0
  3499  000B  3020               	movlw	low __pbssBANK0
  3500  000C  0084               	movwf	4
  3501  000D  3000               	movlw	high __pbssBANK0
  3502  000E  0085               	movwf	5
  3503  000F  3013               	movlw	19
  3504  0010  3181  217F  3180   	fcall	clear_ram0
  3505  0013                     end_of_initialization:	
  3506                           ;End of C runtime variable initialization code
  3507                           
  3508  0013                     __end_of__initialization:	
  3509  0013  107E               	bcf	int$flags,0	;clear compiler interrupt flag (level 1)
  3510  0014  0020               	movlb	0
  3511  0015  3180  28F6         	ljmp	_main	;jump to C main() function
  3512                           
  3513                           	psect	bssCOMMON
  3514  007D                     __pbssCOMMON:	
  3515  007D                     _band_aux:	
  3516  007D                     	ds	1
  3517                           
  3518                           	psect	bssBANK0
  3519  0020                     __pbssBANK0:	
  3520  0020                     _messajeLCD:	
  3521  0020                     	ds	16
  3522  0030                     _AD_almacenado:	
  3523  0030                     	ds	2
  3524  0032                     _timerLCD:	
  3525  0032                     	ds	1
  3526                           
  3527                           	psect	clrtext
  3528  017F                     clear_ram0:	
  3529                           ;	Called with FSR0 containing the base address, and
  3530                           ;	WREG with the size to clear
  3531                           
  3532  017F  0064               	clrwdt	;clear the watchdog before getting into this loop
  3533  0180                     clrloop0:	
  3534  0180  0180               	clrf	0	;clear RAM location pointed to by FSR
  3535  0181  3101               	addfsr 0,1
  3536  0182  0B89               	decfsz	9,f	;Have we reached the end of clearing yet?
  3537  0183  2980               	goto	clrloop0	;have we reached the end yet?
  3538  0184  3400               	retlw	0	;all done for this memory range, return
  3539                           
  3540                           	psect	cstackCOMMON
  3541  0070                     __pcstackCOMMON:	
  3542  0070                     ?_ConfigureOscillator:	
  3543  0070                     ??_ConfigureOscillator:	
  3544                           ; 1 bytes @ 0x0
  3545                           
  3546  0070                     ?_InitApp:	
  3547                           ; 1 bytes @ 0x0
  3548                           
  3549  0070                     ??_InitApp:	
  3550                           ; 1 bytes @ 0x0
  3551                           
  3552  0070                     ?_initLCD:	
  3553                           ; 1 bytes @ 0x0
  3554                           
  3555  0070                     ?_lcdPinWrite:	
  3556                           ; 1 bytes @ 0x0
  3557                           
  3558  0070                     ??_lcdPinWrite:	
  3559                           ; 1 bytes @ 0x0
  3560                           
  3561  0070                     ?_lcdClockSignal:	
  3562                           ; 1 bytes @ 0x0
  3563                           
  3564  0070                     ??_lcdClockSignal:	
  3565                           ; 1 bytes @ 0x0
  3566                           
  3567  0070                     ?_lcdWrite:	
  3568                           ; 1 bytes @ 0x0
  3569                           
  3570  0070                     ?_lcdClear:	
  3571                           ; 1 bytes @ 0x0
  3572                           
  3573  0070                     ?_lcdHome:	
  3574                           ; 1 bytes @ 0x0
  3575                           
  3576  0070                     ?_isr:	
  3577                           ; 1 bytes @ 0x0
  3578                           
  3579  0070                     ??_isr:	
  3580                           ; 1 bytes @ 0x0
  3581                           
  3582  0070                     ?_main:	
  3583                           ; 1 bytes @ 0x0
  3584                           
  3585                           
  3586                           ; 1 bytes @ 0x0
  3587  0070                     	ds	1
  3588  0071                     lcdPinWrite@reg:	
  3589                           
  3590                           ; 1 bytes @ 0x1
  3591  0071                     	ds	1
  3592  0072                     lcdPinWrite@value:	
  3593                           
  3594                           ; 1 bytes @ 0x2
  3595  0072                     	ds	1
  3596  0073                     ??_lcdWrite:	
  3597                           
  3598                           ; 1 bytes @ 0x3
  3599  0073                     	ds	2
  3600  0075                     lcdWrite@variable_up:	
  3601                           
  3602                           ; 1 bytes @ 0x5
  3603  0075                     	ds	1
  3604  0076                     lcdWrite@variable_low:	
  3605                           
  3606                           ; 1 bytes @ 0x6
  3607  0076                     	ds	1
  3608  0077                     lcdWrite@character:	
  3609                           
  3610                           ; 1 bytes @ 0x7
  3611  0077                     	ds	1
  3612  0078                     ?_lcdWriteMessage:	
  3613  0078                     ??_lcdClear:	
  3614                           ; 1 bytes @ 0x8
  3615                           
  3616  0078                     ??_lcdHome:	
  3617                           ; 1 bytes @ 0x8
  3618                           
  3619  0078                     lcdWriteMessage@message:	
  3620                           ; 1 bytes @ 0x8
  3621                           
  3622                           
  3623                           ; 2 bytes @ 0x8
  3624  0078                     	ds	1
  3625  0079                     ??_initLCD:	
  3626                           
  3627                           ; 1 bytes @ 0x9
  3628  0079                     	ds	1
  3629  007A                     ??_lcdWriteMessage:	
  3630                           
  3631                           ; 1 bytes @ 0xA
  3632  007A                     	ds	1
  3633  007B                     ??_main:	
  3634                           
  3635                           ; 1 bytes @ 0xB
  3636  007B                     	ds	2
  3637                           
  3638                           	psect	maintext
  3639  00F6                     __pmaintext:	
  3640 ;;
  3641 ;;Main: autosize = 0, tempsize = 2, incstack = 0, save=0
  3642 ;;
  3643 ;; *************** function _main *****************
  3644 ;; Defined at:
  3645 ;;		line 41 in file "main.c"
  3646 ;; Parameters:    Size  Location     Type
  3647 ;;		None
  3648 ;; Auto vars:     Size  Location     Type
  3649 ;;		None
  3650 ;; Return value:  Size  Location     Type
  3651 ;;                  1    wreg      void 
  3652 ;; Registers used:
  3653 ;;		wreg, fsr0l, fsr0h, status,2, status,0, pclath, cstack
  3654 ;; Tracked objects:
  3655 ;;		On entry : B1F/0
  3656 ;;		On exit  : 0/0
  3657 ;;		Unchanged: 0/0
  3658 ;; Data sizes:     COMMON   BANK0   BANK1   BANK2   BANK3   BANK4   BANK5   BANK6   BANK7   BANK8   BANK9  BANK10  BANK1
      +1  BANK12
  3659 ;;      Params:         0       0       0       0       0       0       0       0       0       0       0       0       
      +0       0
  3660 ;;      Locals:         0       0       0       0       0       0       0       0       0       0       0       0       
      +0       0
  3661 ;;      Temps:          2       0       0       0       0       0       0       0       0       0       0       0       
      +0       0
  3662 ;;      Totals:         2       0       0       0       0       0       0       0       0       0       0       0       
      +0       0
  3663 ;;Total ram usage:        2 bytes
  3664 ;; Hardware stack levels required when called:    5
  3665 ;; This function calls:
  3666 ;;		_ConfigureOscillator
  3667 ;;		_InitApp
  3668 ;;		_initLCD
  3669 ;;		_lcdWriteMessage
  3670 ;; This function is called by:
  3671 ;;		Startup code after reset
  3672 ;; This function uses a non-reentrant model
  3673 ;;
  3674                           
  3675                           
  3676                           ;psect for function _main
  3677  00F6                     _main:	
  3678  00F6                     l1173:	
  3679                           ;incstack = 0
  3680                           ; Regs used in _main: [wreg-fsr0h+status,2+status,0+pclath+cstack]
  3681                           
  3682                           
  3683                           ;main.c: 44: ConfigureOscillator();
  3684  00F6  3181  2177  3180   	fcall	_ConfigureOscillator
  3685                           
  3686                           ;main.c: 47: InitApp();
  3687  00F9  3180  2084  3180   	fcall	_InitApp
  3688                           
  3689                           ;main.c: 48: initLCD();
  3690  00FC  3180  2017  3180   	fcall	_initLCD
  3691  00FF                     l1175:	
  3692                           
  3693                           ;main.c: 54: lcdWriteMessage("hola perros");
  3694  00FF  306B               	movlw	low (STR_1| (0+32768))
  3695  0100  00F8               	movwf	lcdWriteMessage@message
  3696  0101  3081               	movlw	high (STR_1| (0+32768))
  3697  0102  00F9               	movwf	lcdWriteMessage@message+1
  3698  0103  3181  2134  3180   	fcall	_lcdWriteMessage
  3699  0106                     l1177:	
  3700                           
  3701                           ;main.c: 56: _delay((unsigned long)((500)*(20000000/4000.0)));
  3702  0106  300D               	movlw	13
  3703  0107  00FC               	movwf	??_main+1
  3704  0108  30AF               	movlw	175
  3705  0109  00FB               	movwf	??_main
  3706  010A  30B6               	movlw	182
  3707  010B                     u277:	
  3708  010B  0B89               	decfsz	9,f
  3709  010C  290B               	goto	u277
  3710  010D  0BFB               	decfsz	??_main,f
  3711  010E  290B               	goto	u277
  3712  010F  0BFC               	decfsz	??_main+1,f
  3713  0110  290B               	goto	u277
  3714  0111  3200               	nop2
  3715  0112  28FF               	goto	l1175
  3716  0113  3180  2808         	ljmp	start
  3717  0115                     __end_of_main:	
  3718                           
  3719                           	psect	text1
  3720  0134                     __ptext1:	
  3721 ;; *************** function _lcdWriteMessage *****************
  3722 ;; Defined at:
  3723 ;;		line 227 in file "LcdDriver.c"
  3724 ;; Parameters:    Size  Location     Type
  3725 ;;  message         2    8[COMMON] PTR const unsigned char 
  3726 ;;		 -> STR_7(2), STR_6(2), STR_5(2), STR_4(2), 
  3727 ;;		 -> STR_3(2), STR_2(2), STR_1(12), 
  3728 ;; Auto vars:     Size  Location     Type
  3729 ;;		None
  3730 ;; Return value:  Size  Location     Type
  3731 ;;                  1    wreg      void 
  3732 ;; Registers used:
  3733 ;;		wreg, fsr0l, fsr0h, status,2, status,0, pclath, cstack
  3734 ;; Tracked objects:
  3735 ;;		On entry : 0/0
  3736 ;;		On exit  : 0/0
  3737 ;;		Unchanged: 0/0
  3738 ;; Data sizes:     COMMON   BANK0   BANK1   BANK2   BANK3   BANK4   BANK5   BANK6   BANK7   BANK8   BANK9  BANK10  BANK1
      +1  BANK12
  3739 ;;      Params:         2       0       0       0       0       0       0       0       0       0       0       0       
      +0       0
  3740 ;;      Locals:         0       0       0       0       0       0       0       0       0       0       0       0       
      +0       0
  3741 ;;      Temps:          1       0       0       0       0       0       0       0       0       0       0       0       
      +0       0
  3742 ;;      Totals:         3       0       0       0       0       0       0       0       0       0       0       0       
      +0       0
  3743 ;;Total ram usage:        3 bytes
  3744 ;; Hardware stack levels used:    1
  3745 ;; Hardware stack levels required when called:    3
  3746 ;; This function calls:
  3747 ;;		_lcdWrite
  3748 ;; This function is called by:
  3749 ;;		_main
  3750 ;;		_lcdWriteDecimal
  3751 ;;		_lcdWrite3digi
  3752 ;;		_lcdWrite4digi
  3753 ;; This function uses a non-reentrant model
  3754 ;;
  3755                           
  3756                           
  3757                           ;psect for function _lcdWriteMessage
  3758  0134                     _lcdWriteMessage:	
  3759  0134                     l1133:	
  3760                           ;incstack = 0
  3761                           ; Regs used in _lcdWriteMessage: [wreg-fsr0h+status,2+status,0+pclath+cstack]
  3762                           
  3763                           
  3764                           ;LcdDriver.c: 228: LATBbits.LATB1 = 1;
  3765  0134  0022               	movlb	2	; select bank2
  3766  0135  148D               	bsf	13,1	;volatile
  3767                           
  3768                           ;LcdDriver.c: 229: while (*message) {
  3769  0136  2943               	goto	l1139
  3770  0137                     l1135:	
  3771                           
  3772                           ;LcdDriver.c: 230: lcdWrite(*message++);
  3773  0137  0878               	movf	lcdWriteMessage@message,w
  3774  0138  0084               	movwf	4
  3775  0139  0879               	movf	lcdWriteMessage@message+1,w
  3776  013A  0085               	movwf	5
  3777  013B  0800               	movf	0,w	;code access
  3778  013C  3180  20D0  3181   	fcall	_lcdWrite
  3779  013F                     l1137:	
  3780  013F  3001               	movlw	1
  3781  0140  07F8               	addwf	lcdWriteMessage@message,f
  3782  0141  3000               	movlw	0
  3783  0142  3DF9               	addwfc	lcdWriteMessage@message+1,f
  3784  0143                     l1139:	
  3785  0143  0878               	movf	lcdWriteMessage@message,w
  3786  0144  0084               	movwf	4
  3787  0145  0879               	movf	lcdWriteMessage@message+1,w
  3788  0146  0085               	movwf	5
  3789  0147  0012               	moviw fsr0++
  3790  0148  1D03               	btfss	3,2
  3791  0149  294B               	goto	u191
  3792  014A  294C               	goto	u190
  3793  014B                     u191:	
  3794  014B  2937               	goto	l1135
  3795  014C                     u190:	
  3796  014C                     l153:	
  3797  014C  0008               	return
  3798  014D                     __end_of_lcdWriteMessage:	
  3799                           
  3800                           	psect	text2
  3801  0017                     __ptext2:	
  3802 ;; *************** function _initLCD *****************
  3803 ;; Defined at:
  3804 ;;		line 43 in file "LcdDriver.c"
  3805 ;; Parameters:    Size  Location     Type
  3806 ;;		None
  3807 ;; Auto vars:     Size  Location     Type
  3808 ;;		None
  3809 ;; Return value:  Size  Location     Type
  3810 ;;                  1    wreg      void 
  3811 ;; Registers used:
  3812 ;;		wreg, status,2, status,0, pclath, cstack
  3813 ;; Tracked objects:
  3814 ;;		On entry : 0/0
  3815 ;;		On exit  : 0/0
  3816 ;;		Unchanged: 0/0
  3817 ;; Data sizes:     COMMON   BANK0   BANK1   BANK2   BANK3   BANK4   BANK5   BANK6   BANK7   BANK8   BANK9  BANK10  BANK1
      +1  BANK12
  3818 ;;      Params:         0       0       0       0       0       0       0       0       0       0       0       0       
      +0       0
  3819 ;;      Locals:         0       0       0       0       0       0       0       0       0       0       0       0       
      +0       0
  3820 ;;      Temps:          1       0       0       0       0       0       0       0       0       0       0       0       
      +0       0
  3821 ;;      Totals:         1       0       0       0       0       0       0       0       0       0       0       0       
      +0       0
  3822 ;;Total ram usage:        1 bytes
  3823 ;; Hardware stack levels used:    1
  3824 ;; Hardware stack levels required when called:    4
  3825 ;; This function calls:
  3826 ;;		_lcdClear
  3827 ;;		_lcdClockSignal
  3828 ;;		_lcdHome
  3829 ;;		_lcdPinWrite
  3830 ;;		_lcdWrite
  3831 ;; This function is called by:
  3832 ;;		_main
  3833 ;; This function uses a non-reentrant model
  3834 ;;
  3835                           
  3836                           
  3837                           ;psect for function _initLCD
  3838  0017                     _initLCD:	
  3839  0017                     l1089:	
  3840                           ;incstack = 0
  3841                           ; Regs used in _initLCD: [wreg+status,2+status,0+pclath+cstack]
  3842                           
  3843                           
  3844                           ;LcdDriver.c: 45: TRISBbits.TRISB5 = 0;
  3845  0017  0021               	movlb	1	; select bank1
  3846  0018  128D               	bcf	13,5	;volatile
  3847                           
  3848                           ;LcdDriver.c: 46: TRISBbits.TRISB4 = 0;
  3849  0019  120D               	bcf	13,4	;volatile
  3850                           
  3851                           ;LcdDriver.c: 47: TRISBbits.TRISB3 = 0;
  3852  001A  118D               	bcf	13,3	;volatile
  3853                           
  3854                           ;LcdDriver.c: 48: TRISBbits.TRISB2 = 0;
  3855  001B  110D               	bcf	13,2	;volatile
  3856                           
  3857                           ;LcdDriver.c: 49: TRISBbits.TRISB1 = 0;
  3858  001C  108D               	bcf	13,1	;volatile
  3859                           
  3860                           ;LcdDriver.c: 50: TRISBbits.TRISB0 = 0;
  3861  001D  100D               	bcf	13,0	;volatile
  3862  001E                     l1091:	
  3863                           
  3864                           ;LcdDriver.c: 53: _delay((unsigned long)((15)*(20000000/4000.0)));
  3865  001E  3062               	movlw	98
  3866  001F  00F9               	movwf	??_initLCD
  3867  0020  3066               	movlw	102
  3868  0021                     u287:	
  3869  0021  0B89               	decfsz	9,f
  3870  0022  2821               	goto	u287
  3871  0023  0BF9               	decfsz	??_initLCD,f
  3872  0024  2821               	goto	u287
  3873  0025                     l1093:	
  3874                           
  3875                           ;LcdDriver.c: 54: LATBbits.LATB1 = 0;
  3876  0025  0022               	movlb	2	; select bank2
  3877  0026  108D               	bcf	13,1	;volatile
  3878  0027                     l1095:	
  3879                           
  3880                           ;LcdDriver.c: 55: lcdPinWrite(0x00);
  3881  0027  3000               	movlw	0
  3882  0028  3181  2115  3180   	fcall	_lcdPinWrite
  3883  002B                     l1097:	
  3884                           
  3885                           ;LcdDriver.c: 56: lcdPinWrite(0x03);
  3886  002B  3003               	movlw	3
  3887  002C  3181  2115  3180   	fcall	_lcdPinWrite
  3888  002F                     l1099:	
  3889                           
  3890                           ;LcdDriver.c: 57: lcdClockSignal();
  3891  002F  3181  2185  3180   	fcall	_lcdClockSignal
  3892  0032                     l1101:	
  3893                           
  3894                           ;LcdDriver.c: 58: _delay((unsigned long)((5)*(20000000/4000.0)));
  3895  0032  3021               	movlw	33
  3896  0033  00F9               	movwf	??_initLCD
  3897  0034  3076               	movlw	118
  3898  0035                     u297:	
  3899  0035  0B89               	decfsz	9,f
  3900  0036  2835               	goto	u297
  3901  0037  0BF9               	decfsz	??_initLCD,f
  3902  0038  2835               	goto	u297
  3903  0039  3200               	nop2
  3904  003A                     l1103:	
  3905                           
  3906                           ;LcdDriver.c: 60: lcdPinWrite(0x00);
  3907  003A  3000               	movlw	0
  3908  003B  3181  2115  3180   	fcall	_lcdPinWrite
  3909  003E                     l1105:	
  3910                           
  3911                           ;LcdDriver.c: 61: lcdPinWrite(0x03);
  3912  003E  3003               	movlw	3
  3913  003F  3181  2115  3180   	fcall	_lcdPinWrite
  3914                           
  3915                           ;LcdDriver.c: 62: lcdClockSignal();
  3916  0042  3181  2185  3180   	fcall	_lcdClockSignal
  3917  0045                     l1107:	
  3918                           
  3919                           ;LcdDriver.c: 63: _delay((unsigned long)((170)*(20000000/4000000.0)));
  3920  0045  30AA               	movlw	170
  3921  0046                     u307:	
  3922  0046  3200               	nop2
  3923  0047  0B89               	decfsz	9,f
  3924  0048  2846               	goto	u307
  3925                           
  3926                           ;LcdDriver.c: 65: lcdPinWrite(0x00);
  3927  0049  3000               	movlw	0
  3928  004A  3181  2115  3180   	fcall	_lcdPinWrite
  3929                           
  3930                           ;LcdDriver.c: 66: lcdPinWrite(0x03);
  3931  004D  3003               	movlw	3
  3932  004E  3181  2115  3180   	fcall	_lcdPinWrite
  3933  0051                     l1109:	
  3934                           
  3935                           ;LcdDriver.c: 67: lcdClockSignal();
  3936  0051  3181  2185  3180   	fcall	_lcdClockSignal
  3937                           
  3938                           ;LcdDriver.c: 68: _delay((unsigned long)((5)*(20000000/4000.0)));
  3939  0054  3021               	movlw	33
  3940  0055  00F9               	movwf	??_initLCD
  3941  0056  3076               	movlw	118
  3942  0057                     u317:	
  3943  0057  0B89               	decfsz	9,f
  3944  0058  2857               	goto	u317
  3945  0059  0BF9               	decfsz	??_initLCD,f
  3946  005A  2857               	goto	u317
  3947  005B  3200               	nop2
  3948  005C                     l1111:	
  3949                           
  3950                           ;LcdDriver.c: 70: lcdPinWrite(0x00);
  3951  005C  3000               	movlw	0
  3952  005D  3181  2115  3180   	fcall	_lcdPinWrite
  3953  0060                     l1113:	
  3954                           
  3955                           ;LcdDriver.c: 71: lcdPinWrite(0x02);
  3956  0060  3002               	movlw	2
  3957  0061  3181  2115  3180   	fcall	_lcdPinWrite
  3958  0064                     l1115:	
  3959                           
  3960                           ;LcdDriver.c: 72: lcdClockSignal();
  3961  0064  3181  2185  3180   	fcall	_lcdClockSignal
  3962  0067                     l1117:	
  3963                           
  3964                           ;LcdDriver.c: 73: _delay((unsigned long)((170)*(20000000/4000000.0)));
  3965  0067  30AA               	movlw	170
  3966  0068                     u327:	
  3967  0068  3200               	nop2
  3968  0069  0B89               	decfsz	9,f
  3969  006A  2868               	goto	u327
  3970  006B                     l1119:	
  3971                           
  3972                           ;LcdDriver.c: 75: lcdWrite(0x08);
  3973  006B  3008               	movlw	8
  3974  006C  3180  20D0  3180   	fcall	_lcdWrite
  3975  006F                     l1121:	
  3976                           
  3977                           ;LcdDriver.c: 76: lcdWrite(0x28);
  3978  006F  3028               	movlw	40
  3979  0070  3180  20D0  3180   	fcall	_lcdWrite
  3980  0073                     l1123:	
  3981                           
  3982                           ;LcdDriver.c: 77: lcdWrite(0x06);
  3983  0073  3006               	movlw	6
  3984  0074  3180  20D0  3180   	fcall	_lcdWrite
  3985  0077                     l1125:	
  3986                           
  3987                           ;LcdDriver.c: 78: lcdWrite(0x0F);
  3988  0077  300F               	movlw	15
  3989  0078  3180  20D0  3180   	fcall	_lcdWrite
  3990  007B                     l1127:	
  3991                           
  3992                           ;LcdDriver.c: 79: lcdClear();
  3993  007B  3181  215C  3180   	fcall	_lcdClear
  3994  007E                     l1129:	
  3995                           
  3996                           ;LcdDriver.c: 80: lcdHome();
  3997  007E  3181  214D  3180   	fcall	_lcdHome
  3998  0081                     l1131:	
  3999                           
  4000                           ;LcdDriver.c: 82: timerLCD = 0;
  4001  0081  0020               	movlb	0	; select bank0
  4002  0082  01B2               	clrf	_timerLCD	;volatile
  4003  0083                     l104:	
  4004  0083  0008               	return
  4005  0084                     __end_of_initLCD:	
  4006                           
  4007                           	psect	text3
  4008  014D                     __ptext3:	
  4009 ;; *************** function _lcdHome *****************
  4010 ;; Defined at:
  4011 ;;		line 90 in file "LcdDriver.c"
  4012 ;; Parameters:    Size  Location     Type
  4013 ;;		None
  4014 ;; Auto vars:     Size  Location     Type
  4015 ;;		None
  4016 ;; Return value:  Size  Location     Type
  4017 ;;                  1    wreg      void 
  4018 ;; Registers used:
  4019 ;;		wreg, status,2, status,0, pclath, cstack
  4020 ;; Tracked objects:
  4021 ;;		On entry : 0/0
  4022 ;;		On exit  : 0/0
  4023 ;;		Unchanged: 0/0
  4024 ;; Data sizes:     COMMON   BANK0   BANK1   BANK2   BANK3   BANK4   BANK5   BANK6   BANK7   BANK8   BANK9  BANK10  BANK1
      +1  BANK12
  4025 ;;      Params:         0       0       0       0       0       0       0       0       0       0       0       0       
      +0       0
  4026 ;;      Locals:         0       0       0       0       0       0       0       0       0       0       0       0       
      +0       0
  4027 ;;      Temps:          1       0       0       0       0       0       0       0       0       0       0       0       
      +0       0
  4028 ;;      Totals:         1       0       0       0       0       0       0       0       0       0       0       0       
      +0       0
  4029 ;;Total ram usage:        1 bytes
  4030 ;; Hardware stack levels used:    1
  4031 ;; Hardware stack levels required when called:    3
  4032 ;; This function calls:
  4033 ;;		_lcdWrite
  4034 ;; This function is called by:
  4035 ;;		_initLCD
  4036 ;; This function uses a non-reentrant model
  4037 ;;
  4038                           
  4039                           
  4040                           ;psect for function _lcdHome
  4041  014D                     _lcdHome:	
  4042  014D                     l1083:	
  4043                           ;incstack = 0
  4044                           ; Regs used in _lcdHome: [wreg+status,2+status,0+pclath+cstack]
  4045                           
  4046                           
  4047                           ;LcdDriver.c: 91: LATBbits.LATB1 = 0;
  4048  014D  0022               	movlb	2	; select bank2
  4049  014E  108D               	bcf	13,1	;volatile
  4050  014F                     l1085:	
  4051                           
  4052                           ;LcdDriver.c: 92: lcdWrite(0x02);
  4053  014F  3002               	movlw	2
  4054  0150  3180  20D0  3181   	fcall	_lcdWrite
  4055  0153                     l1087:	
  4056                           
  4057                           ;LcdDriver.c: 93: _delay((unsigned long)((4)*(20000000/4000.0)));
  4058  0153  301A               	movlw	26
  4059  0154  00F8               	movwf	??_lcdHome
  4060  0155  30F8               	movlw	248
  4061  0156                     u337:	
  4062  0156  0B89               	decfsz	9,f
  4063  0157  2956               	goto	u337
  4064  0158  0BF8               	decfsz	??_lcdHome,f
  4065  0159  2956               	goto	u337
  4066  015A  3200               	nop2
  4067  015B                     l107:	
  4068  015B  0008               	return
  4069  015C                     __end_of_lcdHome:	
  4070                           
  4071                           	psect	text4
  4072  015C                     __ptext4:	
  4073 ;; *************** function _lcdClear *****************
  4074 ;; Defined at:
  4075 ;;		line 110 in file "LcdDriver.c"
  4076 ;; Parameters:    Size  Location     Type
  4077 ;;		None
  4078 ;; Auto vars:     Size  Location     Type
  4079 ;;		None
  4080 ;; Return value:  Size  Location     Type
  4081 ;;                  1    wreg      void 
  4082 ;; Registers used:
  4083 ;;		wreg, status,2, status,0, pclath, cstack
  4084 ;; Tracked objects:
  4085 ;;		On entry : 0/0
  4086 ;;		On exit  : 0/0
  4087 ;;		Unchanged: 0/0
  4088 ;; Data sizes:     COMMON   BANK0   BANK1   BANK2   BANK3   BANK4   BANK5   BANK6   BANK7   BANK8   BANK9  BANK10  BANK1
      +1  BANK12
  4089 ;;      Params:         0       0       0       0       0       0       0       0       0       0       0       0       
      +0       0
  4090 ;;      Locals:         0       0       0       0       0       0       0       0       0       0       0       0       
      +0       0
  4091 ;;      Temps:          1       0       0       0       0       0       0       0       0       0       0       0       
      +0       0
  4092 ;;      Totals:         1       0       0       0       0       0       0       0       0       0       0       0       
      +0       0
  4093 ;;Total ram usage:        1 bytes
  4094 ;; Hardware stack levels used:    1
  4095 ;; Hardware stack levels required when called:    3
  4096 ;; This function calls:
  4097 ;;		_lcdWrite
  4098 ;; This function is called by:
  4099 ;;		_initLCD
  4100 ;; This function uses a non-reentrant model
  4101 ;;
  4102                           
  4103                           
  4104                           ;psect for function _lcdClear
  4105  015C                     _lcdClear:	
  4106  015C                     l1077:	
  4107                           ;incstack = 0
  4108                           ; Regs used in _lcdClear: [wreg+status,2+status,0+pclath+cstack]
  4109                           
  4110                           
  4111                           ;LcdDriver.c: 111: LATBbits.LATB1 = 0;
  4112  015C  0022               	movlb	2	; select bank2
  4113  015D  108D               	bcf	13,1	;volatile
  4114  015E                     l1079:	
  4115                           
  4116                           ;LcdDriver.c: 112: lcdWrite(0x01);
  4117  015E  3001               	movlw	1
  4118  015F  3180  20D0  3181   	fcall	_lcdWrite
  4119  0162                     l1081:	
  4120                           
  4121                           ;LcdDriver.c: 113: _delay((unsigned long)((4)*(20000000/4000.0)));
  4122  0162  301A               	movlw	26
  4123  0163  00F8               	movwf	??_lcdClear
  4124  0164  30F8               	movlw	248
  4125  0165                     u347:	
  4126  0165  0B89               	decfsz	9,f
  4127  0166  2965               	goto	u347
  4128  0167  0BF8               	decfsz	??_lcdClear,f
  4129  0168  2965               	goto	u347
  4130  0169  3200               	nop2
  4131  016A                     l113:	
  4132  016A  0008               	return
  4133  016B                     __end_of_lcdClear:	
  4134                           
  4135                           	psect	text5
  4136  00D0                     __ptext5:	
  4137 ;; *************** function _lcdWrite *****************
  4138 ;; Defined at:
  4139 ;;		line 153 in file "LcdDriver.c"
  4140 ;; Parameters:    Size  Location     Type
  4141 ;;  character       1    wreg     unsigned char 
  4142 ;; Auto vars:     Size  Location     Type
  4143 ;;  character       1    7[COMMON] unsigned char 
  4144 ;;  variable_low    1    6[COMMON] unsigned char 
  4145 ;;  variable_up     1    5[COMMON] unsigned char 
  4146 ;; Return value:  Size  Location     Type
  4147 ;;                  1    wreg      void 
  4148 ;; Registers used:
  4149 ;;		wreg, status,2, status,0, pclath, cstack
  4150 ;; Tracked objects:
  4151 ;;		On entry : 0/0
  4152 ;;		On exit  : 0/0
  4153 ;;		Unchanged: 0/0
  4154 ;; Data sizes:     COMMON   BANK0   BANK1   BANK2   BANK3   BANK4   BANK5   BANK6   BANK7   BANK8   BANK9  BANK10  BANK1
      +1  BANK12
  4155 ;;      Params:         0       0       0       0       0       0       0       0       0       0       0       0       
      +0       0
  4156 ;;      Locals:         3       0       0       0       0       0       0       0       0       0       0       0       
      +0       0
  4157 ;;      Temps:          2       0       0       0       0       0       0       0       0       0       0       0       
      +0       0
  4158 ;;      Totals:         5       0       0       0       0       0       0       0       0       0       0       0       
      +0       0
  4159 ;;Total ram usage:        5 bytes
  4160 ;; Hardware stack levels used:    1
  4161 ;; Hardware stack levels required when called:    2
  4162 ;; This function calls:
  4163 ;;		_lcdClockSignal
  4164 ;;		_lcdPinWrite
  4165 ;; This function is called by:
  4166 ;;		_initLCD
  4167 ;;		_lcdHome
  4168 ;;		_lcdClear
  4169 ;;		_lcdWriteMessage
  4170 ;;		_lcdMoveCursorTo
  4171 ;;		_lcdWriteNumber
  4172 ;;		_lcdCursorOnOff
  4173 ;;		_lcdWriteDecimal
  4174 ;; This function uses a non-reentrant model
  4175 ;;
  4176                           
  4177                           
  4178                           ;psect for function _lcdWrite
  4179  00D0                     _lcdWrite:	
  4180                           
  4181                           ;incstack = 0
  4182                           ; Regs used in _lcdWrite: [wreg+status,2+status,0+pclath+cstack]
  4183                           ;lcdWrite@character stored from wreg
  4184  00D0  00F7               	movwf	lcdWrite@character
  4185  00D1                     l1063:	
  4186                           
  4187                           ;LcdDriver.c: 154: char variable_up;;LcdDriver.c: 155: char variable_low;;LcdDriver.c: 1
      +                          57: variable_up = character >> 4;
  4188  00D1  0877               	movf	lcdWrite@character,w
  4189  00D2  00F3               	movwf	??_lcdWrite
  4190  00D3  3004               	movlw	4
  4191  00D4                     u185:	
  4192  00D4  36F3               	lsrf	??_lcdWrite,f
  4193  00D5  0B89               	decfsz	9,f
  4194  00D6  28D4               	goto	u185
  4195  00D7  0873               	movf	??_lcdWrite,w
  4196  00D8  00F4               	movwf	??_lcdWrite+1
  4197  00D9  0874               	movf	??_lcdWrite+1,w
  4198  00DA  00F5               	movwf	lcdWrite@variable_up
  4199  00DB                     l1065:	
  4200                           
  4201                           ;LcdDriver.c: 158: variable_low = character;
  4202  00DB  0877               	movf	lcdWrite@character,w
  4203  00DC  00F3               	movwf	??_lcdWrite
  4204  00DD  0873               	movf	??_lcdWrite,w
  4205  00DE  00F6               	movwf	lcdWrite@variable_low
  4206  00DF                     l1067:	
  4207                           
  4208                           ;LcdDriver.c: 161: lcdPinWrite(variable_up);
  4209  00DF  0875               	movf	lcdWrite@variable_up,w
  4210  00E0  3181  2115  3180   	fcall	_lcdPinWrite
  4211  00E3                     l1069:	
  4212                           
  4213                           ;LcdDriver.c: 162: lcdClockSignal();
  4214  00E3  3181  2185  3180   	fcall	_lcdClockSignal
  4215  00E6                     l1071:	
  4216                           
  4217                           ;LcdDriver.c: 165: lcdPinWrite(variable_low);
  4218  00E6  0876               	movf	lcdWrite@variable_low,w
  4219  00E7  3181  2115  3180   	fcall	_lcdPinWrite
  4220  00EA                     l1073:	
  4221                           
  4222                           ;LcdDriver.c: 166: lcdClockSignal();
  4223  00EA  3181  2185  3180   	fcall	_lcdClockSignal
  4224  00ED                     l1075:	
  4225                           
  4226                           ;LcdDriver.c: 167: _delay((unsigned long)((1)*(20000000/4000.0)));
  4227  00ED  3007               	movlw	7
  4228  00EE  00F3               	movwf	??_lcdWrite
  4229  00EF  307D               	movlw	125
  4230  00F0                     u357:	
  4231  00F0  0B89               	decfsz	9,f
  4232  00F1  28F0               	goto	u357
  4233  00F2  0BF3               	decfsz	??_lcdWrite,f
  4234  00F3  28F0               	goto	u357
  4235  00F4  0000               	nop
  4236  00F5                     l126:	
  4237  00F5  0008               	return
  4238  00F6                     __end_of_lcdWrite:	
  4239                           
  4240                           	psect	text6
  4241  0115                     __ptext6:	
  4242 ;; *************** function _lcdPinWrite *****************
  4243 ;; Defined at:
  4244 ;;		line 135 in file "LcdDriver.c"
  4245 ;; Parameters:    Size  Location     Type
  4246 ;;  reg             1    wreg     unsigned char 
  4247 ;; Auto vars:     Size  Location     Type
  4248 ;;  reg             1    1[COMMON] unsigned char 
  4249 ;;  value           1    2[COMMON] struct _lcd_register
  4250 ;; Return value:  Size  Location     Type
  4251 ;;                  1    wreg      void 
  4252 ;; Registers used:
  4253 ;;		wreg
  4254 ;; Tracked objects:
  4255 ;;		On entry : 0/0
  4256 ;;		On exit  : 0/0
  4257 ;;		Unchanged: 0/0
  4258 ;; Data sizes:     COMMON   BANK0   BANK1   BANK2   BANK3   BANK4   BANK5   BANK6   BANK7   BANK8   BANK9  BANK10  BANK1
      +1  BANK12
  4259 ;;      Params:         0       0       0       0       0       0       0       0       0       0       0       0       
      +0       0
  4260 ;;      Locals:         2       0       0       0       0       0       0       0       0       0       0       0       
      +0       0
  4261 ;;      Temps:          1       0       0       0       0       0       0       0       0       0       0       0       
      +0       0
  4262 ;;      Totals:         3       0       0       0       0       0       0       0       0       0       0       0       
      +0       0
  4263 ;;Total ram usage:        3 bytes
  4264 ;; Hardware stack levels used:    1
  4265 ;; Hardware stack levels required when called:    1
  4266 ;; This function calls:
  4267 ;;		Nothing
  4268 ;; This function is called by:
  4269 ;;		_initLCD
  4270 ;;		_lcdWrite
  4271 ;; This function uses a non-reentrant model
  4272 ;;
  4273                           
  4274                           
  4275                           ;psect for function _lcdPinWrite
  4276  0115                     _lcdPinWrite:	
  4277                           
  4278                           ;incstack = 0
  4279                           ; Regs used in _lcdPinWrite: [wreg]
  4280                           ;lcdPinWrite@reg stored from wreg
  4281  0115  00F1               	movwf	lcdPinWrite@reg
  4282  0116                     l1047:	
  4283                           
  4284                           ;LcdDriver.c: 136: lcd_register value;;LcdDriver.c: 137: LATBbits.LATB5 = 0;
  4285  0116  0022               	movlb	2	; select bank2
  4286  0117  128D               	bcf	13,5	;volatile
  4287                           
  4288                           ;LcdDriver.c: 138: LATBbits.LATB4 = 0;
  4289  0118  120D               	bcf	13,4	;volatile
  4290                           
  4291                           ;LcdDriver.c: 139: LATBbits.LATB3 = 0;
  4292  0119  118D               	bcf	13,3	;volatile
  4293                           
  4294                           ;LcdDriver.c: 140: LATBbits.LATB2 = 0;
  4295  011A  110D               	bcf	13,2	;volatile
  4296  011B                     l1049:	
  4297                           
  4298                           ;LcdDriver.c: 142: value.Val_lcd = reg;
  4299  011B  0871               	movf	lcdPinWrite@reg,w
  4300  011C  00F0               	movwf	??_lcdPinWrite
  4301  011D  0870               	movf	??_lcdPinWrite,w
  4302  011E  00F2               	movwf	lcdPinWrite@value
  4303  011F                     l1051:	
  4304                           
  4305                           ;LcdDriver.c: 144: if (value.lcd_DBS.pinDB4 == 1) LATBbits.LATB5 = 1;
  4306  011F  1C72               	btfss	lcdPinWrite@value,0
  4307  0120  2922               	goto	u141
  4308  0121  2923               	goto	u140
  4309  0122                     u141:	
  4310  0122  2924               	goto	l119
  4311  0123                     u140:	
  4312  0123                     l1053:	
  4313  0123  168D               	bsf	13,5	;volatile
  4314  0124                     l119:	
  4315                           
  4316                           ;LcdDriver.c: 145: if (value.lcd_DBS.pinDB5 == 1) LATBbits.LATB4 = 1;
  4317  0124  1CF2               	btfss	lcdPinWrite@value,1
  4318  0125  2927               	goto	u151
  4319  0126  2928               	goto	u150
  4320  0127                     u151:	
  4321  0127  2929               	goto	l120
  4322  0128                     u150:	
  4323  0128                     l1055:	
  4324  0128  160D               	bsf	13,4	;volatile
  4325  0129                     l120:	
  4326                           
  4327                           ;LcdDriver.c: 146: if (value.lcd_DBS.pinDB6 == 1) LATBbits.LATB3 = 1;
  4328  0129  1D72               	btfss	lcdPinWrite@value,2
  4329  012A  292C               	goto	u161
  4330  012B  292D               	goto	u160
  4331  012C                     u161:	
  4332  012C  292E               	goto	l121
  4333  012D                     u160:	
  4334  012D                     l1057:	
  4335  012D  158D               	bsf	13,3	;volatile
  4336  012E                     l121:	
  4337                           
  4338                           ;LcdDriver.c: 147: if (value.lcd_DBS.pinDB7 == 1) LATBbits.LATB2 = 1;
  4339  012E  1DF2               	btfss	lcdPinWrite@value,3
  4340  012F  2931               	goto	u171
  4341  0130  2932               	goto	u170
  4342  0131                     u171:	
  4343  0131  2933               	goto	l123
  4344  0132                     u170:	
  4345  0132                     l1059:	
  4346  0132  150D               	bsf	13,2	;volatile
  4347  0133                     l123:	
  4348  0133  0008               	return
  4349  0134                     __end_of_lcdPinWrite:	
  4350                           
  4351                           	psect	text7
  4352  0185                     __ptext7:	
  4353 ;; *************** function _lcdClockSignal *****************
  4354 ;; Defined at:
  4355 ;;		line 99 in file "LcdDriver.c"
  4356 ;; Parameters:    Size  Location     Type
  4357 ;;		None
  4358 ;; Auto vars:     Size  Location     Type
  4359 ;;		None
  4360 ;; Return value:  Size  Location     Type
  4361 ;;                  1    wreg      void 
  4362 ;; Registers used:
  4363 ;;		None
  4364 ;; Tracked objects:
  4365 ;;		On entry : 0/0
  4366 ;;		On exit  : 0/0
  4367 ;;		Unchanged: 0/0
  4368 ;; Data sizes:     COMMON   BANK0   BANK1   BANK2   BANK3   BANK4   BANK5   BANK6   BANK7   BANK8   BANK9  BANK10  BANK1
      +1  BANK12
  4369 ;;      Params:         0       0       0       0       0       0       0       0       0       0       0       0       
      +0       0
  4370 ;;      Locals:         0       0       0       0       0       0       0       0       0       0       0       0       
      +0       0
  4371 ;;      Temps:          0       0       0       0       0       0       0       0       0       0       0       0       
      +0       0
  4372 ;;      Totals:         0       0       0       0       0       0       0       0       0       0       0       0       
      +0       0
  4373 ;;Total ram usage:        0 bytes
  4374 ;; Hardware stack levels used:    1
  4375 ;; Hardware stack levels required when called:    1
  4376 ;; This function calls:
  4377 ;;		Nothing
  4378 ;; This function is called by:
  4379 ;;		_initLCD
  4380 ;;		_lcdWrite
  4381 ;; This function uses a non-reentrant model
  4382 ;;
  4383                           
  4384                           
  4385                           ;psect for function _lcdClockSignal
  4386  0185                     _lcdClockSignal:	
  4387  0185                     l1061:	
  4388                           ;incstack = 0
  4389                           ; Regs used in _lcdClockSignal: []
  4390                           
  4391                           
  4392                           ;LcdDriver.c: 100: LATBbits.LATB0 = 1;
  4393  0185  0022               	movlb	2	; select bank2
  4394  0186  140D               	bsf	13,0	;volatile
  4395                           
  4396                           ;LcdDriver.c: 102: LATBbits.LATB0 = 0;
  4397  0187  100D               	bcf	13,0	;volatile
  4398  0188                     l110:	
  4399  0188  0008               	return
  4400  0189                     __end_of_lcdClockSignal:	
  4401                           
  4402                           	psect	text8
  4403  0084                     __ptext8:	
  4404 ;; *************** function _InitApp *****************
  4405 ;; Defined at:
  4406 ;;		line 22 in file "user.c"
  4407 ;; Parameters:    Size  Location     Type
  4408 ;;		None
  4409 ;; Auto vars:     Size  Location     Type
  4410 ;;		None
  4411 ;; Return value:  Size  Location     Type
  4412 ;;                  1    wreg      void 
  4413 ;; Registers used:
  4414 ;;		wreg, status,2, status,0
  4415 ;; Tracked objects:
  4416 ;;		On entry : 0/0
  4417 ;;		On exit  : 0/0
  4418 ;;		Unchanged: 0/0
  4419 ;; Data sizes:     COMMON   BANK0   BANK1   BANK2   BANK3   BANK4   BANK5   BANK6   BANK7   BANK8   BANK9  BANK10  BANK1
      +1  BANK12
  4420 ;;      Params:         0       0       0       0       0       0       0       0       0       0       0       0       
      +0       0
  4421 ;;      Locals:         0       0       0       0       0       0       0       0       0       0       0       0       
      +0       0
  4422 ;;      Temps:          0       0       0       0       0       0       0       0       0       0       0       0       
      +0       0
  4423 ;;      Totals:         0       0       0       0       0       0       0       0       0       0       0       0       
      +0       0
  4424 ;;Total ram usage:        0 bytes
  4425 ;; Hardware stack levels used:    1
  4426 ;; Hardware stack levels required when called:    1
  4427 ;; This function calls:
  4428 ;;		Nothing
  4429 ;; This function is called by:
  4430 ;;		_main
  4431 ;; This function uses a non-reentrant model
  4432 ;;
  4433                           
  4434                           
  4435                           ;psect for function _InitApp
  4436  0084                     _InitApp:	
  4437  0084                     l797:	
  4438                           ;incstack = 0
  4439                           ; Regs used in _InitApp: [wreg+status,2+status,0]
  4440                           
  4441                           
  4442                           ;user.c: 25: LATA=LATB=LATC= 0;
  4443  0084  0022               	movlb	2	; select bank2
  4444  0085  018E               	clrf	14	;volatile
  4445  0086  018D               	clrf	13	;volatile
  4446  0087  018C               	clrf	12	;volatile
  4447  0088                     l799:	
  4448                           
  4449                           ;user.c: 28: TRISB = 0b11111111;
  4450  0088  30FF               	movlw	255
  4451  0089  0021               	movlb	1	; select bank1
  4452  008A  008D               	movwf	13	;volatile
  4453  008B                     l801:	
  4454                           
  4455                           ;user.c: 29: ANSELB = 0b00000000;
  4456  008B  0023               	movlb	3	; select bank3
  4457  008C  018D               	clrf	13	;volatile
  4458  008D                     l803:	
  4459                           
  4460                           ;user.c: 33: TRISAbits.TRISA0=1;
  4461  008D  0021               	movlb	1	; select bank1
  4462  008E  140C               	bsf	12,0	;volatile
  4463  008F                     l805:	
  4464                           
  4465                           ;user.c: 34: ANSELAbits.ANSA0=1;
  4466  008F  0023               	movlb	3	; select bank3
  4467  0090  140C               	bsf	12,0	;volatile
  4468  0091                     l807:	
  4469                           
  4470                           ;user.c: 35: WPUAbits.WPUA0 = 0;
  4471  0091  0024               	movlb	4	; select bank4
  4472  0092  100C               	bcf	12,0	;volatile
  4473  0093                     l809:	
  4474                           
  4475                           ;user.c: 38: TRISAbits.TRISA1=0;
  4476  0093  0021               	movlb	1	; select bank1
  4477  0094  108C               	bcf	12,1	;volatile
  4478  0095                     l811:	
  4479                           
  4480                           ;user.c: 39: ANSELAbits.ANSA1=1;
  4481  0095  0023               	movlb	3	; select bank3
  4482  0096  148C               	bsf	12,1	;volatile
  4483  0097                     l813:	
  4484                           
  4485                           ;user.c: 40: WPUAbits.WPUA1=0;
  4486  0097  0024               	movlb	4	; select bank4
  4487  0098  108C               	bcf	12,1	;volatile
  4488  0099                     l815:	
  4489                           
  4490                           ;user.c: 43: TRISCbits.TRISC7=1;
  4491  0099  0021               	movlb	1	; select bank1
  4492  009A  178E               	bsf	14,7	;volatile
  4493  009B                     l817:	
  4494                           
  4495                           ;user.c: 44: ANSELCbits.ANSC7=0;
  4496  009B  0023               	movlb	3	; select bank3
  4497  009C  138E               	bcf	14,7	;volatile
  4498  009D                     l819:	
  4499                           
  4500                           ;user.c: 45: WPUCbits.WPUC7=0;
  4501  009D  0024               	movlb	4	; select bank4
  4502  009E  138E               	bcf	14,7	;volatile
  4503                           
  4504                           ;user.c: 46: RXPPS=010111;
  4505  009F  3049               	movlw	73
  4506  00A0  003C               	movlb	28	; select bank28
  4507  00A1  00BD               	movwf	61	;volatile
  4508  00A2                     l821:	
  4509                           
  4510                           ;user.c: 49: TRISCbits.TRISC6=0;
  4511  00A2  0021               	movlb	1	; select bank1
  4512  00A3  130E               	bcf	14,6	;volatile
  4513  00A4                     l823:	
  4514                           
  4515                           ;user.c: 50: ANSELCbits.ANSC6=0;
  4516  00A4  0023               	movlb	3	; select bank3
  4517  00A5  130E               	bcf	14,6	;volatile
  4518  00A6                     l825:	
  4519                           
  4520                           ;user.c: 51: WPUCbits.WPUC6 = 0;
  4521  00A6  0024               	movlb	4	; select bank4
  4522  00A7  130E               	bcf	14,6	;volatile
  4523                           
  4524                           ;user.c: 52: RC6PPS= 100100;
  4525  00A8  3004               	movlw	4
  4526  00A9  003D               	movlb	29	; select bank29
  4527  00AA  00A6               	movwf	38	;volatile
  4528  00AB                     l827:	
  4529                           
  4530                           ;user.c: 56: INTCONbits.GIE=1;
  4531  00AB  178B               	bsf	11,7	;volatile
  4532  00AC                     l829:	
  4533                           
  4534                           ;user.c: 57: INTCONbits.PEIE=1;
  4535  00AC  170B               	bsf	11,6	;volatile
  4536  00AD                     l831:	
  4537                           
  4538                           ;user.c: 58: PIE1bits.ADIE=1;
  4539  00AD  0021               	movlb	1	; select bank1
  4540  00AE  1711               	bsf	17,6	;volatile
  4541  00AF                     l833:	
  4542                           
  4543                           ;user.c: 59: INTCONbits.TMR0IE=1;
  4544  00AF  168B               	bsf	11,5	;volatile
  4545  00B0                     l835:	
  4546                           
  4547                           ;user.c: 63: ADCON1bits.ADCS=0b011;
  4548  00B0  0029               	movlb	9	; select bank9
  4549  00B1  0811               	movf	17,w	;volatile
  4550  00B2  398F               	andlw	-113
  4551  00B3  3830               	iorlw	48
  4552  00B4  0091               	movwf	17	;volatile
  4553  00B5                     l837:	
  4554                           
  4555                           ;user.c: 64: ADCON1bits.ADPREF= 0;
  4556  00B5  30FC               	movlw	-4
  4557  00B6  0591               	andwf	17,f	;volatile
  4558  00B7                     l839:	
  4559                           
  4560                           ;user.c: 65: ADCON1bits.ADNREF = 0;
  4561  00B7  1111               	bcf	17,2	;volatile
  4562  00B8                     l841:	
  4563                           
  4564                           ;user.c: 66: ADCON1bits.ADFM=1;
  4565  00B8  1791               	bsf	17,7	;volatile
  4566  00B9                     l843:	
  4567                           
  4568                           ;user.c: 67: ADCON0bits.CHS = 0;
  4569  00B9  3003               	movlw	-253
  4570  00BA  0590               	andwf	16,f	;volatile
  4571  00BB                     l845:	
  4572                           
  4573                           ;user.c: 68: ADCON0bits.ADON=1;
  4574  00BB  1410               	bsf	16,0	;volatile
  4575  00BC                     l847:	
  4576                           
  4577                           ;user.c: 71: OPTION_REGbits.PSA=0;
  4578  00BC  0021               	movlb	1	; select bank1
  4579  00BD  1197               	bcf	23,3	;volatile
  4580  00BE                     l849:	
  4581                           
  4582                           ;user.c: 72: OPTION_REGbits.T0CS=0;
  4583  00BE  1297               	bcf	23,5	;volatile
  4584  00BF                     l851:	
  4585                           
  4586                           ;user.c: 73: OPTION_REGbits.PS=101;
  4587  00BF  0817               	movf	23,w	;volatile
  4588  00C0  39F8               	andlw	-8
  4589  00C1  3805               	iorlw	5
  4590  00C2  0097               	movwf	23	;volatile
  4591  00C3                     l853:	
  4592                           
  4593                           ;user.c: 78: BAUD1CONbits.BRG16= 0;
  4594  00C3  0023               	movlb	3	; select bank3
  4595  00C4  119F               	bcf	31,3	;volatile
  4596  00C5                     l855:	
  4597                           
  4598                           ;user.c: 79: TX1STAbits.BRGH= 0;
  4599  00C5  111E               	bcf	30,2	;volatile
  4600  00C6                     l857:	
  4601                           
  4602                           ;user.c: 80: TX1STAbits.SYNC= 0;
  4603  00C6  121E               	bcf	30,4	;volatile
  4604  00C7                     l859:	
  4605                           
  4606                           ;user.c: 81: SP1BRG = 25;
  4607  00C7  3000               	movlw	0
  4608  00C8  009C               	movwf	28	;volatile
  4609  00C9  3019               	movlw	25
  4610  00CA  009B               	movwf	27	;volatile
  4611  00CB                     l861:	
  4612                           
  4613                           ;user.c: 83: RC1STAbits.SPEN=1;
  4614  00CB  179D               	bsf	29,7	;volatile
  4615  00CC                     l863:	
  4616                           
  4617                           ;user.c: 84: TX1STAbits.TX9=0;
  4618  00CC  131E               	bcf	30,6	;volatile
  4619  00CD                     l865:	
  4620                           
  4621                           ;user.c: 85: TX1STAbits.TXEN=1;
  4622  00CD  169E               	bsf	30,5	;volatile
  4623  00CE                     l867:	
  4624                           
  4625                           ;user.c: 88: RC1STAbits.CREN=1;
  4626  00CE  161D               	bsf	29,4	;volatile
  4627  00CF                     l79:	
  4628  00CF  0008               	return
  4629  00D0                     __end_of_InitApp:	
  4630                           
  4631                           	psect	text9
  4632  0177                     __ptext9:	
  4633 ;; *************** function _ConfigureOscillator *****************
  4634 ;; Defined at:
  4635 ;;		line 18 in file "system.c"
  4636 ;; Parameters:    Size  Location     Type
  4637 ;;		None
  4638 ;; Auto vars:     Size  Location     Type
  4639 ;;		None
  4640 ;; Return value:  Size  Location     Type
  4641 ;;                  1    wreg      void 
  4642 ;; Registers used:
  4643 ;;		wreg, status,2, status,0
  4644 ;; Tracked objects:
  4645 ;;		On entry : 0/0
  4646 ;;		On exit  : 0/0
  4647 ;;		Unchanged: 0/0
  4648 ;; Data sizes:     COMMON   BANK0   BANK1   BANK2   BANK3   BANK4   BANK5   BANK6   BANK7   BANK8   BANK9  BANK10  BANK1
      +1  BANK12
  4649 ;;      Params:         0       0       0       0       0       0       0       0       0       0       0       0       
      +0       0
  4650 ;;      Locals:         0       0       0       0       0       0       0       0       0       0       0       0       
      +0       0
  4651 ;;      Temps:          0       0       0       0       0       0       0       0       0       0       0       0       
      +0       0
  4652 ;;      Totals:         0       0       0       0       0       0       0       0       0       0       0       0       
      +0       0
  4653 ;;Total ram usage:        0 bytes
  4654 ;; Hardware stack levels used:    1
  4655 ;; Hardware stack levels required when called:    1
  4656 ;; This function calls:
  4657 ;;		Nothing
  4658 ;; This function is called by:
  4659 ;;		_main
  4660 ;; This function uses a non-reentrant model
  4661 ;;
  4662                           
  4663                           
  4664                           ;psect for function _ConfigureOscillator
  4665  0177                     _ConfigureOscillator:	
  4666  0177                     l795:	
  4667                           ;incstack = 0
  4668                           ; Regs used in _ConfigureOscillator: [wreg+status,2+status,0]
  4669                           
  4670                           
  4671                           ;system.c: 21: OSCCONbits.IRCF= 1111;
  4672  0177  0021               	movlb	1	; select bank1
  4673  0178  081B               	movf	27,w	;volatile
  4674  0179  3987               	andlw	-121
  4675  017A  3838               	iorlw	56
  4676  017B  009B               	movwf	27	;volatile
  4677                           
  4678                           ;system.c: 22: OSCCONbits.SCS= 0b11;
  4679  017C  3003               	movlw	3
  4680  017D  049B               	iorwf	27,f	;volatile
  4681  017E                     l32:	
  4682  017E  0008               	return
  4683  017F                     __end_of_ConfigureOscillator:	
  4684                           
  4685                           	psect	intentry
  4686  0004                     __pintentry:	
  4687 ;; *************** function _isr *****************
  4688 ;; Defined at:
  4689 ;;		line 25 in file "interrupts.c"
  4690 ;; Parameters:    Size  Location     Type
  4691 ;;		None
  4692 ;; Auto vars:     Size  Location     Type
  4693 ;;		None
  4694 ;; Return value:  Size  Location     Type
  4695 ;;                  1    wreg      void 
  4696 ;; Registers used:
  4697 ;;		None
  4698 ;; Tracked objects:
  4699 ;;		On entry : 0/0
  4700 ;;		On exit  : 0/0
  4701 ;;		Unchanged: 0/0
  4702 ;; Data sizes:     COMMON   BANK0   BANK1   BANK2   BANK3   BANK4   BANK5   BANK6   BANK7   BANK8   BANK9  BANK10  BANK1
      +1  BANK12
  4703 ;;      Params:         0       0       0       0       0       0       0       0       0       0       0       0       
      +0       0
  4704 ;;      Locals:         0       0       0       0       0       0       0       0       0       0       0       0       
      +0       0
  4705 ;;      Temps:          0       0       0       0       0       0       0       0       0       0       0       0       
      +0       0
  4706 ;;      Totals:         0       0       0       0       0       0       0       0       0       0       0       0       
      +0       0
  4707 ;;Total ram usage:        0 bytes
  4708 ;; Hardware stack levels used:    1
  4709 ;; This function calls:
  4710 ;;		Nothing
  4711 ;; This function is called by:
  4712 ;;		Interrupt level 1
  4713 ;; This function uses a non-reentrant model
  4714 ;;
  4715                           
  4716  0004                     _isr:	
  4717                           
  4718                           ;incstack = 0
  4719  0004  147E               	bsf	int$flags,0	;set compiler interrupt flag (level 1)
  4720                           
  4721                           ; Regs used in _isr: []
  4722  0005  3180               	pagesel	$
  4723  0006                     i1l9:	
  4724  0006  107E               	bcf	int$flags,0	;clear compiler interrupt flag (level 1)
  4725  0007  0009               	retfie
  4726  0008                     __end_of_isr:	
  4727  007E                     btemp	set	126	;btemp
  4728  007E                     int$flags	set	126
  4729  007E                     wtemp0	set	126


Data Sizes:
    Strings     16
    Constant    0
    Data        0
    BSS         20
    Persistent  32
    Stack       0

Auto Spaces:
    Space          Size  Autos    Used
    COMMON           14     13      14
    BANK0            80      0      19
    BANK1            80      0       0
    BANK2            80      0       0
    BANK3            80      0       0
    BANK4            80      0       0
    BANK5            80      0       0
    BANK6            80      0       0
    BANK7            80      0       0
    BANK8            80      0       0
    BANK9            80      0       0
    BANK10           80      0       0
    BANK11           80      0       0
    BANK12           48      0       0

Pointer List with Targets:

    lcdWriteMessage@message	PTR const unsigned char  size(2) Largest target is 12
		 -> STR_7(CODE[2]), STR_6(CODE[2]), STR_5(CODE[2]), STR_4(CODE[2]), 
		 -> STR_3(CODE[2]), STR_2(CODE[2]), STR_1(CODE[12]), 


Critical Paths under _main in COMMON

    _main->_lcdWriteMessage
    _lcdWriteMessage->_lcdWrite
    _initLCD->_lcdClear
    _initLCD->_lcdHome
    _lcdHome->_lcdWrite
    _lcdClear->_lcdWrite
    _lcdWrite->_lcdPinWrite

Critical Paths under _isr in COMMON

    None.

Critical Paths under _main in BANK0

    None.

Critical Paths under _isr in BANK0

    None.

Critical Paths under _main in BANK1

    None.

Critical Paths under _isr in BANK1

    None.

Critical Paths under _main in BANK2

    None.

Critical Paths under _isr in BANK2

    None.

Critical Paths under _main in BANK3

    None.

Critical Paths under _isr in BANK3

    None.

Critical Paths under _main in BANK4

    None.

Critical Paths under _isr in BANK4

    None.

Critical Paths under _main in BANK5

    None.

Critical Paths under _isr in BANK5

    None.

Critical Paths under _main in BANK6

    None.

Critical Paths under _isr in BANK6

    None.

Critical Paths under _main in BANK7

    None.

Critical Paths under _isr in BANK7

    None.

Critical Paths under _main in BANK8

    None.

Critical Paths under _isr in BANK8

    None.

Critical Paths under _main in BANK9

    None.

Critical Paths under _isr in BANK9

    None.

Critical Paths under _main in BANK10

    None.

Critical Paths under _isr in BANK10

    None.

Critical Paths under _main in BANK11

    None.

Critical Paths under _isr in BANK11

    None.

Critical Paths under _main in BANK12

    None.

Critical Paths under _isr in BANK12

    None.

Call Graph Tables:

 ---------------------------------------------------------------------------------
 (Depth) Function   	        Calls       Base Space   Used Autos Params    Refs
 ---------------------------------------------------------------------------------
 (0) _main                                                 2     2      0    1492
                                             11 COMMON     2     2      0
                _ConfigureOscillator
                            _InitApp
                            _initLCD
                    _lcdWriteMessage
 ---------------------------------------------------------------------------------
 (1) _lcdWriteMessage                                      3     1      2     778
                                              8 COMMON     3     1      2
                           _lcdWrite
 ---------------------------------------------------------------------------------
 (1) _initLCD                                              1     1      0     714
                                              9 COMMON     1     1      0
                           _lcdClear
                     _lcdClockSignal
                            _lcdHome
                        _lcdPinWrite
                           _lcdWrite
 ---------------------------------------------------------------------------------
 (2) _lcdHome                                              1     1      0     201
                                              8 COMMON     1     1      0
                           _lcdWrite
 ---------------------------------------------------------------------------------
 (2) _lcdClear                                             1     1      0     201
                                              8 COMMON     1     1      0
                           _lcdWrite
 ---------------------------------------------------------------------------------
 (2) _lcdWrite                                             5     5      0     201
                                              3 COMMON     5     5      0
                     _lcdClockSignal
                        _lcdPinWrite
 ---------------------------------------------------------------------------------
 (3) _lcdPinWrite                                          3     3      0     111
                                              0 COMMON     3     3      0
 ---------------------------------------------------------------------------------
 (3) _lcdClockSignal                                       0     0      0       0
 ---------------------------------------------------------------------------------
 (1) _InitApp                                              0     0      0       0
 ---------------------------------------------------------------------------------
 (1) _ConfigureOscillator                                  0     0      0       0
 ---------------------------------------------------------------------------------
 Estimated maximum stack depth 3
 ---------------------------------------------------------------------------------
 (Depth) Function   	        Calls       Base Space   Used Autos Params    Refs
 ---------------------------------------------------------------------------------
 (5) _isr                                                  0     0      0       0
 ---------------------------------------------------------------------------------
 Estimated maximum stack depth 5
 ---------------------------------------------------------------------------------

 Call Graph Graphs:

 _main (ROOT)
   _ConfigureOscillator
   _InitApp
   _initLCD
     _lcdClear
       _lcdWrite
         _lcdClockSignal
         _lcdPinWrite
     _lcdClockSignal
     _lcdHome
       _lcdWrite
         _lcdClockSignal
         _lcdPinWrite
     _lcdPinWrite
     _lcdWrite
       _lcdClockSignal
       _lcdPinWrite
   _lcdWriteMessage
     _lcdWrite
       _lcdClockSignal
       _lcdPinWrite

 _isr (ROOT)

 Address spaces:
Name               Size   Autos  Total    Cost      Usage
BIGRAM             3F0      0       0       0        0.0%
NULL                 0      0       0       0        0.0%
CODE                 0      0       0       0        0.0%
BITCOMMON            E      0       0       1        0.0%
BITSFR0              0      0       0       1        0.0%
SFR0                 0      0       0       1        0.0%
COMMON               E      D       E       2      100.0%
BITSFR1              0      0       0       2        0.0%
SFR1                 0      0       0       2        0.0%
BITSFR2              0      0       0       3        0.0%
SFR2                 0      0       0       3        0.0%
STACK                0      0       0       3        0.0%
BITBANK0            50      0       0       4        0.0%
BITSFR3              0      0       0       4        0.0%
SFR3                 0      0       0       4        0.0%
BANK0               50      0      13       5       23.8%
BITSFR4              0      0       0       5        0.0%
SFR4                 0      0       0       5        0.0%
BITBANK1            50      0       0       6        0.0%
BITSFR5              0      0       0       6        0.0%
SFR5                 0      0       0       6        0.0%
BANK1               50      0       0       7        0.0%
BITSFR6              0      0       0       7        0.0%
SFR6                 0      0       0       7        0.0%
BITBANK2            50      0       0       8        0.0%
BITSFR7              0      0       0       8        0.0%
SFR7                 0      0       0       8        0.0%
BANK2               50      0       0       9        0.0%
BITSFR8              0      0       0       9        0.0%
SFR8                 0      0       0       9        0.0%
BITBANK3            50      0       0      10        0.0%
BITSFR9              0      0       0      10        0.0%
SFR9                 0      0       0      10        0.0%
BANK3               50      0       0      11        0.0%
BITSFR10             0      0       0      11        0.0%
SFR10                0      0       0      11        0.0%
BITBANK4            50      0       0      12        0.0%
BITSFR11             0      0       0      12        0.0%
SFR11                0      0       0      12        0.0%
BANK4               50      0       0      13        0.0%
BITSFR12             0      0       0      13        0.0%
SFR12                0      0       0      13        0.0%
BITBANK5            50      0       0      14        0.0%
BITSFR13             0      0       0      14        0.0%
SFR13                0      0       0      14        0.0%
BANK5               50      0       0      15        0.0%
BITSFR14             0      0       0      15        0.0%
SFR14                0      0       0      15        0.0%
BITBANK6            50      0       0      16        0.0%
BITSFR15             0      0       0      16        0.0%
SFR15                0      0       0      16        0.0%
BANK6               50      0       0      17        0.0%
BITSFR16             0      0       0      17        0.0%
SFR16                0      0       0      17        0.0%
BITBANK7            50      0       0      18        0.0%
BITSFR17             0      0       0      18        0.0%
SFR17                0      0       0      18        0.0%
BANK7               50      0       0      19        0.0%
BITSFR18             0      0       0      19        0.0%
SFR18                0      0       0      19        0.0%
BITSFR19             0      0       0      20        0.0%
SFR19                0      0       0      20        0.0%
ABS                  0      0      21      20        0.0%
BITBANK8            50      0       0      21        0.0%
BITSFR20             0      0       0      21        0.0%
SFR20                0      0       0      21        0.0%
BANK8               50      0       0      22        0.0%
BITSFR21             0      0       0      22        0.0%
SFR21                0      0       0      22        0.0%
BITBANK9            50      0       0      23        0.0%
BITSFR22             0      0       0      23        0.0%
SFR22                0      0       0      23        0.0%
BANK9               50      0       0      24        0.0%
BITSFR23             0      0       0      24        0.0%
SFR23                0      0       0      24        0.0%
BITBANK10           50      0       0      25        0.0%
BITSFR24             0      0       0      25        0.0%
SFR24                0      0       0      25        0.0%
BANK10              50      0       0      26        0.0%
BITSFR25             0      0       0      26        0.0%
SFR25                0      0       0      26        0.0%
BITBANK11           50      0       0      27        0.0%
BITSFR26             0      0       0      27        0.0%
SFR26                0      0       0      27        0.0%
BANK11              50      0       0      28        0.0%
BITSFR27             0      0       0      28        0.0%
SFR27                0      0       0      28        0.0%
BITBANK12           30      0       0      29        0.0%
BITSFR28             0      0       0      29        0.0%
SFR28                0      0       0      29        0.0%
BANK12              30      0       0      30        0.0%
BITSFR29             0      0       0      30        0.0%
SFR29                0      0       0      30        0.0%
BITSFR30             0      0       0      31        0.0%
SFR30                0      0       0      31        0.0%
DATA                 0      0      21      31        0.0%
BITSFR31             0      0       0      32        0.0%
SFR31                0      0       0      32        0.0%


Microchip Technology PIC Macro Assembler V2.10 build 88905656 
Symbol Table                                                                                   Mon Jan 27 18:28:36 2020

                 __CFG_CP$OFF 0000                            l32 017E                            l79 00CF  
                         l110 0188                           l120 0129                           l104 0083  
                         l121 012E                           l113 016A                           l123 0133  
                         l107 015B                           l126 00F5                           l119 0124  
                         l153 014C                           l801 008B                           l811 0095  
                         l803 008D                           l821 00A2                           l813 0097  
                         l805 008F                           l831 00AD                           l823 00A4  
                         l815 0099                           l807 0091                           l841 00B8  
                         l833 00AF                           l825 00A6                           l817 009B  
                         l809 0093                           l851 00BF                           l843 00B9  
                         l835 00B0                           l827 00AB                           l819 009D  
                         l861 00CB                           l853 00C3                           l845 00BB  
                         l837 00B5                           l829 00AC                           l863 00CC  
                         l855 00C5                           l847 00BC                           l839 00B7  
                         l865 00CD                           l857 00C6                           l849 00BE  
                         l795 0177                           l867 00CE                           l859 00C7  
                         l797 0084                           l799 0088                           u140 0123  
                         u141 0122                           u150 0128                           u151 0127  
                         u160 012D                           u161 012C                           u170 0132  
                         u171 0131                           u307 0046                           u317 0057  
                         u190 014C                           u327 0068                           u191 014B  
                         u185 00D4                           u337 0156                           u347 0165  
                         u357 00F0                           u277 010B                           u287 0021  
                         u297 0035                           i1l9 0006                           _isr 0004  
                __CFG_BORV$LO 0000                           wreg 0009                  _BAUD1CONbits 019F  
                __CFG_LVP$OFF 0000                  __CFG_ZCD$OFF 0000                          l1101 0032  
                        l1111 005C                          l1103 003A                          l1121 006F  
                        l1113 0060                          l1105 003E                          l1051 011F  
                        l1131 0081                          l1123 0073                          l1115 0064  
                        l1107 0045                          l1061 0185                          l1053 0123  
                        l1125 0077                          l1117 0067                          l1109 0051  
                        l1133 0134                          l1055 0128                          l1047 0116  
                        l1071 00E6                          l1063 00D1                          l1127 007B  
                        l1119 006B                          l1135 0137                          l1057 012D  
                        l1049 011B                          l1073 00EA                          l1065 00DB  
                        l1081 0162                          l1129 007E                          l1137 013F  
                        l1059 0132                          l1075 00ED                          l1067 00DF  
                        l1083 014D                          l1091 001E                          l1139 0143  
                        l1069 00E3                          l1077 015C                          l1085 014F  
                        l1093 0025                          l1173 00F6                          l1079 015E  
                        l1087 0153                          l1095 0027                          l1175 00FF  
                        l1097 002B                          l1089 0017                          l1177 0106  
                        l1099 002F                          ?_isr 0070                          STR_1 016B  
                        STR_2 018B                          STR_3 0189                          _LATA 010C  
                        _LATB 010D                          _LATC 010E                  __CFG_WRT$OFF 0000  
                        _main 00F6                          fsr0h 0005                          indf0 0000  
                        fsr0l 0004                          btemp 007E                          start 0008  
               __CFG_IESO$OFF 0000                 __CFG_MCLRE$ON 0000               __end_of_InitApp 00D0  
                       ??_isr 0070                         ?_main 0070                 __CFG_WDTE$OFF 0000  
                       _TRISB 008D                         _RXPPS 0E3D           _ConfigureOscillator 0177  
             __end_of_lcdHome 015C                __CFG_FCMEN$OFF 0000               __end_of_initLCD 0084  
              __CFG_BOREN$OFF 0000                         status 0003                         wtemp0 007E  
        ?_ConfigureOscillator 0070               __initialization 000A                  __end_of_main 0115  
      lcdWriteMessage@message 0078                __CFG_LPBOR$OFF 0000                        ??_main 007B  
    __size_of_lcdWriteMessage 0019                __CFG_PLLEN$OFF 0000          __size_of_lcdPinWrite 001F  
                      _ANSELB 018D                        _RC6PPS 0EA6                        _SP1BRG 019B  
     __size_of_lcdClockSignal 0004                     ??_InitApp 0070         ??_ConfigureOscillator 0070  
            __end_of_lcdClear 016B                __CFG_PWRTE$OFF 0000              __end_of_lcdWrite 00F6  
        lcdWrite@variable_low 0076                     ??_lcdHome 0078                     ??_initLCD 0079  
     __end_of__initialization 0013                __pcstackCOMMON 0070                _OPTION_REGbits 0097  
           ??_lcdWriteMessage 007A                    __pbssBANK0 0020                    __pmaintext 00F6  
             __CFG_PPS1WAY$ON 0000                    __pintentry 0004                     ?_lcdClear 0070  
                   ?_lcdWrite 0070                _lcdClockSignal 0185                       _InitApp 0084  
             __CFG_STVREN$OFF 0000                       _lcdHome 014D                       __ptext1 0134  
                     __ptext2 0017                       __ptext3 014D                       __ptext4 015C  
                     __ptext5 00D0                       __ptext6 0115                       __ptext7 0185  
                     __ptext8 0084                       __ptext9 0177                       _initLCD 0017  
                  _messajeLCD 0020                  __size_of_isr 0004                    ??_lcdClear 0078  
                  ??_lcdWrite 0073                       clrloop0 0180        __end_of_lcdClockSignal 0189  
        end_of_initialization 0013                 ??_lcdPinWrite 0070              __CFG_FOSC$INTOSC 0000  
                   _TRISAbits 008C                     _TRISBbits 008D                     _TRISCbits 008E  
 __end_of_ConfigureOscillator 017F               ?_lcdClockSignal 0070               _lcdWriteMessage 0134  
         start_initialization 000A                   __end_of_isr 0008             lcdWrite@character 0077  
         __end_of_lcdPinWrite 0134           lcdWrite@variable_up 0075                   __pbssCOMMON 007D  
                   ___latbits 0002             __size_of_lcdClear 000F             __size_of_lcdWrite 0026  
                    ?_InitApp 0070       __end_of_lcdWriteMessage 014D                lcdPinWrite@reg 0071  
                    ?_lcdHome 0070                      ?_initLCD 0070                   _lcdPinWrite 0115  
            lcdPinWrite@value 0072                      _LATBbits 010D                     clear_ram0 017F  
                    _PIE1bits 0091                    _ADCON0bits 0490                    _ADCON1bits 0491  
                    _WPUAbits 020C                      _WPUCbits 020E              ??_lcdClockSignal 0070  
            __size_of_InitApp 004C              ?_lcdWriteMessage 0078                    _ANSELAbits 018C  
                  _ANSELCbits 018E              __size_of_lcdHome 000F                      _band_aux 007D  
            __size_of_initLCD 006D                      _lcdClear 015C                      _lcdWrite 00D0  
               __size_of_main 001F  __size_of_ConfigureOscillator 0008                    _RC1STAbits 019D  
                    _timerLCD 0032                      int$flags 007E                    _INTCONbits 000B  
               _AD_almacenado 0030                      intlevel1 0000             __CFG_CLKOUTEN$OFF 0000  
                  _OSCCONbits 009B                 __pstringtext1 016B                 __pstringtext2 0189  
               __pstringtext3 018B                 __pstringtext4 0000                  ?_lcdPinWrite 0070  
                  _TX1STAbits 019E  
